	.file	"ass_funcs.cpp"
	.text
.Ltext0:
	.file 0 "/home/alexander/GIT/CP" "src/ass_funcs.cpp"
	.section	.rodata
	.align 32
	.type	_ZL8ACCURACY, @object
	.size	_ZL8ACCURACY, 4
_ZL8ACCURACY:
	.long	100
	.zero	60
	.align 32
	.type	_ZL18SIZE_OF_LABELS_ARR, @object
	.size	_ZL18SIZE_OF_LABELS_ARR, 4
_ZL18SIZE_OF_LABELS_ARR:
	.long	100
	.zero	60
	.align 32
	.type	_ZL8MASK_CMD, @object
	.size	_ZL8MASK_CMD, 4
_ZL8MASK_CMD:
	.long	63
	.zero	60
	.globl	__asan_stack_malloc_4
	.align 8
.LC0:
	.string	"4 32 4 8 shift:16 48 4 5 ip:19 64 128 13 label_name:18 224 256 6 cmd:20"
	.align 32
.LC1:
	.string	"%s%n"
	.zero	59
	.align 32
.LC2:
	.string	"ERROR"
	.zero	58
	.align 32
.LC3:
	.string	"Wrong label\n"
	.zero	51
	.align 32
.LC4:
	.string	"hlt"
	.zero	60
	.align 32
.LC5:
	.string	"show"
	.zero	59
	.align 32
.LC6:
	.string	"push"
	.zero	59
	.align 32
.LC7:
	.string	"pop"
	.zero	60
	.align 32
.LC8:
	.string	"add"
	.zero	60
	.align 32
.LC9:
	.string	"mul"
	.zero	60
	.align 32
.LC10:
	.string	"sub"
	.zero	60
	.align 32
.LC11:
	.string	"div"
	.zero	60
	.align 32
.LC12:
	.string	"out"
	.zero	60
	.align 32
.LC13:
	.string	"dump"
	.zero	59
	.align 32
.LC14:
	.string	"in"
	.zero	61
	.align 32
.LC15:
	.string	"jmp"
	.zero	60
	.align 32
.LC16:
	.string	"jae"
	.zero	60
	.align 32
.LC17:
	.string	"dup"
	.zero	60
	.align 32
.LC18:
	.string	"ja"
	.zero	61
	.align 32
.LC19:
	.string	"jee"
	.zero	60
	.align 32
.LC20:
	.string	"jne"
	.zero	60
	.align 32
.LC21:
	.string	"jbe"
	.zero	60
	.align 32
.LC22:
	.string	"jb"
	.zero	61
	.align 32
.LC23:
	.string	"cal"
	.zero	60
	.align 32
.LC24:
	.string	"ret"
	.zero	60
	.align 32
.LC25:
	.string	"wrong command on %d position\n"
	.zero	34
	.text
	.globl	_Z7compileP8_IO_FILEP8ass_info
	.type	_Z7compileP8_IO_FILEP8ass_info, @function
_Z7compileP8_IO_FILEP8ass_info:
.LASANPC957:
.LFB957:
	.file 1 "src/ass_funcs.cpp"
	.loc 1 14 1
	.cfi_startproc
	endbr64
	pushq	%rbp
	.cfi_def_cfa_offset 16
	.cfi_offset 6, -16
	movq	%rsp, %rbp
	.cfi_def_cfa_register 6
	pushq	%r14
	pushq	%r13
	pushq	%r12
	pushq	%rbx
	subq	$624, %rsp
	.cfi_offset 14, -24
	.cfi_offset 13, -32
	.cfi_offset 12, -40
	.cfi_offset 3, -48
	movq	%rdi, -648(%rbp)
	movq	%rsi, -656(%rbp)
	leaq	-608(%rbp), %r13
	movq	%r13, %r14
	cmpl	$0, __asan_option_detect_stack_use_after_return(%rip)
	je	.L1
	movl	$544, %edi
	call	__asan_stack_malloc_4@PLT
	testq	%rax, %rax
	je	.L1
	movq	%rax, %r13
.L1:
	leaq	576(%r13), %rax
	movq	%rax, %rbx
	movq	$1102416563, 0(%r13)
	leaq	.LC0(%rip), %rax
	movq	%rax, 8(%r13)
	leaq	.LASANPC957(%rip), %rax
	movq	%rax, 16(%r13)
	movq	%r13, %r12
	shrq	$3, %r12
	movl	$-235802127, 2147450880(%r12)
	movl	$-234556924, 2147450884(%r12)
	movl	$-218959118, 2147450904(%r12)
	movl	$-202116109, 2147450940(%r12)
	movl	$-202116109, 2147450944(%r12)
	.loc 1 14 1
	movq	%fs:40, %rax
	movq	%rax, -40(%rbp)
	xorl	%eax, %eax
	.loc 1 15 12
	movq	$0, -624(%rbp)
	.loc 1 16 9
	leaq	-544(%rbx), %rax
	movq	%rax, %rdx
	movq	%rdx, %rax
	shrq	$3, %rax
	addq	$2147450880, %rax
	movzbl	(%rax), %eax
	testb	%al, %al
	setne	%cl
	cmpb	$3, %al
	setle	%al
	andl	%ecx, %eax
	testb	%al, %al
	je	.L5
	movq	%rdx, %rdi
	call	__asan_report_store4@PLT
.L5:
	movl	$0, -544(%rbx)
	.loc 1 17 9
	movl	$0, -628(%rbp)
	.loc 1 18 10
	leaq	-512(%rbx), %rax
	movq	%rax, %rdx
	shrq	$3, %rdx
	addq	$2147450880, %rdx
	movzbl	(%rdx), %edx
	testb	%dl, %dl
	setne	%cl
	testb	%dl, %dl
	setle	%dl
	andl	%edx, %ecx
	movl	%ecx, %esi
	movl	$128, %edx
	subq	$1, %rdx
	leaq	(%rax,%rdx), %rcx
	movq	%rcx, %rdx
	shrq	$3, %rdx
	addq	$2147450880, %rdx
	movzbl	(%rdx), %edx
	testb	%dl, %dl
	setne	%dil
	andl	$7, %ecx
	cmpb	%dl, %cl
	setge	%dl
	andl	%edi, %edx
	orl	%esi, %edx
	testb	%dl, %dl
	je	.L6
	movl	$128, %esi
	movq	%rax, %rdi
	call	__asan_report_store_n@PLT
.L6:
	movq	$0, -512(%rbx)
	movq	$0, -504(%rbx)
	movq	$0, -496(%rbx)
	movq	$0, -488(%rbx)
	movq	$0, -480(%rbx)
	movq	$0, -472(%rbx)
	movq	$0, -464(%rbx)
	movq	$0, -456(%rbx)
	movq	$0, -448(%rbx)
	movq	$0, -440(%rbx)
	movq	$0, -432(%rbx)
	movq	$0, -424(%rbx)
	movq	$0, -416(%rbx)
	movq	$0, -408(%rbx)
	movq	$0, -400(%rbx)
	movq	$0, -392(%rbx)
	.loc 1 19 9
	leaq	-528(%rbx), %rax
	movq	%rax, %rdx
	movq	%rdx, %rax
	shrq	$3, %rax
	addq	$2147450880, %rax
	movzbl	(%rax), %eax
	testb	%al, %al
	setne	%cl
	cmpb	$3, %al
	setle	%al
	andl	%ecx, %eax
	testb	%al, %al
	je	.L7
	movq	%rdx, %rdi
	call	__asan_report_store4@PLT
.L7:
	movl	$0, -528(%rbx)
	.loc 1 20 10
	leaq	-352(%rbx), %rax
	movq	%rax, %rdx
	shrq	$3, %rdx
	addq	$2147450880, %rdx
	movzbl	(%rdx), %edx
	testb	%dl, %dl
	setne	%cl
	testb	%dl, %dl
	setle	%dl
	andl	%edx, %ecx
	movl	%ecx, %esi
	movl	$256, %edx
	subq	$1, %rdx
	leaq	(%rax,%rdx), %rcx
	movq	%rcx, %rdx
	shrq	$3, %rdx
	addq	$2147450880, %rdx
	movzbl	(%rdx), %edx
	testb	%dl, %dl
	setne	%dil
	andl	$7, %ecx
	cmpb	%dl, %cl
	setge	%dl
	andl	%edi, %edx
	orl	%esi, %edx
	testb	%dl, %dl
	je	.L8
	movl	$256, %esi
	movq	%rax, %rdi
	call	__asan_report_store_n@PLT
.L8:
	movq	$0, -352(%rbx)
	movq	$0, -344(%rbx)
	movq	$0, -336(%rbx)
	movq	$0, -328(%rbx)
	movq	$0, -320(%rbx)
	movq	$0, -312(%rbx)
	movq	$0, -304(%rbx)
	movq	$0, -296(%rbx)
	movq	$0, -288(%rbx)
	movq	$0, -280(%rbx)
	movq	$0, -272(%rbx)
	movq	$0, -264(%rbx)
	movq	$0, -256(%rbx)
	movq	$0, -248(%rbx)
	movq	$0, -240(%rbx)
	movq	$0, -232(%rbx)
	movq	$0, -224(%rbx)
	movq	$0, -216(%rbx)
	movq	$0, -208(%rbx)
	movq	$0, -200(%rbx)
	movq	$0, -192(%rbx)
	movq	$0, -184(%rbx)
	movq	$0, -176(%rbx)
	movq	$0, -168(%rbx)
	movq	$0, -160(%rbx)
	movq	$0, -152(%rbx)
	movq	$0, -144(%rbx)
	movq	$0, -136(%rbx)
	movq	$0, -128(%rbx)
	movq	$0, -120(%rbx)
	movq	$0, -112(%rbx)
	movq	$0, -104(%rbx)
	.loc 1 24 5
	jmp	.L9
.L78:
.LBB2:
	.loc 1 27 31
	movq	-656(%rbp), %rax
	movq	%rax, %rdx
	shrq	$3, %rdx
	addq	$2147450880, %rdx
	movzbl	(%rdx), %edx
	testb	%dl, %dl
	je	.L10
	movq	%rax, %rdi
	call	__asan_report_load8@PLT
.L10:
	movq	-656(%rbp), %rax
	movq	(%rax), %rdx
	.loc 1 27 40
	movq	-624(%rbp), %rax
	salq	$3, %rax
	addq	%rdx, %rax
	.loc 1 27 15
	movq	%rax, %rdx
	movq	%rdx, %rcx
	shrq	$3, %rcx
	addq	$2147450880, %rcx
	movzbl	(%rcx), %ecx
	testb	%cl, %cl
	je	.L11
	movq	%rdx, %rdi
	call	__asan_report_load8@PLT
.L11:
	movq	(%rax), %rax
	leaq	-544(%rbx), %rcx
	leaq	-352(%rbx), %rdx
	leaq	.LC1(%rip), %rsi
	movq	%rax, %rdi
	movl	$0, %eax
	call	__isoc99_sscanf@PLT
	.loc 1 29 43
	movq	-656(%rbp), %rax
	movq	%rax, %rdx
	shrq	$3, %rdx
	addq	$2147450880, %rdx
	movzbl	(%rdx), %edx
	testb	%dl, %dl
	je	.L12
	movq	%rax, %rdi
	call	__asan_report_load8@PLT
.L12:
	movq	-656(%rbp), %rax
	movq	(%rax), %rdx
	.loc 1 29 52
	movq	-624(%rbp), %rax
	salq	$3, %rax
	addq	%rdx, %rax
	movq	%rax, %rdx
	movq	%rdx, %rcx
	shrq	$3, %rcx
	addq	$2147450880, %rcx
	movzbl	(%rcx), %ecx
	testb	%cl, %cl
	je	.L13
	movq	%rdx, %rdi
	call	__asan_report_load8@PLT
.L13:
	movq	(%rax), %rcx
	.loc 1 29 56
	leaq	-544(%rbx), %rax
	movq	%rax, %rdx
	movq	%rdx, %rax
	shrq	$3, %rax
	addq	$2147450880, %rax
	movzbl	(%rax), %eax
	testb	%al, %al
	setne	%sil
	cmpb	$3, %al
	setle	%al
	andl	%esi, %eax
	testb	%al, %al
	je	.L14
	movq	%rdx, %rdi
	call	__asan_report_load4@PLT
.L14:
	movl	-544(%rbx), %eax
	cltq
	.loc 1 29 62
	addq	$1, %rax
	.loc 1 29 15
	addq	%rcx, %rax
	movq	%rax, -616(%rbp)
	.loc 1 35 19
	leaq	-352(%rbx), %rax
	movl	$58, %esi
	movq	%rax, %rdi
	call	strchr@PLT
	.loc 1 35 9
	testq	%rax, %rax
	je	.L15
	.loc 1 38 20
	leaq	-352(%rbx), %rax
	movq	%rax, %rdi
	call	_Z15find_label_namePc
	movq	%rax, %rcx
	leaq	-512(%rbx), %rax
	movl	$128, %edx
	movq	%rcx, %rsi
	movq	%rax, %rdi
	call	strncpy@PLT
	.loc 1 41 23
	leaq	-512(%rbx), %rax
	leaq	.LC2(%rip), %rdx
	movq	%rdx, %rsi
	movq	%rax, %rdi
	call	strcmp@PLT
	.loc 1 41 13
	testl	%eax, %eax
	jne	.L16
	.loc 1 43 21
	leaq	.LC3(%rip), %rax
	movq	%rax, %rdi
	call	puts@PLT
	jmp	.L17
.L16:
	.loc 1 47 25
	leaq	-512(%rbx), %rax
	movl	$58, %esi
	movq	%rax, %rdi
	call	strchr@PLT
	movq	%rax, %rdx
	.loc 1 47 44
	movq	%rdx, %rax
	movq	%rax, %rcx
	shrq	$3, %rcx
	addq	$2147450880, %rcx
	movzbl	(%rcx), %ecx
	testb	%cl, %cl
	setne	%sil
	movq	%rax, %rdi
	andl	$7, %edi
	cmpb	%cl, %dil
	setge	%cl
	andl	%esi, %ecx
	testb	%cl, %cl
	je	.L18
	movq	%rax, %rdi
	call	__asan_report_store1@PLT
.L18:
	movb	$0, (%rdx)
	.loc 1 48 58
	movl	-628(%rbp), %eax
	movslq	%eax, %rdx
	movq	%rdx, %rax
	salq	$5, %rax
	addq	%rdx, %rax
	salq	$2, %rax
	leaq	16(%rax), %rdx
	movq	-656(%rbp), %rax
	addq	%rdx, %rax
	leaq	8(%rax), %rcx
	.loc 1 48 24
	leaq	-512(%rbx), %rax
	movl	$128, %edx
	movq	%rax, %rsi
	movq	%rcx, %rdi
	call	strncpy@PLT
	.loc 1 49 58
	leaq	-528(%rbx), %rax
	movq	%rax, %rdx
	movq	%rdx, %rax
	shrq	$3, %rax
	addq	$2147450880, %rax
	movzbl	(%rax), %eax
	testb	%al, %al
	setne	%cl
	cmpb	$3, %al
	setle	%al
	andl	%ecx, %eax
	testb	%al, %al
	je	.L19
	movq	%rdx, %rdi
	call	__asan_report_load4@PLT
.L19:
	movl	-528(%rbx), %ecx
	movl	-628(%rbp), %eax
	movslq	%eax, %rdx
	movq	%rdx, %rax
	salq	$5, %rax
	addq	%rdx, %rax
	salq	$2, %rax
	leaq	144(%rax), %rdx
	movq	-656(%rbp), %rax
	addq	%rdx, %rax
	addq	$8, %rax
	movq	%rax, %rdx
	shrq	$3, %rdx
	addq	$2147450880, %rdx
	movzbl	(%rdx), %edx
	testb	%dl, %dl
	setne	%dil
	movq	%rax, %rsi
	andl	$7, %esi
	addl	$3, %esi
	cmpb	%dl, %sil
	setge	%dl
	andl	%edi, %edx
	testb	%dl, %dl
	je	.L20
	movq	%rax, %rdi
	call	__asan_report_store4@PLT
.L20:
	movq	-656(%rbp), %rsi
	movl	-628(%rbp), %eax
	movslq	%eax, %rdx
	movq	%rdx, %rax
	salq	$5, %rax
	addq	%rdx, %rax
	salq	$2, %rax
	addq	%rsi, %rax
	addq	$152, %rax
	movl	%ecx, (%rax)
.L17:
	.loc 1 51 22
	addl	$1, -628(%rbp)
	jmp	.L21
.L15:
	.loc 1 54 24
	leaq	-352(%rbx), %rax
	movq	%rax, %rsi
	leaq	.LC4(%rip), %rax
	movq	%rax, %rdi
	call	strcmp@PLT
	.loc 1 54 14
	testl	%eax, %eax
	jne	.L22
	.loc 1 56 27
	movq	-656(%rbp), %rax
	addq	$16, %rax
	movq	%rax, %rdx
	shrq	$3, %rdx
	addq	$2147450880, %rdx
	movzbl	(%rdx), %edx
	testb	%dl, %dl
	je	.L23
	movq	%rax, %rdi
	call	__asan_report_load8@PLT
.L23:
	movq	-656(%rbp), %rax
	movq	16(%rax), %rsi
	leaq	-528(%rbx), %rdx
	movq	-648(%rbp), %rax
	movl	$10, %r8d
	movq	%rdx, %rcx
	movl	$0, %edx
	movq	%rax, %rdi
	call	_Z14write_to_filesP8_IO_FILEPiiS1_c
	jmp	.L21
.L22:
	.loc 1 59 24
	leaq	-352(%rbx), %rax
	movq	%rax, %rsi
	leaq	.LC5(%rip), %rax
	movq	%rax, %rdi
	call	strcmp@PLT
	.loc 1 59 14
	testl	%eax, %eax
	jne	.L24
	.loc 1 61 27
	movq	-656(%rbp), %rax
	addq	$16, %rax
	movq	%rax, %rdx
	shrq	$3, %rdx
	addq	$2147450880, %rdx
	movzbl	(%rdx), %edx
	testb	%dl, %dl
	je	.L25
	movq	%rax, %rdi
	call	__asan_report_load8@PLT
.L25:
	movq	-656(%rbp), %rax
	movq	16(%rax), %rsi
	leaq	-528(%rbx), %rdx
	movq	-648(%rbp), %rax
	movl	$10, %r8d
	movq	%rdx, %rcx
	movl	$18, %edx
	movq	%rax, %rdi
	call	_Z14write_to_filesP8_IO_FILEPiiS1_c
	jmp	.L21
.L24:
	.loc 1 64 24
	leaq	-352(%rbx), %rax
	movq	%rax, %rsi
	leaq	.LC6(%rip), %rax
	movq	%rax, %rdi
	call	strcmp@PLT
	.loc 1 64 14
	testl	%eax, %eax
	jne	.L26
	.loc 1 66 27
	movq	-656(%rbp), %rax
	addq	$16, %rax
	movq	%rax, %rdx
	shrq	$3, %rdx
	addq	$2147450880, %rdx
	movzbl	(%rdx), %edx
	testb	%dl, %dl
	je	.L27
	movq	%rax, %rdi
	call	__asan_report_load8@PLT
.L27:
	movq	-656(%rbp), %rax
	movq	16(%rax), %rsi
	leaq	-528(%rbx), %rdx
	movq	-648(%rbp), %rax
	movl	$32, %r8d
	movq	%rdx, %rcx
	movl	$1, %edx
	movq	%rax, %rdi
	call	_Z14write_to_filesP8_IO_FILEPiiS1_c
	.loc 1 68 21
	movq	-656(%rbp), %rax
	addq	$16, %rax
	movq	%rax, %rdx
	shrq	$3, %rdx
	addq	$2147450880, %rdx
	movzbl	(%rdx), %edx
	testb	%dl, %dl
	je	.L28
	movq	%rax, %rdi
	call	__asan_report_load8@PLT
.L28:
	movq	-656(%rbp), %rax
	movq	16(%rax), %rdx
	movq	-648(%rbp), %rdi
	leaq	-528(%rbx), %rcx
	movq	-616(%rbp), %rsi
	movq	-656(%rbp), %rax
	movq	%rdi, %r8
	movq	%rax, %rdi
	call	_Z8get_argsP8ass_infoPcPiS2_P8_IO_FILE
	jmp	.L21
.L26:
	.loc 1 71 24
	leaq	-352(%rbx), %rax
	movq	%rax, %rsi
	leaq	.LC7(%rip), %rax
	movq	%rax, %rdi
	call	strcmp@PLT
	.loc 1 71 14
	testl	%eax, %eax
	jne	.L29
	.loc 1 73 27
	movq	-656(%rbp), %rax
	addq	$16, %rax
	movq	%rax, %rdx
	shrq	$3, %rdx
	addq	$2147450880, %rdx
	movzbl	(%rdx), %edx
	testb	%dl, %dl
	je	.L30
	movq	%rax, %rdi
	call	__asan_report_load8@PLT
.L30:
	movq	-656(%rbp), %rax
	movq	16(%rax), %rsi
	leaq	-528(%rbx), %rdx
	movq	-648(%rbp), %rax
	movl	$32, %r8d
	movq	%rdx, %rcx
	movl	$2, %edx
	movq	%rax, %rdi
	call	_Z14write_to_filesP8_IO_FILEPiiS1_c
	.loc 1 75 21
	movq	-656(%rbp), %rax
	addq	$16, %rax
	movq	%rax, %rdx
	shrq	$3, %rdx
	addq	$2147450880, %rdx
	movzbl	(%rdx), %edx
	testb	%dl, %dl
	je	.L31
	movq	%rax, %rdi
	call	__asan_report_load8@PLT
.L31:
	movq	-656(%rbp), %rax
	movq	16(%rax), %rdx
	movq	-648(%rbp), %rdi
	leaq	-528(%rbx), %rcx
	movq	-616(%rbp), %rsi
	movq	-656(%rbp), %rax
	movq	%rdi, %r8
	movq	%rax, %rdi
	call	_Z8get_argsP8ass_infoPcPiS2_P8_IO_FILE
	jmp	.L21
.L29:
	.loc 1 78 24
	leaq	-352(%rbx), %rax
	movq	%rax, %rsi
	leaq	.LC8(%rip), %rax
	movq	%rax, %rdi
	call	strcmp@PLT
	.loc 1 78 14
	testl	%eax, %eax
	jne	.L32
	.loc 1 80 27
	movq	-656(%rbp), %rax
	addq	$16, %rax
	movq	%rax, %rdx
	shrq	$3, %rdx
	addq	$2147450880, %rdx
	movzbl	(%rdx), %edx
	testb	%dl, %dl
	je	.L33
	movq	%rax, %rdi
	call	__asan_report_load8@PLT
.L33:
	movq	-656(%rbp), %rax
	movq	16(%rax), %rsi
	leaq	-528(%rbx), %rdx
	movq	-648(%rbp), %rax
	movl	$10, %r8d
	movq	%rdx, %rcx
	movl	$3, %edx
	movq	%rax, %rdi
	call	_Z14write_to_filesP8_IO_FILEPiiS1_c
	jmp	.L21
.L32:
	.loc 1 83 24
	leaq	-352(%rbx), %rax
	movq	%rax, %rsi
	leaq	.LC9(%rip), %rax
	movq	%rax, %rdi
	call	strcmp@PLT
	.loc 1 83 14
	testl	%eax, %eax
	jne	.L34
	.loc 1 85 27
	movq	-656(%rbp), %rax
	addq	$16, %rax
	movq	%rax, %rdx
	shrq	$3, %rdx
	addq	$2147450880, %rdx
	movzbl	(%rdx), %edx
	testb	%dl, %dl
	je	.L35
	movq	%rax, %rdi
	call	__asan_report_load8@PLT
.L35:
	movq	-656(%rbp), %rax
	movq	16(%rax), %rsi
	leaq	-528(%rbx), %rdx
	movq	-648(%rbp), %rax
	movl	$10, %r8d
	movq	%rdx, %rcx
	movl	$5, %edx
	movq	%rax, %rdi
	call	_Z14write_to_filesP8_IO_FILEPiiS1_c
	jmp	.L21
.L34:
	.loc 1 88 24
	leaq	-352(%rbx), %rax
	movq	%rax, %rsi
	leaq	.LC10(%rip), %rax
	movq	%rax, %rdi
	call	strcmp@PLT
	.loc 1 88 14
	testl	%eax, %eax
	jne	.L36
	.loc 1 90 27
	movq	-656(%rbp), %rax
	addq	$16, %rax
	movq	%rax, %rdx
	shrq	$3, %rdx
	addq	$2147450880, %rdx
	movzbl	(%rdx), %edx
	testb	%dl, %dl
	je	.L37
	movq	%rax, %rdi
	call	__asan_report_load8@PLT
.L37:
	movq	-656(%rbp), %rax
	movq	16(%rax), %rsi
	leaq	-528(%rbx), %rdx
	movq	-648(%rbp), %rax
	movl	$10, %r8d
	movq	%rdx, %rcx
	movl	$4, %edx
	movq	%rax, %rdi
	call	_Z14write_to_filesP8_IO_FILEPiiS1_c
	jmp	.L21
.L36:
	.loc 1 93 24
	leaq	-352(%rbx), %rax
	movq	%rax, %rsi
	leaq	.LC11(%rip), %rax
	movq	%rax, %rdi
	call	strcmp@PLT
	.loc 1 93 14
	testl	%eax, %eax
	jne	.L38
	.loc 1 95 27
	movq	-656(%rbp), %rax
	addq	$16, %rax
	movq	%rax, %rdx
	shrq	$3, %rdx
	addq	$2147450880, %rdx
	movzbl	(%rdx), %edx
	testb	%dl, %dl
	je	.L39
	movq	%rax, %rdi
	call	__asan_report_load8@PLT
.L39:
	movq	-656(%rbp), %rax
	movq	16(%rax), %rsi
	leaq	-528(%rbx), %rdx
	movq	-648(%rbp), %rax
	movl	$10, %r8d
	movq	%rdx, %rcx
	movl	$6, %edx
	movq	%rax, %rdi
	call	_Z14write_to_filesP8_IO_FILEPiiS1_c
	jmp	.L21
.L38:
	.loc 1 98 24
	leaq	-352(%rbx), %rax
	movq	%rax, %rsi
	leaq	.LC12(%rip), %rax
	movq	%rax, %rdi
	call	strcmp@PLT
	.loc 1 98 14
	testl	%eax, %eax
	jne	.L40
	.loc 1 100 27
	movq	-656(%rbp), %rax
	addq	$16, %rax
	movq	%rax, %rdx
	shrq	$3, %rdx
	addq	$2147450880, %rdx
	movzbl	(%rdx), %edx
	testb	%dl, %dl
	je	.L41
	movq	%rax, %rdi
	call	__asan_report_load8@PLT
.L41:
	movq	-656(%rbp), %rax
	movq	16(%rax), %rsi
	leaq	-528(%rbx), %rdx
	movq	-648(%rbp), %rax
	movl	$10, %r8d
	movq	%rdx, %rcx
	movl	$31, %edx
	movq	%rax, %rdi
	call	_Z14write_to_filesP8_IO_FILEPiiS1_c
	jmp	.L21
.L40:
	.loc 1 103 24
	leaq	-352(%rbx), %rax
	movq	%rax, %rsi
	leaq	.LC13(%rip), %rax
	movq	%rax, %rdi
	call	strcmp@PLT
	.loc 1 103 14
	testl	%eax, %eax
	jne	.L42
	.loc 1 105 27
	movq	-656(%rbp), %rax
	addq	$16, %rax
	movq	%rax, %rdx
	shrq	$3, %rdx
	addq	$2147450880, %rdx
	movzbl	(%rdx), %edx
	testb	%dl, %dl
	je	.L43
	movq	%rax, %rdi
	call	__asan_report_load8@PLT
.L43:
	movq	-656(%rbp), %rax
	movq	16(%rax), %rsi
	leaq	-528(%rbx), %rdx
	movq	-648(%rbp), %rax
	movl	$10, %r8d
	movq	%rdx, %rcx
	movl	$-1, %edx
	movq	%rax, %rdi
	call	_Z14write_to_filesP8_IO_FILEPiiS1_c
	jmp	.L21
.L42:
	.loc 1 108 24
	leaq	-352(%rbx), %rax
	movq	%rax, %rsi
	leaq	.LC14(%rip), %rax
	movq	%rax, %rdi
	call	strcmp@PLT
	.loc 1 108 14
	testl	%eax, %eax
	jne	.L44
	.loc 1 110 27
	movq	-656(%rbp), %rax
	addq	$16, %rax
	movq	%rax, %rdx
	shrq	$3, %rdx
	addq	$2147450880, %rdx
	movzbl	(%rdx), %edx
	testb	%dl, %dl
	je	.L45
	movq	%rax, %rdi
	call	__asan_report_load8@PLT
.L45:
	movq	-656(%rbp), %rax
	movq	16(%rax), %rsi
	leaq	-528(%rbx), %rdx
	movq	-648(%rbp), %rax
	movl	$10, %r8d
	movq	%rdx, %rcx
	movl	$7, %edx
	movq	%rax, %rdi
	call	_Z14write_to_filesP8_IO_FILEPiiS1_c
	jmp	.L21
.L44:
	.loc 1 113 24
	leaq	-352(%rbx), %rax
	movq	%rax, %rsi
	leaq	.LC15(%rip), %rax
	movq	%rax, %rdi
	call	strcmp@PLT
	.loc 1 113 14
	testl	%eax, %eax
	jne	.L46
	.loc 1 115 27
	movq	-656(%rbp), %rax
	addq	$16, %rax
	movq	%rax, %rdx
	shrq	$3, %rdx
	addq	$2147450880, %rdx
	movzbl	(%rdx), %edx
	testb	%dl, %dl
	je	.L47
	movq	%rax, %rdi
	call	__asan_report_load8@PLT
.L47:
	movq	-656(%rbp), %rax
	movq	16(%rax), %rsi
	leaq	-528(%rbx), %rdx
	movq	-648(%rbp), %rax
	movl	$32, %r8d
	movq	%rdx, %rcx
	movl	$9, %edx
	movq	%rax, %rdi
	call	_Z14write_to_filesP8_IO_FILEPiiS1_c
	.loc 1 117 21
	movq	-656(%rbp), %rax
	addq	$16, %rax
	movq	%rax, %rdx
	shrq	$3, %rdx
	addq	$2147450880, %rdx
	movzbl	(%rdx), %edx
	testb	%dl, %dl
	je	.L48
	movq	%rax, %rdi
	call	__asan_report_load8@PLT
.L48:
	movq	-656(%rbp), %rax
	movq	16(%rax), %rdx
	movq	-648(%rbp), %rdi
	leaq	-528(%rbx), %rcx
	movq	-616(%rbp), %rsi
	movq	-656(%rbp), %rax
	movq	%rdi, %r8
	movq	%rax, %rdi
	call	_Z8get_argsP8ass_infoPcPiS2_P8_IO_FILE
	jmp	.L21
.L46:
	.loc 1 120 24
	leaq	-352(%rbx), %rax
	movq	%rax, %rsi
	leaq	.LC16(%rip), %rax
	movq	%rax, %rdi
	call	strcmp@PLT
	.loc 1 120 14
	testl	%eax, %eax
	jne	.L49
	.loc 1 122 27
	movq	-656(%rbp), %rax
	addq	$16, %rax
	movq	%rax, %rdx
	shrq	$3, %rdx
	addq	$2147450880, %rdx
	movzbl	(%rdx), %edx
	testb	%dl, %dl
	je	.L50
	movq	%rax, %rdi
	call	__asan_report_load8@PLT
.L50:
	movq	-656(%rbp), %rax
	movq	16(%rax), %rsi
	leaq	-528(%rbx), %rdx
	movq	-648(%rbp), %rax
	movl	$32, %r8d
	movq	%rdx, %rcx
	movl	$11, %edx
	movq	%rax, %rdi
	call	_Z14write_to_filesP8_IO_FILEPiiS1_c
	.loc 1 124 21
	movq	-656(%rbp), %rax
	addq	$16, %rax
	movq	%rax, %rdx
	shrq	$3, %rdx
	addq	$2147450880, %rdx
	movzbl	(%rdx), %edx
	testb	%dl, %dl
	je	.L51
	movq	%rax, %rdi
	call	__asan_report_load8@PLT
.L51:
	movq	-656(%rbp), %rax
	movq	16(%rax), %rdx
	movq	-648(%rbp), %rdi
	leaq	-528(%rbx), %rcx
	movq	-616(%rbp), %rsi
	movq	-656(%rbp), %rax
	movq	%rdi, %r8
	movq	%rax, %rdi
	call	_Z8get_argsP8ass_infoPcPiS2_P8_IO_FILE
	jmp	.L21
.L49:
	.loc 1 127 24
	leaq	-352(%rbx), %rax
	movq	%rax, %rsi
	leaq	.LC17(%rip), %rax
	movq	%rax, %rdi
	call	strcmp@PLT
	.loc 1 127 14
	testl	%eax, %eax
	jne	.L52
	.loc 1 129 27
	movq	-656(%rbp), %rax
	addq	$16, %rax
	movq	%rax, %rdx
	shrq	$3, %rdx
	addq	$2147450880, %rdx
	movzbl	(%rdx), %edx
	testb	%dl, %dl
	je	.L53
	movq	%rax, %rdi
	call	__asan_report_load8@PLT
.L53:
	movq	-656(%rbp), %rax
	movq	16(%rax), %rsi
	leaq	-528(%rbx), %rdx
	movq	-648(%rbp), %rax
	movl	$10, %r8d
	movq	%rdx, %rcx
	movl	$8, %edx
	movq	%rax, %rdi
	call	_Z14write_to_filesP8_IO_FILEPiiS1_c
	jmp	.L21
.L52:
	.loc 1 132 25
	leaq	-352(%rbx), %rax
	movq	%rax, %rsi
	leaq	.LC18(%rip), %rax
	movq	%rax, %rdi
	call	strcmp@PLT
	.loc 1 132 15
	testl	%eax, %eax
	jne	.L54
	.loc 1 134 27
	movq	-656(%rbp), %rax
	addq	$16, %rax
	movq	%rax, %rdx
	shrq	$3, %rdx
	addq	$2147450880, %rdx
	movzbl	(%rdx), %edx
	testb	%dl, %dl
	je	.L55
	movq	%rax, %rdi
	call	__asan_report_load8@PLT
.L55:
	movq	-656(%rbp), %rax
	movq	16(%rax), %rsi
	leaq	-528(%rbx), %rdx
	movq	-648(%rbp), %rax
	movl	$32, %r8d
	movq	%rdx, %rcx
	movl	$10, %edx
	movq	%rax, %rdi
	call	_Z14write_to_filesP8_IO_FILEPiiS1_c
	.loc 1 136 21
	movq	-656(%rbp), %rax
	addq	$16, %rax
	movq	%rax, %rdx
	shrq	$3, %rdx
	addq	$2147450880, %rdx
	movzbl	(%rdx), %edx
	testb	%dl, %dl
	je	.L56
	movq	%rax, %rdi
	call	__asan_report_load8@PLT
.L56:
	movq	-656(%rbp), %rax
	movq	16(%rax), %rdx
	movq	-648(%rbp), %rdi
	leaq	-528(%rbx), %rcx
	movq	-616(%rbp), %rsi
	movq	-656(%rbp), %rax
	movq	%rdi, %r8
	movq	%rax, %rdi
	call	_Z8get_argsP8ass_infoPcPiS2_P8_IO_FILE
	jmp	.L21
.L54:
	.loc 1 139 24
	leaq	-352(%rbx), %rax
	movq	%rax, %rsi
	leaq	.LC19(%rip), %rax
	movq	%rax, %rdi
	call	strcmp@PLT
	.loc 1 139 14
	testl	%eax, %eax
	jne	.L57
	.loc 1 141 27
	movq	-656(%rbp), %rax
	addq	$16, %rax
	movq	%rax, %rdx
	shrq	$3, %rdx
	addq	$2147450880, %rdx
	movzbl	(%rdx), %edx
	testb	%dl, %dl
	je	.L58
	movq	%rax, %rdi
	call	__asan_report_load8@PLT
.L58:
	movq	-656(%rbp), %rax
	movq	16(%rax), %rsi
	leaq	-528(%rbx), %rdx
	movq	-648(%rbp), %rax
	movl	$32, %r8d
	movq	%rdx, %rcx
	movl	$12, %edx
	movq	%rax, %rdi
	call	_Z14write_to_filesP8_IO_FILEPiiS1_c
	.loc 1 143 21
	movq	-656(%rbp), %rax
	addq	$16, %rax
	movq	%rax, %rdx
	shrq	$3, %rdx
	addq	$2147450880, %rdx
	movzbl	(%rdx), %edx
	testb	%dl, %dl
	je	.L59
	movq	%rax, %rdi
	call	__asan_report_load8@PLT
.L59:
	movq	-656(%rbp), %rax
	movq	16(%rax), %rdx
	movq	-648(%rbp), %rdi
	leaq	-528(%rbx), %rcx
	movq	-616(%rbp), %rsi
	movq	-656(%rbp), %rax
	movq	%rdi, %r8
	movq	%rax, %rdi
	call	_Z8get_argsP8ass_infoPcPiS2_P8_IO_FILE
	jmp	.L21
.L57:
	.loc 1 146 24
	leaq	-352(%rbx), %rax
	movq	%rax, %rsi
	leaq	.LC20(%rip), %rax
	movq	%rax, %rdi
	call	strcmp@PLT
	.loc 1 146 14
	testl	%eax, %eax
	jne	.L60
	.loc 1 148 27
	movq	-656(%rbp), %rax
	addq	$16, %rax
	movq	%rax, %rdx
	shrq	$3, %rdx
	addq	$2147450880, %rdx
	movzbl	(%rdx), %edx
	testb	%dl, %dl
	je	.L61
	movq	%rax, %rdi
	call	__asan_report_load8@PLT
.L61:
	movq	-656(%rbp), %rax
	movq	16(%rax), %rsi
	leaq	-528(%rbx), %rdx
	movq	-648(%rbp), %rax
	movl	$32, %r8d
	movq	%rdx, %rcx
	movl	$15, %edx
	movq	%rax, %rdi
	call	_Z14write_to_filesP8_IO_FILEPiiS1_c
	.loc 1 150 21
	movq	-656(%rbp), %rax
	addq	$16, %rax
	movq	%rax, %rdx
	shrq	$3, %rdx
	addq	$2147450880, %rdx
	movzbl	(%rdx), %edx
	testb	%dl, %dl
	je	.L62
	movq	%rax, %rdi
	call	__asan_report_load8@PLT
.L62:
	movq	-656(%rbp), %rax
	movq	16(%rax), %rdx
	movq	-648(%rbp), %rdi
	leaq	-528(%rbx), %rcx
	movq	-616(%rbp), %rsi
	movq	-656(%rbp), %rax
	movq	%rdi, %r8
	movq	%rax, %rdi
	call	_Z8get_argsP8ass_infoPcPiS2_P8_IO_FILE
	jmp	.L21
.L60:
	.loc 1 153 24
	leaq	-352(%rbx), %rax
	movq	%rax, %rsi
	leaq	.LC21(%rip), %rax
	movq	%rax, %rdi
	call	strcmp@PLT
	.loc 1 153 14
	testl	%eax, %eax
	jne	.L63
	.loc 1 155 27
	movq	-656(%rbp), %rax
	addq	$16, %rax
	movq	%rax, %rdx
	shrq	$3, %rdx
	addq	$2147450880, %rdx
	movzbl	(%rdx), %edx
	testb	%dl, %dl
	je	.L64
	movq	%rax, %rdi
	call	__asan_report_load8@PLT
.L64:
	movq	-656(%rbp), %rax
	movq	16(%rax), %rsi
	leaq	-528(%rbx), %rdx
	movq	-648(%rbp), %rax
	movl	$32, %r8d
	movq	%rdx, %rcx
	movl	$13, %edx
	movq	%rax, %rdi
	call	_Z14write_to_filesP8_IO_FILEPiiS1_c
	.loc 1 157 21
	movq	-656(%rbp), %rax
	addq	$16, %rax
	movq	%rax, %rdx
	shrq	$3, %rdx
	addq	$2147450880, %rdx
	movzbl	(%rdx), %edx
	testb	%dl, %dl
	je	.L65
	movq	%rax, %rdi
	call	__asan_report_load8@PLT
.L65:
	movq	-656(%rbp), %rax
	movq	16(%rax), %rdx
	movq	-648(%rbp), %rdi
	leaq	-528(%rbx), %rcx
	movq	-616(%rbp), %rsi
	movq	-656(%rbp), %rax
	movq	%rdi, %r8
	movq	%rax, %rdi
	call	_Z8get_argsP8ass_infoPcPiS2_P8_IO_FILE
	jmp	.L21
.L63:
	.loc 1 160 24
	leaq	-352(%rbx), %rax
	movq	%rax, %rsi
	leaq	.LC22(%rip), %rax
	movq	%rax, %rdi
	call	strcmp@PLT
	.loc 1 160 14
	testl	%eax, %eax
	jne	.L66
	.loc 1 162 27
	movq	-656(%rbp), %rax
	addq	$16, %rax
	movq	%rax, %rdx
	shrq	$3, %rdx
	addq	$2147450880, %rdx
	movzbl	(%rdx), %edx
	testb	%dl, %dl
	je	.L67
	movq	%rax, %rdi
	call	__asan_report_load8@PLT
.L67:
	movq	-656(%rbp), %rax
	movq	16(%rax), %rsi
	leaq	-528(%rbx), %rdx
	movq	-648(%rbp), %rax
	movl	$32, %r8d
	movq	%rdx, %rcx
	movl	$14, %edx
	movq	%rax, %rdi
	call	_Z14write_to_filesP8_IO_FILEPiiS1_c
	.loc 1 164 21
	movq	-656(%rbp), %rax
	addq	$16, %rax
	movq	%rax, %rdx
	shrq	$3, %rdx
	addq	$2147450880, %rdx
	movzbl	(%rdx), %edx
	testb	%dl, %dl
	je	.L68
	movq	%rax, %rdi
	call	__asan_report_load8@PLT
.L68:
	movq	-656(%rbp), %rax
	movq	16(%rax), %rdx
	movq	-648(%rbp), %rdi
	leaq	-528(%rbx), %rcx
	movq	-616(%rbp), %rsi
	movq	-656(%rbp), %rax
	movq	%rdi, %r8
	movq	%rax, %rdi
	call	_Z8get_argsP8ass_infoPcPiS2_P8_IO_FILE
	jmp	.L21
.L66:
	.loc 1 167 24
	leaq	-352(%rbx), %rax
	movq	%rax, %rsi
	leaq	.LC23(%rip), %rax
	movq	%rax, %rdi
	call	strcmp@PLT
	.loc 1 167 14
	testl	%eax, %eax
	jne	.L69
	.loc 1 169 27
	movq	-656(%rbp), %rax
	addq	$16, %rax
	movq	%rax, %rdx
	shrq	$3, %rdx
	addq	$2147450880, %rdx
	movzbl	(%rdx), %edx
	testb	%dl, %dl
	je	.L70
	movq	%rax, %rdi
	call	__asan_report_load8@PLT
.L70:
	movq	-656(%rbp), %rax
	movq	16(%rax), %rsi
	leaq	-528(%rbx), %rdx
	movq	-648(%rbp), %rax
	movl	$32, %r8d
	movq	%rdx, %rcx
	movl	$16, %edx
	movq	%rax, %rdi
	call	_Z14write_to_filesP8_IO_FILEPiiS1_c
	.loc 1 171 21
	movq	-656(%rbp), %rax
	addq	$16, %rax
	movq	%rax, %rdx
	shrq	$3, %rdx
	addq	$2147450880, %rdx
	movzbl	(%rdx), %edx
	testb	%dl, %dl
	je	.L71
	movq	%rax, %rdi
	call	__asan_report_load8@PLT
.L71:
	movq	-656(%rbp), %rax
	movq	16(%rax), %rdx
	movq	-648(%rbp), %rdi
	leaq	-528(%rbx), %rcx
	movq	-616(%rbp), %rsi
	movq	-656(%rbp), %rax
	movq	%rdi, %r8
	movq	%rax, %rdi
	call	_Z8get_argsP8ass_infoPcPiS2_P8_IO_FILE
	jmp	.L21
.L69:
	.loc 1 174 24
	leaq	-352(%rbx), %rax
	movq	%rax, %rsi
	leaq	.LC24(%rip), %rax
	movq	%rax, %rdi
	call	strcmp@PLT
	.loc 1 174 14
	testl	%eax, %eax
	jne	.L72
	.loc 1 176 27
	movq	-656(%rbp), %rax
	addq	$16, %rax
	movq	%rax, %rdx
	shrq	$3, %rdx
	addq	$2147450880, %rdx
	movzbl	(%rdx), %edx
	testb	%dl, %dl
	je	.L73
	movq	%rax, %rdi
	call	__asan_report_load8@PLT
.L73:
	movq	-656(%rbp), %rax
	movq	16(%rax), %rsi
	leaq	-528(%rbx), %rdx
	movq	-648(%rbp), %rax
	movl	$10, %r8d
	movq	%rdx, %rcx
	movl	$17, %edx
	movq	%rax, %rdi
	call	_Z14write_to_filesP8_IO_FILEPiiS1_c
	jmp	.L21
.L72:
	.loc 1 179 23
	leaq	-352(%rbx), %rax
	movq	%rax, %rdx
	movq	%rdx, %rax
	shrq	$3, %rax
	addq	$2147450880, %rax
	movzbl	(%rax), %eax
	testb	%al, %al
	setne	%cl
	testb	%al, %al
	setle	%al
	andl	%ecx, %eax
	testb	%al, %al
	je	.L74
	movq	%rdx, %rdi
	call	__asan_report_load1@PLT
.L74:
	movzbl	-352(%rbx), %eax
	.loc 1 179 14
	cmpb	$-1, %al
	je	.L21
	.loc 1 183 19
	leaq	-528(%rbx), %rax
	movq	%rax, %rdx
	movq	%rdx, %rax
	shrq	$3, %rax
	addq	$2147450880, %rax
	movzbl	(%rax), %eax
	testb	%al, %al
	setne	%cl
	cmpb	$3, %al
	setle	%al
	andl	%ecx, %eax
	testb	%al, %al
	je	.L75
	movq	%rdx, %rdi
	call	__asan_report_load4@PLT
.L75:
	movl	-528(%rbx), %eax
	movl	%eax, %esi
	leaq	.LC25(%rip), %rax
	movq	%rax, %rdi
	movl	$0, %eax
	call	printf@PLT
.L21:
	.loc 1 186 16
	leaq	-352(%rbx), %rax
	movq	%rax, %rdx
	movq	%rdx, %rax
	shrq	$3, %rax
	addq	$2147450880, %rax
	movzbl	(%rax), %eax
	testb	%al, %al
	setne	%cl
	testb	%al, %al
	setle	%al
	andl	%ecx, %eax
	testb	%al, %al
	je	.L76
	movq	%rdx, %rdi
	call	__asan_report_store1@PLT
.L76:
	movb	$-1, -352(%rbx)
	.loc 1 187 13
	addq	$1, -624(%rbp)
.L9:
.LBE2:
	.loc 1 24 34
	movq	-656(%rbp), %rax
	addq	$13224, %rax
	movq	%rax, %rdx
	shrq	$3, %rdx
	addq	$2147450880, %rdx
	movzbl	(%rdx), %edx
	testb	%dl, %dl
	je	.L77
	movq	%rax, %rdi
	call	__asan_report_load8@PLT
.L77:
	movq	-656(%rbp), %rax
	movq	13224(%rax), %rax
	.loc 1 24 17
	cmpq	%rax, -624(%rbp)
	jb	.L78
	.loc 1 189 1
	nop
	.loc 1 14 1
	cmpq	%r13, %r14
	je	.L2
	movq	$1172321806, 0(%r13)
	movabsq	$-723401728380766731, %rax
	movabsq	$-723401728380766731, %rdx
	movq	%rax, 2147450880(%r12)
	movq	%rdx, 2147450888(%r12)
	movq	%rax, 2147450896(%r12)
	movq	%rdx, 2147450904(%r12)
	movq	%rax, 2147450912(%r12)
	movq	%rdx, 2147450920(%r12)
	movq	%rax, 2147450928(%r12)
	movq	%rdx, 2147450936(%r12)
	movl	$-168430091, 2147450944(%r12)
	movq	1016(%r13), %rax
	movb	$0, (%rax)
	jmp	.L3
.L2:
	movq	$0, 2147450880(%r12)
	movl	$0, 2147450904(%r12)
	movq	$0, 2147450940(%r12)
.L3:
	.loc 1 189 1
	movq	-40(%rbp), %rax
	subq	%fs:40, %rax
	je	.L79
	call	__stack_chk_fail@PLT
.L79:
	addq	$624, %rsp
	popq	%rbx
	popq	%r12
	popq	%r13
	popq	%r14
	popq	%rbp
	.cfi_def_cfa 7, 8
	ret
	.cfi_endproc
.LFE957:
	.size	_Z7compileP8_IO_FILEP8ass_info, .-_Z7compileP8_IO_FILEP8ass_info
	.globl	__asan_stack_malloc_2
	.section	.rodata
	.align 8
.LC26:
	.string	"2 32 8 8 args:193 64 128 10 label_name"
	.align 32
.LC27:
	.string	"%d%c"
	.zero	59
	.align 32
.LC28:
	.string	"%d %c"
	.zero	58
	.align 32
.LC29:
	.string	" :%s"
	.zero	59
	.text
	.globl	_Z8get_argsP8ass_infoPcPiS2_P8_IO_FILE
	.type	_Z8get_argsP8ass_infoPcPiS2_P8_IO_FILE, @function
_Z8get_argsP8ass_infoPcPiS2_P8_IO_FILE:
.LASANPC958:
.LFB958:
	.loc 1 192 1
	.cfi_startproc
	endbr64
	pushq	%rbp
	.cfi_def_cfa_offset 16
	.cfi_offset 6, -16
	movq	%rsp, %rbp
	.cfi_def_cfa_register 6
	pushq	%r14
	pushq	%r13
	pushq	%r12
	pushq	%rbx
	subq	$320, %rsp
	.cfi_offset 14, -24
	.cfi_offset 13, -32
	.cfi_offset 12, -40
	.cfi_offset 3, -48
	movq	%rdi, -312(%rbp)
	movq	%rsi, -320(%rbp)
	movq	%rdx, -328(%rbp)
	movq	%rcx, -336(%rbp)
	movq	%r8, -344(%rbp)
	leaq	-288(%rbp), %r12
	movq	%r12, %r14
	cmpl	$0, __asan_option_detect_stack_use_after_return(%rip)
	je	.L80
	movl	$224, %edi
	call	__asan_stack_malloc_2@PLT
	testq	%rax, %rax
	je	.L80
	movq	%rax, %r12
.L80:
	leaq	256(%r12), %rax
	movq	%rax, %rbx
	movq	$1102416563, (%r12)
	leaq	.LC26(%rip), %rax
	movq	%rax, 8(%r12)
	leaq	.LASANPC958(%rip), %rax
	movq	%rax, 16(%r12)
	movq	%r12, %r13
	shrq	$3, %r13
	movl	$-235802127, 2147450880(%r13)
	movl	$-218959360, 2147450884(%r13)
	movl	$-202116109, 2147450904(%r13)
	.loc 1 192 1
	movq	%fs:40, %rax
	movq	%rax, -40(%rbp)
	xorl	%eax, %eax
	.loc 1 193 10
	leaq	-224(%rbx), %rax
	movq	%rax, %rdx
	shrq	$3, %rdx
	addq	$2147450880, %rdx
	movzbl	(%rdx), %edx
	testb	%dl, %dl
	je	.L84
	movq	%rax, %rdi
	call	__asan_report_store8@PLT
.L84:
	movq	$0, -224(%rbx)
	.loc 1 194 19
	movq	-320(%rbp), %rax
	movq	%rax, %rdi
	call	_Z7get_argPc
	movq	%rax, -224(%rbx)
.LBB3:
	.loc 1 196 29
	movq	-336(%rbp), %rax
	movq	%rax, %rdx
	shrq	$3, %rdx
	addq	$2147450880, %rdx
	movzbl	(%rdx), %edx
	testb	%dl, %dl
	setne	%sil
	movq	%rax, %rcx
	andl	$7, %ecx
	addl	$3, %ecx
	cmpb	%dl, %cl
	setge	%dl
	andl	%esi, %edx
	testb	%dl, %dl
	je	.L85
	movq	%rax, %rdi
	call	__asan_report_load4@PLT
.L85:
	movq	-336(%rbp), %rax
	movl	(%rax), %eax
	cltq
	.loc 1 196 34
	salq	$2, %rax
	leaq	-4(%rax), %rdx
	movq	-328(%rbp), %rax
	leaq	(%rdx,%rax), %rcx
	movq	%rcx, %rax
	movq	%rax, %rdx
	shrq	$3, %rdx
	addq	$2147450880, %rdx
	movzbl	(%rdx), %edx
	testb	%dl, %dl
	setne	%dil
	movq	%rax, %rsi
	andl	$7, %esi
	addl	$3, %esi
	cmpb	%dl, %sil
	setge	%dl
	andl	%edi, %edx
	testb	%dl, %dl
	je	.L86
	movq	%rax, %rdi
	call	__asan_report_load4@PLT
.L86:
	movl	(%rcx), %eax
	.loc 1 196 5
	cmpl	$17, %eax
	jg	.L87
	cmpl	$9, %eax
	jge	.L88
	cmpl	$1, %eax
	je	.L89
	cmpl	$2, %eax
	je	.L90
	jmp	.L87
.L89:
.LBB4:
	.loc 1 200 29
	movq	-336(%rbp), %rax
	movq	%rax, %rdx
	shrq	$3, %rdx
	addq	$2147450880, %rdx
	movzbl	(%rdx), %edx
	testb	%dl, %dl
	setne	%sil
	movq	%rax, %rcx
	andl	$7, %ecx
	addl	$3, %ecx
	cmpb	%dl, %cl
	setge	%dl
	andl	%esi, %edx
	testb	%dl, %dl
	je	.L91
	movq	%rax, %rdi
	call	__asan_report_load4@PLT
.L91:
	movq	-336(%rbp), %rax
	movl	(%rax), %eax
	.loc 1 200 36
	cltq
	salq	$2, %rax
	leaq	-4(%rax), %rdx
	movq	-328(%rbp), %rax
	leaq	(%rdx,%rax), %rcx
	movq	%rcx, %rax
	movq	%rax, %rdx
	shrq	$3, %rdx
	addq	$2147450880, %rdx
	movzbl	(%rdx), %edx
	testb	%dl, %dl
	setne	%dil
	movq	%rax, %rsi
	andl	$7, %esi
	addl	$3, %esi
	cmpb	%dl, %sil
	setge	%dl
	andl	%edi, %edx
	testb	%dl, %dl
	je	.L92
	movq	%rax, %rdi
	call	__asan_report_load4@PLT
.L92:
	movl	(%rcx), %esi
	.loc 1 200 44
	leaq	-224(%rbx), %rax
	movq	%rax, %rdx
	movq	%rdx, %rax
	shrq	$3, %rax
	addq	$2147450880, %rax
	movzbl	(%rax), %eax
	testb	%al, %al
	setne	%cl
	cmpb	$3, %al
	setle	%al
	andl	%ecx, %eax
	testb	%al, %al
	je	.L93
	movq	%rdx, %rdi
	call	__asan_report_load4@PLT
.L93:
	movl	-224(%rbx), %edx
	.loc 1 200 29
	movq	-336(%rbp), %rax
	movl	(%rax), %eax
	.loc 1 200 36
	cltq
	salq	$2, %rax
	leaq	-4(%rax), %rcx
	movq	-328(%rbp), %rax
	addq	%rax, %rcx
	orl	%edx, %esi
	movq	%rcx, %rax
	movq	%rax, %rdx
	shrq	$3, %rdx
	addq	$2147450880, %rdx
	movzbl	(%rdx), %edx
	testb	%dl, %dl
	setne	%r8b
	movq	%rax, %rdi
	andl	$7, %edi
	addl	$3, %edi
	cmpb	%dl, %dil
	setge	%dl
	andl	%r8d, %edx
	testb	%dl, %dl
	je	.L94
	movq	%rax, %rdi
	call	__asan_report_store4@PLT
.L94:
	movl	%esi, (%rcx)
	.loc 1 201 18
	movq	-344(%rbp), %rax
	movl	$1, %edx
	movq	$-2, %rsi
	movq	%rax, %rdi
	call	fseek@PLT
	.loc 1 202 62
	movq	-336(%rbp), %rax
	movq	%rax, %rdx
	shrq	$3, %rdx
	addq	$2147450880, %rdx
	movzbl	(%rdx), %edx
	testb	%dl, %dl
	setne	%sil
	movq	%rax, %rcx
	andl	$7, %ecx
	addl	$3, %ecx
	cmpb	%dl, %cl
	setge	%dl
	andl	%esi, %edx
	testb	%dl, %dl
	je	.L95
	movq	%rax, %rdi
	call	__asan_report_load4@PLT
.L95:
	movq	-336(%rbp), %rax
	movl	(%rax), %eax
	cltq
	.loc 1 202 67
	salq	$2, %rax
	leaq	-4(%rax), %rdx
	movq	-328(%rbp), %rax
	leaq	(%rdx,%rax), %rcx
	.loc 1 202 20
	movq	%rcx, %rax
	movq	%rax, %rdx
	shrq	$3, %rdx
	addq	$2147450880, %rdx
	movzbl	(%rdx), %edx
	testb	%dl, %dl
	setne	%dil
	movq	%rax, %rsi
	andl	$7, %esi
	addl	$3, %esi
	cmpb	%dl, %sil
	setge	%dl
	andl	%edi, %edx
	testb	%dl, %dl
	je	.L96
	movq	%rax, %rdi
	call	__asan_report_load4@PLT
.L96:
	movl	(%rcx), %edx
	movq	-344(%rbp), %rax
	movl	$32, %ecx
	leaq	.LC27(%rip), %rsi
	movq	%rax, %rdi
	movl	$0, %eax
	call	fprintf@PLT
	.loc 1 204 29
	movq	-336(%rbp), %rax
	movq	%rax, %rdx
	shrq	$3, %rdx
	addq	$2147450880, %rdx
	movzbl	(%rdx), %edx
	testb	%dl, %dl
	setne	%sil
	movq	%rax, %rcx
	andl	$7, %ecx
	addl	$3, %ecx
	cmpb	%dl, %cl
	setge	%dl
	andl	%esi, %edx
	testb	%dl, %dl
	je	.L97
	movq	%rax, %rdi
	call	__asan_report_load4@PLT
.L97:
	movq	-336(%rbp), %rax
	movl	(%rax), %eax
	cltq
	.loc 1 204 32
	leaq	0(,%rax,4), %rdx
	movq	-328(%rbp), %rax
	leaq	(%rdx,%rax), %rcx
	.loc 1 204 41
	leaq	-224(%rbx), %rax
	addq	$4, %rax
	movq	%rax, %rdx
	shrq	$3, %rdx
	addq	$2147450880, %rdx
	movzbl	(%rdx), %edx
	testb	%dl, %dl
	setne	%dil
	movq	%rax, %rsi
	andl	$7, %esi
	addl	$3, %esi
	cmpb	%dl, %sil
	setge	%dl
	andl	%edi, %edx
	testb	%dl, %dl
	je	.L98
	movq	%rax, %rdi
	call	__asan_report_load4@PLT
.L98:
	movl	-220(%rbx), %esi
	.loc 1 204 34
	movq	%rcx, %rax
	movq	%rax, %rdx
	shrq	$3, %rdx
	addq	$2147450880, %rdx
	movzbl	(%rdx), %edx
	testb	%dl, %dl
	setne	%r8b
	movq	%rax, %rdi
	andl	$7, %edi
	addl	$3, %edi
	cmpb	%dl, %dil
	setge	%dl
	andl	%r8d, %edx
	testb	%dl, %dl
	je	.L99
	movq	%rax, %rdi
	call	__asan_report_store4@PLT
.L99:
	movl	%esi, (%rcx)
	.loc 1 205 47
	movq	-328(%rbp), %rsi
	.loc 1 205 64
	movq	-336(%rbp), %rax
	movl	(%rax), %eax
	.loc 1 205 68
	leal	1(%rax), %ecx
	movq	-336(%rbp), %rdx
	movl	%ecx, (%rdx)
	cltq
	.loc 1 205 70
	salq	$2, %rax
	leaq	(%rsi,%rax), %rcx
	.loc 1 205 20
	movq	%rcx, %rax
	movq	%rax, %rdx
	shrq	$3, %rdx
	addq	$2147450880, %rdx
	movzbl	(%rdx), %edx
	testb	%dl, %dl
	setne	%dil
	movq	%rax, %rsi
	andl	$7, %esi
	addl	$3, %esi
	cmpb	%dl, %sil
	setge	%dl
	andl	%edi, %edx
	testb	%dl, %dl
	je	.L100
	movq	%rax, %rdi
	call	__asan_report_load4@PLT
.L100:
	movl	(%rcx), %edx
	movq	-344(%rbp), %rax
	movl	$10, %ecx
	leaq	.LC28(%rip), %rsi
	movq	%rax, %rdi
	movl	$0, %eax
	call	fprintf@PLT
	.loc 1 207 13
	jmp	.L87
.L90:
	.loc 1 212 29
	movq	-336(%rbp), %rax
	movq	%rax, %rdx
	shrq	$3, %rdx
	addq	$2147450880, %rdx
	movzbl	(%rdx), %edx
	testb	%dl, %dl
	setne	%sil
	movq	%rax, %rcx
	andl	$7, %ecx
	addl	$3, %ecx
	cmpb	%dl, %cl
	setge	%dl
	andl	%esi, %edx
	testb	%dl, %dl
	je	.L101
	movq	%rax, %rdi
	call	__asan_report_load4@PLT
.L101:
	movq	-336(%rbp), %rax
	movl	(%rax), %eax
	.loc 1 212 36
	cltq
	salq	$2, %rax
	leaq	-4(%rax), %rdx
	movq	-328(%rbp), %rax
	leaq	(%rdx,%rax), %rcx
	movq	%rcx, %rax
	movq	%rax, %rdx
	shrq	$3, %rdx
	addq	$2147450880, %rdx
	movzbl	(%rdx), %edx
	testb	%dl, %dl
	setne	%dil
	movq	%rax, %rsi
	andl	$7, %esi
	addl	$3, %esi
	cmpb	%dl, %sil
	setge	%dl
	andl	%edi, %edx
	testb	%dl, %dl
	je	.L102
	movq	%rax, %rdi
	call	__asan_report_load4@PLT
.L102:
	movl	(%rcx), %esi
	.loc 1 212 44
	leaq	-224(%rbx), %rax
	movq	%rax, %rdx
	movq	%rdx, %rax
	shrq	$3, %rax
	addq	$2147450880, %rax
	movzbl	(%rax), %eax
	testb	%al, %al
	setne	%cl
	cmpb	$3, %al
	setle	%al
	andl	%ecx, %eax
	testb	%al, %al
	je	.L103
	movq	%rdx, %rdi
	call	__asan_report_load4@PLT
.L103:
	movl	-224(%rbx), %edx
	.loc 1 212 29
	movq	-336(%rbp), %rax
	movl	(%rax), %eax
	.loc 1 212 36
	cltq
	salq	$2, %rax
	leaq	-4(%rax), %rcx
	movq	-328(%rbp), %rax
	addq	%rax, %rcx
	orl	%edx, %esi
	movq	%rcx, %rax
	movq	%rax, %rdx
	shrq	$3, %rdx
	addq	$2147450880, %rdx
	movzbl	(%rdx), %edx
	testb	%dl, %dl
	setne	%r8b
	movq	%rax, %rdi
	andl	$7, %edi
	addl	$3, %edi
	cmpb	%dl, %dil
	setge	%dl
	andl	%r8d, %edx
	testb	%dl, %dl
	je	.L104
	movq	%rax, %rdi
	call	__asan_report_store4@PLT
.L104:
	movl	%esi, (%rcx)
	.loc 1 213 18
	movq	-344(%rbp), %rax
	movl	$1, %edx
	movq	$-2, %rsi
	movq	%rax, %rdi
	call	fseek@PLT
	.loc 1 214 62
	movq	-336(%rbp), %rax
	movq	%rax, %rdx
	shrq	$3, %rdx
	addq	$2147450880, %rdx
	movzbl	(%rdx), %edx
	testb	%dl, %dl
	setne	%sil
	movq	%rax, %rcx
	andl	$7, %ecx
	addl	$3, %ecx
	cmpb	%dl, %cl
	setge	%dl
	andl	%esi, %edx
	testb	%dl, %dl
	je	.L105
	movq	%rax, %rdi
	call	__asan_report_load4@PLT
.L105:
	movq	-336(%rbp), %rax
	movl	(%rax), %eax
	cltq
	.loc 1 214 67
	salq	$2, %rax
	leaq	-4(%rax), %rdx
	movq	-328(%rbp), %rax
	leaq	(%rdx,%rax), %rcx
	.loc 1 214 20
	movq	%rcx, %rax
	movq	%rax, %rdx
	shrq	$3, %rdx
	addq	$2147450880, %rdx
	movzbl	(%rdx), %edx
	testb	%dl, %dl
	setne	%dil
	movq	%rax, %rsi
	andl	$7, %esi
	addl	$3, %esi
	cmpb	%dl, %sil
	setge	%dl
	andl	%edi, %edx
	testb	%dl, %dl
	je	.L106
	movq	%rax, %rdi
	call	__asan_report_load4@PLT
.L106:
	movl	(%rcx), %edx
	movq	-344(%rbp), %rax
	movl	$32, %ecx
	leaq	.LC27(%rip), %rsi
	movq	%rax, %rdi
	movl	$0, %eax
	call	fprintf@PLT
	.loc 1 216 29
	movq	-336(%rbp), %rax
	movq	%rax, %rdx
	shrq	$3, %rdx
	addq	$2147450880, %rdx
	movzbl	(%rdx), %edx
	testb	%dl, %dl
	setne	%sil
	movq	%rax, %rcx
	andl	$7, %ecx
	addl	$3, %ecx
	cmpb	%dl, %cl
	setge	%dl
	andl	%esi, %edx
	testb	%dl, %dl
	je	.L107
	movq	%rax, %rdi
	call	__asan_report_load4@PLT
.L107:
	movq	-336(%rbp), %rax
	movl	(%rax), %eax
	cltq
	.loc 1 216 32
	leaq	0(,%rax,4), %rdx
	movq	-328(%rbp), %rax
	leaq	(%rdx,%rax), %rcx
	.loc 1 216 41
	leaq	-224(%rbx), %rax
	addq	$4, %rax
	movq	%rax, %rdx
	shrq	$3, %rdx
	addq	$2147450880, %rdx
	movzbl	(%rdx), %edx
	testb	%dl, %dl
	setne	%dil
	movq	%rax, %rsi
	andl	$7, %esi
	addl	$3, %esi
	cmpb	%dl, %sil
	setge	%dl
	andl	%edi, %edx
	testb	%dl, %dl
	je	.L108
	movq	%rax, %rdi
	call	__asan_report_load4@PLT
.L108:
	movl	-220(%rbx), %esi
	.loc 1 216 34
	movq	%rcx, %rax
	movq	%rax, %rdx
	shrq	$3, %rdx
	addq	$2147450880, %rdx
	movzbl	(%rdx), %edx
	testb	%dl, %dl
	setne	%r8b
	movq	%rax, %rdi
	andl	$7, %edi
	addl	$3, %edi
	cmpb	%dl, %dil
	setge	%dl
	andl	%r8d, %edx
	testb	%dl, %dl
	je	.L109
	movq	%rax, %rdi
	call	__asan_report_store4@PLT
.L109:
	movl	%esi, (%rcx)
	.loc 1 217 47
	movq	-328(%rbp), %rsi
	.loc 1 217 64
	movq	-336(%rbp), %rax
	movl	(%rax), %eax
	.loc 1 217 68
	leal	1(%rax), %ecx
	movq	-336(%rbp), %rdx
	movl	%ecx, (%rdx)
	cltq
	.loc 1 217 70
	salq	$2, %rax
	leaq	(%rsi,%rax), %rcx
	.loc 1 217 20
	movq	%rcx, %rax
	movq	%rax, %rdx
	shrq	$3, %rdx
	addq	$2147450880, %rdx
	movzbl	(%rdx), %edx
	testb	%dl, %dl
	setne	%dil
	movq	%rax, %rsi
	andl	$7, %esi
	addl	$3, %esi
	cmpb	%dl, %sil
	setge	%dl
	andl	%edi, %edx
	testb	%dl, %dl
	je	.L110
	movq	%rax, %rdi
	call	__asan_report_load4@PLT
.L110:
	movl	(%rcx), %edx
	movq	-344(%rbp), %rax
	movl	$10, %ecx
	leaq	.LC28(%rip), %rsi
	movq	%rax, %rdi
	movl	$0, %eax
	call	fprintf@PLT
	.loc 1 219 13
	jmp	.L87
.L88:
.LBB5:
	.loc 1 232 17
	movl	$0, -292(%rbp)
	.loc 1 233 18
	leaq	-192(%rbx), %rax
	movq	%rax, %rdx
	shrq	$3, %rdx
	addq	$2147450880, %rdx
	movzbl	(%rdx), %edx
	testb	%dl, %dl
	setne	%cl
	testb	%dl, %dl
	setle	%dl
	movl	%ecx, %esi
	andl	%edx, %esi
	movl	$128, %edx
	subq	$1, %rdx
	leaq	(%rax,%rdx), %rcx
	movq	%rcx, %rdx
	shrq	$3, %rdx
	addq	$2147450880, %rdx
	movzbl	(%rdx), %edx
	testb	%dl, %dl
	setne	%dil
	andl	$7, %ecx
	cmpb	%dl, %cl
	setge	%dl
	andl	%edi, %edx
	orl	%esi, %edx
	testb	%dl, %dl
	je	.L111
	movl	$128, %esi
	movq	%rax, %rdi
	call	__asan_report_store_n@PLT
.L111:
	movq	$0, -192(%rbx)
	movq	$0, -184(%rbx)
	movq	$0, -176(%rbx)
	movq	$0, -168(%rbx)
	movq	$0, -160(%rbx)
	movq	$0, -152(%rbx)
	movq	$0, -144(%rbx)
	movq	$0, -136(%rbx)
	movq	$0, -128(%rbx)
	movq	$0, -120(%rbx)
	movq	$0, -112(%rbx)
	movq	$0, -104(%rbx)
	movq	$0, -96(%rbx)
	movq	$0, -88(%rbx)
	movq	$0, -80(%rbx)
	movq	$0, -72(%rbx)
	.loc 1 235 19
	leaq	-192(%rbx), %rdx
	movq	-320(%rbp), %rax
	leaq	.LC29(%rip), %rcx
	movq	%rcx, %rsi
	movq	%rax, %rdi
	movl	$0, %eax
	call	__isoc99_sscanf@PLT
	.loc 1 236 37
	movq	-312(%rbp), %rax
	leaq	-192(%rbx), %rdx
	movq	%rax, %rsi
	movq	%rdx, %rdi
	call	_Z12find_addressPcP8ass_info
	movl	%eax, -292(%rbp)
	.loc 1 241 50
	movl	-292(%rbp), %eax
	movslq	%eax, %rdx
	movq	%rdx, %rax
	salq	$5, %rax
	addq	%rdx, %rax
	salq	$2, %rax
	leaq	144(%rax), %rdx
	movq	-312(%rbp), %rax
	addq	%rdx, %rax
	addq	$8, %rax
	movq	%rax, %rdx
	shrq	$3, %rdx
	addq	$2147450880, %rdx
	movzbl	(%rdx), %edx
	testb	%dl, %dl
	setne	%sil
	movq	%rax, %rcx
	andl	$7, %ecx
	addl	$3, %ecx
	cmpb	%dl, %cl
	setge	%dl
	andl	%esi, %edx
	testb	%dl, %dl
	je	.L112
	movq	%rax, %rdi
	call	__asan_report_load4@PLT
.L112:
	movq	-312(%rbp), %rcx
	movl	-292(%rbp), %eax
	movslq	%eax, %rdx
	movq	%rdx, %rax
	salq	$5, %rax
	addq	%rdx, %rax
	salq	$2, %rax
	addq	%rcx, %rax
	addq	$152, %rax
	movl	(%rax), %eax
	.loc 1 241 13
	cmpl	$-1, %eax
	je	.L118
	.loc 1 242 31
	movq	-312(%rbp), %rax
	addq	$152, %rax
	movq	%rax, %rdx
	movq	%rdx, %rax
	shrq	$3, %rax
	addq	$2147450880, %rax
	movzbl	(%rax), %eax
	testb	%al, %al
	setne	%cl
	cmpb	$3, %al
	setle	%al
	andl	%ecx, %eax
	testb	%al, %al
	je	.L114
	movq	%rdx, %rdi
	call	__asan_report_load4@PLT
.L114:
	movq	-312(%rbp), %rax
	movl	152(%rax), %edx
	movq	-312(%rbp), %rax
	addq	$16, %rax
	movq	%rax, %rcx
	shrq	$3, %rcx
	addq	$2147450880, %rcx
	movzbl	(%rcx), %ecx
	testb	%cl, %cl
	je	.L115
	movq	%rax, %rdi
	call	__asan_report_load8@PLT
.L115:
	movq	-312(%rbp), %rax
	movq	16(%rax), %rsi
	movq	-336(%rbp), %rcx
	movq	-344(%rbp), %rax
	movl	$10, %r8d
	movq	%rax, %rdi
	call	_Z14write_to_filesP8_IO_FILEPiiS1_c
.L118:
	.loc 1 243 13
	nop
.L87:
.LBE5:
.LBE4:
.LBE3:
	.loc 1 246 12
	movl	$0, %eax
	movl	%eax, %edx
	.loc 1 192 1
	cmpq	%r12, %r14
	je	.L81
	movq	$1172321806, (%r12)
	movabsq	$-723401728380766731, %rbx
	movabsq	$-723401728380766731, %rsi
	movq	%rbx, 2147450880(%r13)
	movq	%rsi, 2147450888(%r13)
	movabsq	$-723401728380766731, %rax
	movq	%rax, 2147450896(%r13)
	movl	$-168430091, 2147450904(%r13)
	movq	248(%r12), %rax
	movb	$0, (%rax)
	jmp	.L82
.L81:
	movq	$0, 2147450880(%r13)
	movl	$0, 2147450904(%r13)
.L82:
	.loc 1 247 1
	movq	-40(%rbp), %rax
	subq	%fs:40, %rax
	je	.L117
	call	__stack_chk_fail@PLT
.L117:
	movl	%edx, %eax
	addq	$320, %rsp
	popq	%rbx
	popq	%r12
	popq	%r13
	popq	%r14
	popq	%rbp
	.cfi_def_cfa 7, 8
	ret
	.cfi_endproc
.LFE958:
	.size	_Z8get_argsP8ass_infoPcPiS2_P8_IO_FILE, .-_Z8get_argsP8ass_infoPcPiS2_P8_IO_FILE
	.section	.rodata
.LC30:
	.string	"1 48 144 4 data"
	.align 32
.LC31:
	.string	"size_t know_size_for_buff(FILE*, const char*)"
	.zero	50
	.align 32
.LC32:
	.string	"src/ass_funcs.cpp"
	.zero	46
	.align 32
.LC33:
	.string	"text != NULL"
	.zero	51
	.align 32
.LC34:
	.string	"name_of_file != NULL"
	.zero	43
	.align 32
.LC35:
	.string	"Trying to find size of dir"
	.zero	37
	.text
	.globl	_Z18know_size_for_buffP8_IO_FILEPKc
	.type	_Z18know_size_for_buffP8_IO_FILEPKc, @function
_Z18know_size_for_buffP8_IO_FILEPKc:
.LASANPC959:
.LFB959:
	.loc 1 250 1
	.cfi_startproc
	endbr64
	pushq	%rbp
	.cfi_def_cfa_offset 16
	.cfi_offset 6, -16
	movq	%rsp, %rbp
	.cfi_def_cfa_register 6
	pushq	%r14
	pushq	%r13
	pushq	%r12
	pushq	%rbx
	subq	$304, %rsp
	.cfi_offset 14, -24
	.cfi_offset 13, -32
	.cfi_offset 12, -40
	.cfi_offset 3, -48
	movq	%rdi, -328(%rbp)
	movq	%rsi, -336(%rbp)
	leaq	-320(%rbp), %rbx
	movq	%rbx, %r14
	cmpl	$0, __asan_option_detect_stack_use_after_return(%rip)
	je	.L119
	movl	$256, %edi
	call	__asan_stack_malloc_2@PLT
	testq	%rax, %rax
	je	.L119
	movq	%rax, %rbx
.L119:
	leaq	288(%rbx), %rax
	movq	%rax, %r13
	movq	$1102416563, (%rbx)
	leaq	.LC30(%rip), %rax
	movq	%rax, 8(%rbx)
	leaq	.LASANPC959(%rip), %rax
	movq	%rax, 16(%rbx)
	movq	%rbx, %r12
	shrq	$3, %r12
	movl	$-235802127, 2147450880(%r12)
	movl	$61937, 2147450884(%r12)
	movl	$-202116109, 2147450904(%r12)
	movl	$-202116109, 2147450908(%r12)
	.loc 1 250 1
	movq	%fs:40, %rax
	movq	%rax, -40(%rbp)
	xorl	%eax, %eax
	.loc 1 251 12
	cmpq	$0, -328(%rbp)
	jne	.L123
	.loc 1 251 39 discriminator 1
	call	__asan_handle_no_return@PLT
	leaq	.LC31(%rip), %rax
	movq	%rax, %rcx
	movl	$251, %edx
	leaq	.LC32(%rip), %rax
	movq	%rax, %rsi
	leaq	.LC33(%rip), %rax
	movq	%rax, %rdi
	call	__assert_fail@PLT
.L123:
	.loc 1 252 12
	cmpq	$0, -336(%rbp)
	jne	.L124
	.loc 1 252 39 discriminator 1
	call	__asan_handle_no_return@PLT
	leaq	.LC31(%rip), %rax
	movq	%rax, %rcx
	movl	$252, %edx
	leaq	.LC32(%rip), %rax
	movq	%rax, %rsi
	leaq	.LC34(%rip), %rax
	movq	%rax, %rdi
	call	__assert_fail@PLT
.L124:
	.loc 1 254 17
	leaq	-240(%r13), %rax
	movq	%rax, %rdx
	shrq	$3, %rdx
	addq	$2147450880, %rdx
	movzbl	(%rdx), %edx
	testb	%dl, %dl
	setne	%cl
	testb	%dl, %dl
	setle	%dl
	movl	%ecx, %esi
	andl	%edx, %esi
	movl	$144, %edx
	subq	$1, %rdx
	leaq	(%rax,%rdx), %rcx
	movq	%rcx, %rdx
	shrq	$3, %rdx
	addq	$2147450880, %rdx
	movzbl	(%rdx), %edx
	testb	%dl, %dl
	setne	%dil
	andl	$7, %ecx
	cmpb	%dl, %cl
	setge	%dl
	andl	%edi, %edx
	orl	%esi, %edx
	testb	%dl, %dl
	je	.L125
	movl	$144, %esi
	movq	%rax, %rdi
	call	__asan_report_store_n@PLT
.L125:
	leaq	-240(%r13), %rdx
	movl	$0, %eax
	movl	$18, %ecx
	movq	%rdx, %rdi
	rep stosq
	.loc 1 255 9
	leaq	-240(%r13), %rdx
	movq	-336(%rbp), %rax
	movq	%rdx, %rsi
	movq	%rax, %rdi
	call	stat@PLT
	.loc 1 257 16
	leaq	-240(%r13), %rax
	addq	$24, %rax
	movq	%rax, %rdx
	movq	%rdx, %rax
	shrq	$3, %rax
	addq	$2147450880, %rax
	movzbl	(%rax), %eax
	testb	%al, %al
	setne	%cl
	cmpb	$3, %al
	setle	%al
	andl	%ecx, %eax
	testb	%al, %al
	je	.L126
	movq	%rdx, %rdi
	call	__asan_report_load4@PLT
.L126:
	movl	-216(%r13), %eax
	.loc 1 257 24
	andl	$61440, %eax
	.loc 1 257 5
	cmpl	$16384, %eax
	jne	.L127
	.loc 1 259 19
	leaq	.LC35(%rip), %rax
	movq	%rax, %rdi
	movl	$0, %eax
	call	printf@PLT
	.loc 1 260 18
	call	__asan_handle_no_return@PLT
	call	abort@PLT
.L127:
	.loc 1 263 17
	leaq	-240(%r13), %rax
	addq	$48, %rax
	movq	%rax, %rdx
	shrq	$3, %rdx
	addq	$2147450880, %rdx
	movzbl	(%rdx), %edx
	testb	%dl, %dl
	je	.L128
	movq	%rax, %rdi
	call	__asan_report_load8@PLT
.L128:
	movq	-192(%r13), %rax
	movq	%rax, %rdx
	.loc 1 250 1
	cmpq	%rbx, %r14
	je	.L120
	movq	$1172321806, (%rbx)
	movabsq	$-723401728380766731, %rsi
	movabsq	$-723401728380766731, %rdi
	movq	%rsi, 2147450880(%r12)
	movq	%rdi, 2147450888(%r12)
	movq	%rsi, 2147450896(%r12)
	movq	%rdi, 2147450904(%r12)
	movq	248(%rbx), %rax
	movb	$0, (%rax)
	jmp	.L121
.L120:
	movq	$0, 2147450880(%r12)
	movq	$0, 2147450904(%r12)
.L121:
	.loc 1 264 1
	movq	-40(%rbp), %rax
	subq	%fs:40, %rax
	je	.L130
	call	__stack_chk_fail@PLT
.L130:
	movq	%rdx, %rax
	addq	$304, %rsp
	popq	%rbx
	popq	%r12
	popq	%r13
	popq	%r14
	popq	%rbp
	.cfi_def_cfa 7, 8
	ret
	.cfi_endproc
.LFE959:
	.size	_Z18know_size_for_buffP8_IO_FILEPKc, .-_Z18know_size_for_buffP8_IO_FILEPKc
	.section	.rodata
	.align 32
.LC36:
	.string	"void fill_info_of_codes(ass_info*, FILE*, const char*)"
	.zero	41
	.align 32
.LC37:
	.string	"info_of_codes != NULL"
	.zero	42
	.align 32
.LC38:
	.string	"file_ptr != NULL"
	.zero	47
	.align 32
.LC39:
	.string	"file_path != NULL"
	.zero	46
	.align 32
.LC40:
	.string	"info_of_codes->num_of_sym != 0"
	.zero	33
	.align 32
.LC41:
	.string	"info_of_codes->buffer != NULL"
	.zero	34
	.align 32
.LC42:
	.string	"test_fread !=0"
	.zero	49
	.align 32
.LC43:
	.string	"info_of_codes->arr_of_commands != NULL"
	.zero	57
	.text
	.globl	_Z18fill_info_of_codesP8ass_infoP8_IO_FILEPKc
	.type	_Z18fill_info_of_codesP8ass_infoP8_IO_FILEPKc, @function
_Z18fill_info_of_codesP8ass_infoP8_IO_FILEPKc:
.LASANPC960:
.LFB960:
	.loc 1 267 1
	.cfi_startproc
	endbr64
	pushq	%rbp
	.cfi_def_cfa_offset 16
	.cfi_offset 6, -16
	movq	%rsp, %rbp
	.cfi_def_cfa_register 6
	subq	$48, %rsp
	movq	%rdi, -24(%rbp)
	movq	%rsi, -32(%rbp)
	movq	%rdx, -40(%rbp)
	.loc 1 268 12
	cmpq	$0, -24(%rbp)
	jne	.L132
	.loc 1 268 39 discriminator 1
	call	__asan_handle_no_return@PLT
	leaq	.LC36(%rip), %rax
	movq	%rax, %rcx
	movl	$268, %edx
	leaq	.LC32(%rip), %rax
	movq	%rax, %rsi
	leaq	.LC37(%rip), %rax
	movq	%rax, %rdi
	call	__assert_fail@PLT
.L132:
	.loc 1 269 12
	cmpq	$0, -32(%rbp)
	jne	.L133
	.loc 1 269 39 discriminator 1
	call	__asan_handle_no_return@PLT
	leaq	.LC36(%rip), %rax
	movq	%rax, %rcx
	movl	$269, %edx
	leaq	.LC32(%rip), %rax
	movq	%rax, %rsi
	leaq	.LC38(%rip), %rax
	movq	%rax, %rdi
	call	__assert_fail@PLT
.L133:
	.loc 1 270 12
	cmpq	$0, -40(%rbp)
	jne	.L134
	.loc 1 270 39 discriminator 1
	call	__asan_handle_no_return@PLT
	leaq	.LC36(%rip), %rax
	movq	%rax, %rcx
	movl	$270, %edx
	leaq	.LC32(%rip), %rax
	movq	%rax, %rsi
	leaq	.LC39(%rip), %rax
	movq	%rax, %rdi
	call	__assert_fail@PLT
.L134:
	.loc 1 272 33
	movq	-24(%rbp), %rax
	addq	$13232, %rax
	movq	%rax, %rdx
	shrq	$3, %rdx
	addq	$2147450880, %rdx
	movzbl	(%rdx), %edx
	testb	%dl, %dl
	je	.L135
	movq	%rax, %rdi
	call	__asan_report_store8@PLT
.L135:
	movq	-24(%rbp), %rax
	movq	$0, 13232(%rax)
	.loc 1 274 51
	movq	-40(%rbp), %rdx
	movq	-32(%rbp), %rax
	movq	%rdx, %rsi
	movq	%rax, %rdi
	call	_Z18know_size_for_buffP8_IO_FILEPKc
	.loc 1 274 73
	leaq	1(%rax), %rcx
	.loc 1 274 31
	movq	-24(%rbp), %rax
	addq	$13240, %rax
	movq	%rax, %rdx
	shrq	$3, %rdx
	addq	$2147450880, %rdx
	movzbl	(%rdx), %edx
	testb	%dl, %dl
	je	.L136
	movq	%rax, %rdi
	call	__asan_report_store8@PLT
.L136:
	movq	-24(%rbp), %rax
	movq	%rcx, 13240(%rax)
	.loc 1 275 19
	movq	-24(%rbp), %rax
	movq	13240(%rax), %rax
	.loc 1 275 6
	testq	%rax, %rax
	jne	.L137
	.loc 1 275 33 discriminator 1
	call	__asan_handle_no_return@PLT
	leaq	.LC36(%rip), %rax
	movq	%rax, %rcx
	movl	$275, %edx
	leaq	.LC32(%rip), %rax
	movq	%rax, %rsi
	leaq	.LC40(%rip), %rax
	movq	%rax, %rdi
	call	__assert_fail@PLT
.L137:
	.loc 1 277 43
	movq	-24(%rbp), %rax
	addq	$13240, %rax
	movq	%rax, %rdx
	shrq	$3, %rdx
	addq	$2147450880, %rdx
	movzbl	(%rdx), %edx
	testb	%dl, %dl
	je	.L138
	movq	%rax, %rdi
	call	__asan_report_load8@PLT
.L138:
	movq	-24(%rbp), %rax
	movq	13240(%rax), %rax
	movl	$1, %esi
	movq	%rax, %rdi
	call	calloc@PLT
	movq	%rax, %rcx
	.loc 1 277 27
	movq	-24(%rbp), %rax
	addq	$8, %rax
	movq	%rax, %rdx
	shrq	$3, %rdx
	addq	$2147450880, %rdx
	movzbl	(%rdx), %edx
	testb	%dl, %dl
	je	.L139
	movq	%rax, %rdi
	call	__asan_report_store8@PLT
.L139:
	movq	-24(%rbp), %rax
	movq	%rcx, 8(%rax)
	.loc 1 278 19
	movq	-24(%rbp), %rax
	movq	8(%rax), %rax
	.loc 1 278 12
	testq	%rax, %rax
	jne	.L140
	.loc 1 278 39 discriminator 1
	call	__asan_handle_no_return@PLT
	leaq	.LC36(%rip), %rax
	movq	%rax, %rcx
	movl	$278, %edx
	leaq	.LC32(%rip), %rax
	movq	%rax, %rsi
	leaq	.LC41(%rip), %rax
	movq	%rax, %rdi
	call	__assert_fail@PLT
.L140:
	.loc 1 280 9
	movl	$0, -4(%rbp)
	.loc 1 281 62
	movq	-24(%rbp), %rax
	addq	$13240, %rax
	movq	%rax, %rdx
	shrq	$3, %rdx
	addq	$2147450880, %rdx
	movzbl	(%rdx), %edx
	testb	%dl, %dl
	je	.L141
	movq	%rax, %rdi
	call	__asan_report_load8@PLT
.L141:
	movq	-24(%rbp), %rax
	movq	13240(%rax), %rax
	.loc 1 281 23
	leaq	-1(%rax), %rsi
	.loc 1 281 39
	movq	-24(%rbp), %rax
	addq	$8, %rax
	movq	%rax, %rdx
	shrq	$3, %rdx
	addq	$2147450880, %rdx
	movzbl	(%rdx), %edx
	testb	%dl, %dl
	je	.L142
	movq	%rax, %rdi
	call	__asan_report_load8@PLT
.L142:
	movq	-24(%rbp), %rax
	movq	8(%rax), %rax
	.loc 1 281 23
	movq	-32(%rbp), %rdx
	movq	%rdx, %rcx
	movl	$4, %edx
	movq	%rax, %rdi
	call	fread@PLT
	.loc 1 281 16
	movl	%eax, -4(%rbp)
	.loc 1 282 20
	movq	-24(%rbp), %rax
	addq	$8, %rax
	movq	%rax, %rdx
	shrq	$3, %rdx
	addq	$2147450880, %rdx
	movzbl	(%rdx), %edx
	testb	%dl, %dl
	je	.L143
	movq	%rax, %rdi
	call	__asan_report_load8@PLT
.L143:
	movq	-24(%rbp), %rax
	movq	8(%rax), %rcx
	.loc 1 282 42
	movq	-24(%rbp), %rax
	addq	$13240, %rax
	movq	%rax, %rdx
	shrq	$3, %rdx
	addq	$2147450880, %rdx
	movzbl	(%rdx), %edx
	testb	%dl, %dl
	je	.L144
	movq	%rax, %rdi
	call	__asan_report_load8@PLT
.L144:
	movq	-24(%rbp), %rax
	movq	13240(%rax), %rax
	.loc 1 282 56
	subq	$1, %rax
	addq	%rax, %rcx
	.loc 1 282 58
	movq	%rcx, %rax
	movq	%rax, %rdx
	shrq	$3, %rdx
	addq	$2147450880, %rdx
	movzbl	(%rdx), %edx
	testb	%dl, %dl
	setne	%sil
	movq	%rax, %rdi
	andl	$7, %edi
	cmpb	%dl, %dil
	setge	%dl
	andl	%esi, %edx
	testb	%dl, %dl
	je	.L145
	movq	%rax, %rdi
	call	__asan_report_store1@PLT
.L145:
	movb	$0, (%rcx)
	.loc 1 283 6
	cmpl	$0, -4(%rbp)
	jne	.L146
	.loc 1 283 33 discriminator 1
	call	__asan_handle_no_return@PLT
	leaq	.LC36(%rip), %rax
	movq	%rax, %rcx
	movl	$283, %edx
	leaq	.LC32(%rip), %rax
	movq	%rax, %rsi
	leaq	.LC42(%rip), %rax
	movq	%rax, %rdi
	call	__assert_fail@PLT
.L146:
	.loc 1 285 56
	movq	-24(%rbp), %rax
	movq	%rax, %rdi
	call	_Z21make_ptr_arr_of_linesP8ass_info
	movslq	%eax, %rdx
	.loc 1 285 33
	movq	-24(%rbp), %rax
	addq	$13224, %rax
	movq	%rax, %rcx
	shrq	$3, %rcx
	addq	$2147450880, %rcx
	movzbl	(%rcx), %ecx
	testb	%cl, %cl
	je	.L147
	movq	%rax, %rdi
	call	__asan_report_store8@PLT
.L147:
	movq	-24(%rbp), %rax
	movq	%rdx, 13224(%rax)
	.loc 1 287 43
	movq	-24(%rbp), %rax
	addq	$24, %rax
	.loc 1 287 27
	movl	$100, %esi
	movq	%rax, %rdi
	call	_Z22fill_labels_bad_valuesP7Labels_i
	.loc 1 289 67
	movq	-24(%rbp), %rax
	addq	$13240, %rax
	movq	%rax, %rdx
	shrq	$3, %rdx
	addq	$2147450880, %rdx
	movzbl	(%rdx), %edx
	testb	%dl, %dl
	je	.L148
	movq	%rax, %rdi
	call	__asan_report_load8@PLT
.L148:
	movq	-24(%rbp), %rax
	movq	13240(%rax), %rax
	.loc 1 289 51
	addq	$20, %rax
	movl	$1, %esi
	movq	%rax, %rdi
	call	calloc@PLT
	movq	%rax, %rcx
	.loc 1 289 36
	movq	-24(%rbp), %rax
	addq	$16, %rax
	movq	%rax, %rdx
	shrq	$3, %rdx
	addq	$2147450880, %rdx
	movzbl	(%rdx), %edx
	testb	%dl, %dl
	je	.L149
	movq	%rax, %rdi
	call	__asan_report_store8@PLT
.L149:
	movq	-24(%rbp), %rax
	movq	%rcx, 16(%rax)
	.loc 1 290 19
	movq	-24(%rbp), %rax
	movq	16(%rax), %rax
	.loc 1 290 12
	testq	%rax, %rax
	jne	.L151
	.loc 1 290 39 discriminator 1
	call	__asan_handle_no_return@PLT
	leaq	.LC36(%rip), %rax
	movq	%rax, %rcx
	movl	$290, %edx
	leaq	.LC32(%rip), %rax
	movq	%rax, %rsi
	leaq	.LC43(%rip), %rax
	movq	%rax, %rdi
	call	__assert_fail@PLT
.L151:
	.loc 1 291 1
	nop
	leave
	.cfi_def_cfa 7, 8
	ret
	.cfi_endproc
.LFE960:
	.size	_Z18fill_info_of_codesP8ass_infoP8_IO_FILEPKc, .-_Z18fill_info_of_codesP8ass_infoP8_IO_FILEPKc
	.section	.rodata
	.align 32
.LC44:
	.string	"int make_ptr_arr_of_lines(ass_info*)"
	.zero	59
	.align 32
.LC45:
	.string	"info_of_codes->text != NULL"
	.zero	36
	.text
	.globl	_Z21make_ptr_arr_of_linesP8ass_info
	.type	_Z21make_ptr_arr_of_linesP8ass_info, @function
_Z21make_ptr_arr_of_linesP8ass_info:
.LASANPC961:
.LFB961:
	.loc 1 294 1
	.cfi_startproc
	endbr64
	pushq	%rbp
	.cfi_def_cfa_offset 16
	.cfi_offset 6, -16
	movq	%rsp, %rbp
	.cfi_def_cfa_register 6
	subq	$48, %rsp
	movq	%rdi, -40(%rbp)
	.loc 1 295 12
	movq	$1, -24(%rbp)
	.loc 1 296 12
	movq	$0, -16(%rbp)
	.loc 1 297 9
	movl	$1, -28(%rbp)
	.loc 1 299 5
	jmp	.L153
.L182:
	.loc 1 301 9
	cmpl	$1, -28(%rbp)
	jne	.L154
	.loc 1 301 50 discriminator 1
	movq	-40(%rbp), %rax
	addq	$8, %rax
	movq	%rax, %rdx
	shrq	$3, %rdx
	addq	$2147450880, %rdx
	movzbl	(%rdx), %edx
	testb	%dl, %dl
	je	.L155
	.loc 1 301 50 is_stmt 0
	movq	%rax, %rdi
	call	__asan_report_load8@PLT
.L155:
	.loc 1 301 50 discriminator 1
	movq	-40(%rbp), %rax
	movq	8(%rax), %rdx
	.loc 1 301 65 is_stmt 1 discriminator 1
	movq	-16(%rbp), %rax
	leaq	(%rdx,%rax), %rcx
	movq	%rcx, %rax
	movq	%rax, %rdx
	shrq	$3, %rdx
	addq	$2147450880, %rdx
	movzbl	(%rdx), %edx
	testb	%dl, %dl
	setne	%sil
	movq	%rax, %rdi
	andl	$7, %edi
	cmpb	%dl, %dil
	setge	%dl
	andl	%esi, %edx
	testb	%dl, %dl
	je	.L156
	.loc 1 301 65 is_stmt 0
	movq	%rax, %rdi
	call	__asan_report_load1@PLT
.L156:
	.loc 1 301 65 discriminator 1
	movzbl	(%rcx), %eax
	.loc 1 301 34 is_stmt 1 discriminator 1
	movsbl	%al, %eax
	movl	%eax, %edi
	call	isalpha@PLT
	.loc 1 301 23 discriminator 1
	testl	%eax, %eax
	jne	.L157
	.loc 1 301 95 discriminator 2
	movq	-40(%rbp), %rax
	movq	8(%rax), %rdx
	.loc 1 301 110 discriminator 2
	movq	-16(%rbp), %rax
	leaq	(%rdx,%rax), %rcx
	movq	%rcx, %rax
	movq	%rax, %rdx
	shrq	$3, %rdx
	addq	$2147450880, %rdx
	movzbl	(%rdx), %edx
	testb	%dl, %dl
	setne	%sil
	movq	%rax, %rdi
	andl	$7, %edi
	cmpb	%dl, %dil
	setge	%dl
	andl	%esi, %edx
	testb	%dl, %dl
	je	.L158
	.loc 1 301 110 is_stmt 0
	movq	%rax, %rdi
	call	__asan_report_load1@PLT
.L158:
	.loc 1 301 110 discriminator 2
	movzbl	(%rcx), %eax
	.loc 1 301 79 is_stmt 1 discriminator 2
	movsbl	%al, %eax
	subl	$48, %eax
	cmpl	$9, %eax
	setbe	%al
	movzbl	%al, %eax
	.loc 1 301 68 discriminator 2
	testl	%eax, %eax
	je	.L154
.L157:
	.loc 1 303 28
	movq	-40(%rbp), %rax
	addq	$13232, %rax
	movq	%rax, %rdx
	shrq	$3, %rdx
	addq	$2147450880, %rdx
	movzbl	(%rdx), %edx
	testb	%dl, %dl
	je	.L159
	movq	%rax, %rdi
	call	__asan_report_load8@PLT
.L159:
	movq	-40(%rbp), %rax
	movq	13232(%rax), %rax
	.loc 1 303 40
	leaq	1(%rax), %rdx
	movq	-40(%rbp), %rax
	movq	%rdx, 13232(%rax)
	.loc 1 304 18
	movl	$0, -28(%rbp)
	jmp	.L160
.L154:
	.loc 1 307 14
	cmpq	$0, -16(%rbp)
	je	.L161
	.loc 1 307 60 discriminator 1
	movq	-40(%rbp), %rax
	addq	$8, %rax
	movq	%rax, %rdx
	shrq	$3, %rdx
	addq	$2147450880, %rdx
	movzbl	(%rdx), %edx
	testb	%dl, %dl
	je	.L162
	.loc 1 307 60 is_stmt 0
	movq	%rax, %rdi
	call	__asan_report_load8@PLT
.L162:
	.loc 1 307 60 discriminator 1
	movq	-40(%rbp), %rax
	movq	8(%rax), %rdx
	.loc 1 307 75 is_stmt 1 discriminator 1
	movq	-16(%rbp), %rax
	leaq	(%rdx,%rax), %rcx
	movq	%rcx, %rax
	movq	%rax, %rdx
	shrq	$3, %rdx
	addq	$2147450880, %rdx
	movzbl	(%rdx), %edx
	testb	%dl, %dl
	setne	%sil
	movq	%rax, %rdi
	andl	$7, %edi
	cmpb	%dl, %dil
	setge	%dl
	andl	%esi, %edx
	testb	%dl, %dl
	je	.L163
	.loc 1 307 75 is_stmt 0
	movq	%rax, %rdi
	call	__asan_report_load1@PLT
.L163:
	.loc 1 307 75 discriminator 1
	movzbl	(%rcx), %eax
	.loc 1 307 44 is_stmt 1 discriminator 1
	movsbl	%al, %eax
	subl	$48, %eax
	cmpl	$9, %eax
	setbe	%al
	movzbl	%al, %eax
	.loc 1 307 32 discriminator 1
	testl	%eax, %eax
	je	.L161
	.loc 1 307 97 discriminator 2
	movq	-40(%rbp), %rax
	movq	8(%rax), %rdx
	.loc 1 307 112 discriminator 2
	movq	-16(%rbp), %rax
	leaq	(%rdx,%rax), %rcx
	movq	%rcx, %rax
	movq	%rax, %rdx
	shrq	$3, %rdx
	addq	$2147450880, %rdx
	movzbl	(%rdx), %edx
	testb	%dl, %dl
	setne	%sil
	movq	%rax, %rdi
	andl	$7, %edi
	cmpb	%dl, %dil
	setge	%dl
	andl	%esi, %edx
	testb	%dl, %dl
	je	.L164
	.loc 1 307 112 is_stmt 0
	movq	%rax, %rdi
	call	__asan_report_load1@PLT
.L164:
	.loc 1 307 112 discriminator 2
	movzbl	(%rcx), %eax
	.loc 1 307 79 is_stmt 1 discriminator 2
	cmpb	$58, %al
	jne	.L161
	.loc 1 309 28
	movq	-40(%rbp), %rax
	addq	$13232, %rax
	movq	%rax, %rdx
	shrq	$3, %rdx
	addq	$2147450880, %rdx
	movzbl	(%rdx), %edx
	testb	%dl, %dl
	je	.L165
	movq	%rax, %rdi
	call	__asan_report_load8@PLT
.L165:
	movq	-40(%rbp), %rax
	movq	13232(%rax), %rax
	.loc 1 309 40
	leaq	-1(%rax), %rdx
	movq	-40(%rbp), %rax
	movq	%rdx, 13232(%rax)
	jmp	.L160
.L161:
	.loc 1 312 43
	movq	-40(%rbp), %rax
	addq	$8, %rax
	movq	%rax, %rdx
	shrq	$3, %rdx
	addq	$2147450880, %rdx
	movzbl	(%rdx), %edx
	testb	%dl, %dl
	je	.L166
	movq	%rax, %rdi
	call	__asan_report_load8@PLT
.L166:
	movq	-40(%rbp), %rax
	movq	8(%rax), %rdx
	.loc 1 312 58
	movq	-16(%rbp), %rax
	leaq	(%rdx,%rax), %rcx
	movq	%rcx, %rax
	movq	%rax, %rdx
	shrq	$3, %rdx
	addq	$2147450880, %rdx
	movzbl	(%rdx), %edx
	testb	%dl, %dl
	setne	%sil
	movq	%rax, %rdi
	andl	$7, %edi
	cmpb	%dl, %dil
	setge	%dl
	andl	%esi, %edx
	testb	%dl, %dl
	je	.L167
	movq	%rax, %rdi
	call	__asan_report_load1@PLT
.L167:
	movzbl	(%rcx), %eax
	.loc 1 312 27
	movsbl	%al, %eax
	movl	%eax, %edi
	call	isalpha@PLT
	.loc 1 312 14
	testl	%eax, %eax
	jne	.L160
	.loc 1 312 88 discriminator 1
	movq	-40(%rbp), %rax
	movq	8(%rax), %rdx
	.loc 1 312 103 discriminator 1
	movq	-16(%rbp), %rax
	leaq	(%rdx,%rax), %rcx
	movq	%rcx, %rax
	movq	%rax, %rdx
	shrq	$3, %rdx
	addq	$2147450880, %rdx
	movzbl	(%rdx), %edx
	testb	%dl, %dl
	setne	%sil
	movq	%rax, %rdi
	andl	$7, %edi
	cmpb	%dl, %dil
	setge	%dl
	andl	%esi, %edx
	testb	%dl, %dl
	je	.L168
	.loc 1 312 103 is_stmt 0
	movq	%rax, %rdi
	call	__asan_report_load1@PLT
.L168:
	.loc 1 312 103 discriminator 1
	movzbl	(%rcx), %eax
	.loc 1 312 72 is_stmt 1 discriminator 1
	movsbl	%al, %eax
	subl	$48, %eax
	.loc 1 312 18 discriminator 1
	cmpl	$9, %eax
	jbe	.L160
	.loc 1 313 18
	movl	$1, -28(%rbp)
.L160:
	.loc 1 315 29
	movq	-40(%rbp), %rax
	addq	$8, %rax
	movq	%rax, %rdx
	shrq	$3, %rdx
	addq	$2147450880, %rdx
	movzbl	(%rdx), %edx
	testb	%dl, %dl
	je	.L169
	movq	%rax, %rdi
	call	__asan_report_load8@PLT
.L169:
	movq	-40(%rbp), %rax
	movq	8(%rax), %rdx
	.loc 1 315 44
	movq	-16(%rbp), %rax
	leaq	(%rdx,%rax), %rcx
	movq	%rcx, %rax
	movq	%rax, %rdx
	shrq	$3, %rdx
	addq	$2147450880, %rdx
	movzbl	(%rdx), %edx
	testb	%dl, %dl
	setne	%sil
	movq	%rax, %rdi
	andl	$7, %edi
	cmpb	%dl, %dil
	setge	%dl
	andl	%esi, %edx
	testb	%dl, %dl
	je	.L170
	movq	%rax, %rdi
	call	__asan_report_load1@PLT
.L170:
	movzbl	(%rcx), %eax
	.loc 1 315 9
	cmpb	$10, %al
	jne	.L171
	.loc 1 317 20
	addq	$1, -24(%rbp)
	.loc 1 319 28
	movq	-40(%rbp), %rax
	movq	8(%rax), %rdx
	.loc 1 319 43
	movq	-16(%rbp), %rax
	leaq	(%rdx,%rax), %rcx
	.loc 1 319 45
	movq	%rcx, %rax
	movq	%rax, %rdx
	shrq	$3, %rdx
	addq	$2147450880, %rdx
	movzbl	(%rdx), %edx
	testb	%dl, %dl
	setne	%sil
	movq	%rax, %rdi
	andl	$7, %edi
	cmpb	%dl, %dil
	setge	%dl
	andl	%esi, %edx
	testb	%dl, %dl
	je	.L172
	movq	%rax, %rdi
	call	__asan_report_store1@PLT
.L172:
	movb	$0, (%rcx)
	jmp	.L173
.L171:
	.loc 1 322 33
	movq	-40(%rbp), %rax
	addq	$8, %rax
	movq	%rax, %rdx
	shrq	$3, %rdx
	addq	$2147450880, %rdx
	movzbl	(%rdx), %edx
	testb	%dl, %dl
	je	.L174
	movq	%rax, %rdi
	call	__asan_report_load8@PLT
.L174:
	movq	-40(%rbp), %rax
	movq	8(%rax), %rdx
	.loc 1 322 48
	movq	-16(%rbp), %rax
	leaq	(%rdx,%rax), %rcx
	movq	%rcx, %rax
	movq	%rax, %rdx
	shrq	$3, %rdx
	addq	$2147450880, %rdx
	movzbl	(%rdx), %edx
	testb	%dl, %dl
	setne	%sil
	movq	%rax, %rdi
	andl	$7, %edi
	cmpb	%dl, %dil
	setge	%dl
	andl	%esi, %edx
	testb	%dl, %dl
	je	.L175
	movq	%rax, %rdi
	call	__asan_report_load1@PLT
.L175:
	movzbl	(%rcx), %eax
	.loc 1 322 14
	cmpb	$35, %al
	jne	.L173
	.loc 1 322 75 discriminator 1
	movq	-40(%rbp), %rax
	movq	8(%rax), %rdx
	.loc 1 322 92 discriminator 1
	movq	-16(%rbp), %rax
	addq	$1, %rax
	leaq	(%rdx,%rax), %rcx
	movq	%rcx, %rax
	movq	%rax, %rdx
	shrq	$3, %rdx
	addq	$2147450880, %rdx
	movzbl	(%rdx), %edx
	testb	%dl, %dl
	setne	%sil
	movq	%rax, %rdi
	andl	$7, %edi
	cmpb	%dl, %dil
	setge	%dl
	andl	%esi, %edx
	testb	%dl, %dl
	je	.L176
	.loc 1 322 92 is_stmt 0
	movq	%rax, %rdi
	call	__asan_report_load1@PLT
.L176:
	.loc 1 322 92 discriminator 1
	movzbl	(%rcx), %eax
	.loc 1 322 57 is_stmt 1 discriminator 1
	cmpb	$35, %al
	jne	.L173
	.loc 1 324 28
	movq	-40(%rbp), %rax
	movq	8(%rax), %rdx
	.loc 1 324 43
	movq	-16(%rbp), %rax
	leaq	(%rdx,%rax), %rcx
	.loc 1 324 45
	movq	%rcx, %rax
	movq	%rax, %rdx
	shrq	$3, %rdx
	addq	$2147450880, %rdx
	movzbl	(%rdx), %edx
	testb	%dl, %dl
	setne	%sil
	movq	%rax, %rdi
	andl	$7, %edi
	cmpb	%dl, %dil
	setge	%dl
	andl	%esi, %edx
	testb	%dl, %dl
	je	.L177
	movq	%rax, %rdi
	call	__asan_report_store1@PLT
.L177:
	movb	$0, (%rcx)
	.loc 1 326 13
	nop
.L180:
	.loc 1 326 35 discriminator 1
	movq	-40(%rbp), %rax
	addq	$8, %rax
	movq	%rax, %rdx
	shrq	$3, %rdx
	addq	$2147450880, %rdx
	movzbl	(%rdx), %edx
	testb	%dl, %dl
	je	.L178
	.loc 1 326 35 is_stmt 0
	movq	%rax, %rdi
	call	__asan_report_load8@PLT
.L178:
	.loc 1 326 35 discriminator 1
	movq	-40(%rbp), %rax
	movq	8(%rax), %rcx
	.loc 1 326 50 is_stmt 1 discriminator 1
	movq	-16(%rbp), %rax
	leaq	1(%rax), %rdx
	movq	%rdx, -16(%rbp)
	.loc 1 326 52 discriminator 1
	addq	%rax, %rcx
	movq	%rcx, %rax
	movq	%rax, %rdx
	shrq	$3, %rdx
	addq	$2147450880, %rdx
	movzbl	(%rdx), %edx
	testb	%dl, %dl
	setne	%sil
	movq	%rax, %rdi
	andl	$7, %edi
	cmpb	%dl, %dil
	setge	%dl
	andl	%esi, %edx
	testb	%dl, %dl
	je	.L179
	.loc 1 326 52 is_stmt 0
	movq	%rax, %rdi
	call	__asan_report_load1@PLT
.L179:
	.loc 1 326 52 discriminator 1
	movzbl	(%rcx), %eax
	.loc 1 326 54 is_stmt 1 discriminator 1
	cmpb	$10, %al
	setne	%al
	testb	%al, %al
	jne	.L180
	.loc 1 328 22
	subq	$2, -16(%rbp)
.L173:
	.loc 1 299 5
	addq	$1, -16(%rbp)
.L153:
	.loc 1 299 38 discriminator 1
	movq	-40(%rbp), %rax
	addq	$13240, %rax
	movq	%rax, %rdx
	shrq	$3, %rdx
	addq	$2147450880, %rdx
	movzbl	(%rdx), %edx
	testb	%dl, %dl
	je	.L181
	.loc 1 299 38 is_stmt 0
	movq	%rax, %rdi
	call	__asan_report_load8@PLT
.L181:
	.loc 1 299 38 discriminator 1
	movq	-40(%rbp), %rax
	movq	13240(%rax), %rax
	.loc 1 299 21 is_stmt 1 discriminator 1
	cmpq	%rax, -16(%rbp)
	jb	.L182
	.loc 1 332 42
	movq	-24(%rbp), %rax
	movl	$8, %esi
	movq	%rax, %rdi
	call	calloc@PLT
	movq	%rax, %rcx
	.loc 1 332 25
	movq	-40(%rbp), %rax
	movq	%rax, %rdx
	shrq	$3, %rdx
	addq	$2147450880, %rdx
	movzbl	(%rdx), %edx
	testb	%dl, %dl
	je	.L183
	movq	%rax, %rdi
	call	__asan_report_store8@PLT
.L183:
	movq	-40(%rbp), %rax
	movq	%rcx, (%rax)
	.loc 1 333 19
	movq	-40(%rbp), %rax
	movq	(%rax), %rax
	.loc 1 333 12
	testq	%rax, %rax
	jne	.L184
	.loc 1 333 39 discriminator 1
	call	__asan_handle_no_return@PLT
	leaq	.LC44(%rip), %rax
	movq	%rax, %rcx
	movl	$333, %edx
	leaq	.LC32(%rip), %rax
	movq	%rax, %rsi
	leaq	.LC45(%rip), %rax
	movq	%rax, %rdi
	call	__assert_fail@PLT
.L184:
	.loc 1 335 12
	movq	$1, -8(%rbp)
	.loc 1 336 14
	movq	$0, -16(%rbp)
	.loc 1 338 45
	movq	-40(%rbp), %rax
	addq	$8, %rax
	movq	%rax, %rdx
	shrq	$3, %rdx
	addq	$2147450880, %rdx
	movzbl	(%rdx), %edx
	testb	%dl, %dl
	je	.L185
	movq	%rax, %rdi
	call	__asan_report_load8@PLT
.L185:
	movq	-40(%rbp), %rax
	movq	8(%rax), %rcx
	.loc 1 338 20
	movq	-40(%rbp), %rax
	movq	%rax, %rdx
	shrq	$3, %rdx
	addq	$2147450880, %rdx
	movzbl	(%rdx), %edx
	testb	%dl, %dl
	je	.L186
	movq	%rax, %rdi
	call	__asan_report_load8@PLT
.L186:
	movq	-40(%rbp), %rax
	movq	(%rax), %rax
	.loc 1 338 52
	movq	-16(%rbp), %rdx
	leaq	(%rcx,%rdx), %rsi
	.loc 1 338 28
	movq	%rax, %rdx
	movq	%rdx, %rcx
	shrq	$3, %rcx
	addq	$2147450880, %rcx
	movzbl	(%rcx), %ecx
	testb	%cl, %cl
	je	.L187
	movq	%rdx, %rdi
	call	__asan_report_store8@PLT
.L187:
	movq	%rsi, (%rax)
	.loc 1 340 5
	jmp	.L188
.L196:
	.loc 1 342 7
	cmpq	$0, -16(%rbp)
	je	.L189
	.loc 1 342 45 discriminator 1
	movq	-40(%rbp), %rax
	addq	$8, %rax
	movq	%rax, %rdx
	shrq	$3, %rdx
	addq	$2147450880, %rdx
	movzbl	(%rdx), %edx
	testb	%dl, %dl
	je	.L190
	.loc 1 342 45 is_stmt 0
	movq	%rax, %rdi
	call	__asan_report_load8@PLT
.L190:
	.loc 1 342 45 discriminator 1
	movq	-40(%rbp), %rax
	movq	8(%rax), %rdx
	.loc 1 342 60 is_stmt 1 discriminator 1
	movq	-16(%rbp), %rax
	leaq	(%rdx,%rax), %rcx
	movq	%rcx, %rax
	movq	%rax, %rdx
	shrq	$3, %rdx
	addq	$2147450880, %rdx
	movzbl	(%rdx), %edx
	testb	%dl, %dl
	setne	%sil
	movq	%rax, %rdi
	andl	$7, %edi
	cmpb	%dl, %dil
	setge	%dl
	andl	%esi, %edx
	testb	%dl, %dl
	je	.L191
	.loc 1 342 60 is_stmt 0
	movq	%rax, %rdi
	call	__asan_report_load1@PLT
.L191:
	.loc 1 342 60 discriminator 1
	movzbl	(%rcx), %eax
	.loc 1 342 26 is_stmt 1 discriminator 1
	testb	%al, %al
	jne	.L189
	.loc 1 342 89 discriminator 2
	movq	-40(%rbp), %rax
	movq	8(%rax), %rdx
	.loc 1 342 106 discriminator 2
	movq	-16(%rbp), %rax
	addq	$1, %rax
	leaq	(%rdx,%rax), %rcx
	movq	%rcx, %rax
	movq	%rax, %rdx
	shrq	$3, %rdx
	addq	$2147450880, %rdx
	movzbl	(%rdx), %edx
	testb	%dl, %dl
	setne	%sil
	movq	%rax, %rdi
	andl	$7, %edi
	cmpb	%dl, %dil
	setge	%dl
	andl	%esi, %edx
	testb	%dl, %dl
	je	.L192
	.loc 1 342 106 is_stmt 0
	movq	%rax, %rdi
	call	__asan_report_load1@PLT
.L192:
	.loc 1 342 106 discriminator 2
	movzbl	(%rcx), %eax
	.loc 1 342 70 is_stmt 1 discriminator 2
	cmpb	$35, %al
	je	.L189
	.loc 1 344 56
	movq	-40(%rbp), %rax
	movq	8(%rax), %rcx
	.loc 1 344 74
	movq	-16(%rbp), %rax
	leaq	1(%rax), %rsi
	.loc 1 344 28
	movq	-40(%rbp), %rax
	movq	%rax, %rdx
	shrq	$3, %rdx
	addq	$2147450880, %rdx
	movzbl	(%rdx), %edx
	testb	%dl, %dl
	je	.L193
	movq	%rax, %rdi
	call	__asan_report_load8@PLT
.L193:
	movq	-40(%rbp), %rax
	movq	(%rax), %rdx
	.loc 1 344 37
	movq	-8(%rbp), %rax
	salq	$3, %rax
	addq	%rdx, %rax
	.loc 1 344 74
	addq	%rcx, %rsi
	.loc 1 344 39
	movq	%rax, %rdx
	movq	%rdx, %rcx
	shrq	$3, %rcx
	addq	$2147450880, %rcx
	movzbl	(%rcx), %ecx
	testb	%cl, %cl
	je	.L194
	movq	%rdx, %rdi
	call	__asan_report_store8@PLT
.L194:
	movq	%rsi, (%rax)
	.loc 1 345 17
	addq	$1, -8(%rbp)
.L189:
	.loc 1 340 5
	addq	$1, -16(%rbp)
.L188:
	.loc 1 340 38 discriminator 1
	movq	-40(%rbp), %rax
	addq	$13240, %rax
	movq	%rax, %rdx
	shrq	$3, %rdx
	addq	$2147450880, %rdx
	movzbl	(%rdx), %edx
	testb	%dl, %dl
	je	.L195
	.loc 1 340 38 is_stmt 0
	movq	%rax, %rdi
	call	__asan_report_load8@PLT
.L195:
	.loc 1 340 38 discriminator 1
	movq	-40(%rbp), %rax
	movq	13240(%rax), %rax
	.loc 1 340 49 is_stmt 1 discriminator 1
	subq	$1, %rax
	.loc 1 340 21 discriminator 1
	cmpq	%rax, -16(%rbp)
	jb	.L196
	.loc 1 349 12
	movq	-24(%rbp), %rax
	.loc 1 350 1
	leave
	.cfi_def_cfa 7, 8
	ret
	.cfi_endproc
.LFE961:
	.size	_Z21make_ptr_arr_of_linesP8ass_info, .-_Z21make_ptr_arr_of_linesP8ass_info
	.globl	_Z10detor_infoP8ass_info
	.type	_Z10detor_infoP8ass_info, @function
_Z10detor_infoP8ass_info:
.LASANPC962:
.LFB962:
	.loc 1 353 1
	.cfi_startproc
	endbr64
	pushq	%rbp
	.cfi_def_cfa_offset 16
	.cfi_offset 6, -16
	movq	%rsp, %rbp
	.cfi_def_cfa_register 6
	subq	$16, %rsp
	movq	%rdi, -8(%rbp)
	.loc 1 354 25
	movq	-8(%rbp), %rax
	addq	$8, %rax
	movq	%rax, %rdx
	shrq	$3, %rdx
	addq	$2147450880, %rdx
	movzbl	(%rdx), %edx
	testb	%dl, %dl
	je	.L199
	movq	%rax, %rdi
	call	__asan_report_load8@PLT
.L199:
	movq	-8(%rbp), %rax
	movq	8(%rax), %rax
	.loc 1 354 9
	movq	%rax, %rdi
	call	free@PLT
	.loc 1 355 25
	movq	-8(%rbp), %rax
	addq	$16, %rax
	movq	%rax, %rdx
	shrq	$3, %rdx
	addq	$2147450880, %rdx
	movzbl	(%rdx), %edx
	testb	%dl, %dl
	je	.L200
	movq	%rax, %rdi
	call	__asan_report_load8@PLT
.L200:
	movq	-8(%rbp), %rax
	movq	16(%rax), %rax
	.loc 1 355 9
	movq	%rax, %rdi
	call	free@PLT
	.loc 1 356 25
	movq	-8(%rbp), %rax
	movq	%rax, %rdx
	shrq	$3, %rdx
	addq	$2147450880, %rdx
	movzbl	(%rdx), %edx
	testb	%dl, %dl
	je	.L201
	movq	%rax, %rdi
	call	__asan_report_load8@PLT
.L201:
	movq	-8(%rbp), %rax
	movq	(%rax), %rax
	.loc 1 356 9
	movq	%rax, %rdi
	call	free@PLT
	.loc 1 357 1
	nop
	leave
	.cfi_def_cfa 7, 8
	ret
	.cfi_endproc
.LFE962:
	.size	_Z10detor_infoP8ass_info, .-_Z10detor_infoP8ass_info
	.globl	__asan_stack_malloc_0
	.section	.rodata
.LC46:
	.string	"1 32 12 7 arr:361"
	.text
	.globl	_Z24write_header_of_bin_fileP8_IO_FILEPKcii
	.type	_Z24write_header_of_bin_fileP8_IO_FILEPKcii, @function
_Z24write_header_of_bin_fileP8_IO_FILEPKcii:
.LASANPC963:
.LFB963:
	.loc 1 360 1
	.cfi_startproc
	endbr64
	pushq	%rbp
	.cfi_def_cfa_offset 16
	.cfi_offset 6, -16
	movq	%rsp, %rbp
	.cfi_def_cfa_register 6
	pushq	%r13
	pushq	%r12
	pushq	%rbx
	subq	$136, %rsp
	.cfi_offset 13, -24
	.cfi_offset 12, -32
	.cfi_offset 3, -40
	movq	%rdi, -136(%rbp)
	movq	%rsi, -144(%rbp)
	movl	%edx, -148(%rbp)
	movl	%ecx, -152(%rbp)
	leaq	-128(%rbp), %rbx
	movq	%rbx, %r13
	cmpl	$0, __asan_option_detect_stack_use_after_return(%rip)
	je	.L202
	movl	$64, %edi
	call	__asan_stack_malloc_0@PLT
	testq	%rax, %rax
	je	.L202
	movq	%rax, %rbx
.L202:
	leaq	96(%rbx), %rax
	movq	$1102416563, (%rbx)
	leaq	.LC46(%rip), %rdx
	movq	%rdx, 8(%rbx)
	leaq	.LASANPC963(%rip), %rdx
	movq	%rdx, 16(%rbx)
	movq	%rbx, %r12
	shrq	$3, %r12
	movl	$-235802127, 2147450880(%r12)
	movl	$-202177536, 2147450884(%r12)
	.loc 1 360 1
	movq	%fs:40, %rdx
	movq	%rdx, -40(%rbp)
	xorl	%edx, %edx
	.loc 1 361 9
	leaq	-64(%rax), %rdx
	movq	%rdx, %rcx
	shrq	$3, %rcx
	addq	$2147450880, %rcx
	movzbl	(%rcx), %ecx
	testb	%cl, %cl
	setne	%sil
	testb	%cl, %cl
	setle	%cl
	movl	%esi, %edi
	andl	%ecx, %edi
	movl	$12, %ecx
	subq	$1, %rcx
	leaq	(%rdx,%rcx), %rsi
	movq	%rsi, %rcx
	shrq	$3, %rcx
	addq	$2147450880, %rcx
	movzbl	(%rcx), %ecx
	testb	%cl, %cl
	setne	%r8b
	andl	$7, %esi
	cmpb	%cl, %sil
	setge	%cl
	andl	%r8d, %ecx
	orl	%edi, %ecx
	testb	%cl, %cl
	je	.L206
	movl	$12, %esi
	movq	%rdx, %rdi
	call	__asan_report_store_n@PLT
.L206:
	movq	$0, -64(%rax)
	movl	$0, -56(%rax)
	.loc 1 362 25
	movq	-144(%rbp), %rdx
	movq	%rdx, %rcx
	shrq	$3, %rcx
	addq	$2147450880, %rcx
	movzbl	(%rcx), %ecx
	testb	%cl, %cl
	setne	%sil
	movq	%rdx, %rdi
	andl	$7, %edi
	cmpb	%cl, %dil
	setge	%cl
	andl	%esi, %ecx
	testb	%cl, %cl
	je	.L207
	movq	%rdx, %rdi
	call	__asan_report_load1@PLT
.L207:
	movq	-144(%rbp), %rdx
	movzbl	(%rdx), %edx
	movsbl	%dl, %edi
	.loc 1 362 40
	movq	-144(%rbp), %rdx
	leaq	1(%rdx), %rsi
	movq	%rsi, %rdx
	movq	%rdx, %rcx
	shrq	$3, %rcx
	addq	$2147450880, %rcx
	movzbl	(%rcx), %ecx
	testb	%cl, %cl
	setne	%r8b
	movq	%rdx, %r9
	andl	$7, %r9d
	cmpb	%cl, %r9b
	setge	%cl
	andl	%r8d, %ecx
	testb	%cl, %cl
	je	.L208
	movq	%rdx, %rdi
	call	__asan_report_load1@PLT
.L208:
	movzbl	(%rsi), %edx
	movsbl	%dl, %edx
	.loc 1 362 42
	sall	$8, %edx
	.loc 1 362 27
	addl	%edx, %edi
	.loc 1 362 61
	movq	-144(%rbp), %rdx
	leaq	2(%rdx), %rsi
	movq	%rsi, %rdx
	movq	%rdx, %rcx
	shrq	$3, %rcx
	addq	$2147450880, %rcx
	movzbl	(%rcx), %ecx
	testb	%cl, %cl
	setne	%r8b
	movq	%rdx, %r9
	andl	$7, %r9d
	cmpb	%cl, %r9b
	setge	%cl
	andl	%r8d, %ecx
	testb	%cl, %cl
	je	.L209
	movq	%rdx, %rdi
	call	__asan_report_load1@PLT
.L209:
	movzbl	(%rsi), %edx
	movsbl	%dl, %edx
	.loc 1 362 63
	sall	$16, %edx
	.loc 1 362 48
	leal	(%rdi,%rdx), %esi
	.loc 1 362 12
	leaq	-64(%rax), %rdx
	movq	%rdx, %rcx
	movq	%rcx, %rdx
	shrq	$3, %rdx
	addq	$2147450880, %rdx
	movzbl	(%rdx), %edx
	testb	%dl, %dl
	setne	%dil
	cmpb	$3, %dl
	setle	%dl
	andl	%edi, %edx
	testb	%dl, %dl
	je	.L210
	movq	%rcx, %rdi
	call	__asan_report_store4@PLT
.L210:
	movl	%esi, -64(%rax)
	.loc 1 363 12
	leaq	-64(%rax), %rdx
	addq	$4, %rdx
	movq	%rdx, %rcx
	shrq	$3, %rcx
	addq	$2147450880, %rcx
	movzbl	(%rcx), %ecx
	testb	%cl, %cl
	setne	%dil
	movq	%rdx, %rsi
	andl	$7, %esi
	addl	$3, %esi
	cmpb	%cl, %sil
	setge	%cl
	andl	%edi, %ecx
	testb	%cl, %cl
	je	.L211
	movq	%rdx, %rdi
	call	__asan_report_store4@PLT
.L211:
	movl	-148(%rbp), %edx
	movl	%edx, -60(%rax)
	.loc 1 364 12
	leaq	-64(%rax), %rdx
	addq	$8, %rdx
	movq	%rdx, %rcx
	movq	%rcx, %rdx
	shrq	$3, %rdx
	addq	$2147450880, %rdx
	movzbl	(%rdx), %edx
	testb	%dl, %dl
	setne	%sil
	cmpb	$3, %dl
	setle	%dl
	andl	%esi, %edx
	testb	%dl, %dl
	je	.L212
	movq	%rcx, %rdi
	call	__asan_report_store4@PLT
.L212:
	movl	-152(%rbp), %edx
	movl	%edx, -56(%rax)
	.loc 1 365 11
	movq	-136(%rbp), %rdx
	subq	$64, %rax
	movq	%rdx, %rcx
	movl	$3, %edx
	movl	$4, %esi
	movq	%rax, %rdi
	call	fwrite@PLT
	.loc 1 366 1
	nop
	.loc 1 360 1
	cmpq	%rbx, %r13
	je	.L203
	movq	$1172321806, (%rbx)
	movabsq	$-723401728380766731, %rax
	movq	%rax, 2147450880(%r12)
	movq	56(%rbx), %rax
	movb	$0, (%rax)
	jmp	.L204
.L203:
	movq	$0, 2147450880(%r12)
.L204:
	.loc 1 366 1
	movq	-40(%rbp), %rax
	subq	%fs:40, %rax
	je	.L213
	call	__stack_chk_fail@PLT
.L213:
	addq	$136, %rsp
	popq	%rbx
	popq	%r12
	popq	%r13
	popq	%rbp
	.cfi_def_cfa 7, 8
	ret
	.cfi_endproc
.LFE963:
	.size	_Z24write_header_of_bin_fileP8_IO_FILEPKcii, .-_Z24write_header_of_bin_fileP8_IO_FILEPKcii
	.globl	_Z22fill_labels_bad_valuesP7Labels_i
	.type	_Z22fill_labels_bad_valuesP7Labels_i, @function
_Z22fill_labels_bad_valuesP7Labels_i:
.LASANPC964:
.LFB964:
	.loc 1 369 1
	.cfi_startproc
	endbr64
	pushq	%rbp
	.cfi_def_cfa_offset 16
	.cfi_offset 6, -16
	movq	%rsp, %rbp
	.cfi_def_cfa_register 6
	subq	$32, %rsp
	movq	%rdi, -24(%rbp)
	movl	%esi, -28(%rbp)
.LBB6:
	.loc 1 370 14
	movl	$0, -4(%rbp)
	.loc 1 370 5
	jmp	.L215
.L217:
	.loc 1 372 16 discriminator 3
	movl	-4(%rbp), %eax
	movslq	%eax, %rdx
	.loc 1 372 17 discriminator 3
	movq	%rdx, %rax
	salq	$5, %rax
	addq	%rdx, %rax
	salq	$2, %rax
	movq	%rax, %rdx
	movq	-24(%rbp), %rax
	leaq	(%rdx,%rax), %rcx
	.loc 1 372 27 discriminator 3
	leaq	128(%rcx), %rax
	movq	%rax, %rdx
	shrq	$3, %rdx
	addq	$2147450880, %rdx
	movzbl	(%rdx), %edx
	testb	%dl, %dl
	setne	%dil
	movq	%rax, %rsi
	andl	$7, %esi
	addl	$3, %esi
	cmpb	%dl, %sil
	setge	%dl
	andl	%edi, %edx
	testb	%dl, %dl
	je	.L216
	.loc 1 372 27 is_stmt 0
	movq	%rax, %rdi
	call	__asan_report_store4@PLT
.L216:
	.loc 1 372 27 discriminator 3
	movl	$-1, 128(%rcx)
	.loc 1 370 5 is_stmt 1 discriminator 3
	addl	$1, -4(%rbp)
.L215:
	.loc 1 370 23 discriminator 1
	movl	-4(%rbp), %eax
	cmpl	-28(%rbp), %eax
	jl	.L217
.LBE6:
	.loc 1 374 1
	nop
	nop
	leave
	.cfi_def_cfa 7, 8
	ret
	.cfi_endproc
.LFE964:
	.size	_Z22fill_labels_bad_valuesP7Labels_i, .-_Z22fill_labels_bad_valuesP7Labels_i
	.section	.rodata
	.align 32
.LC47:
	.string	"DUMP CALLED FROM %s file, %s func, %d line \n\n"
	.zero	50
	.align 32
.LC48:
	.string	"buff_size = %zd \n"
	.zero	46
	.align 32
.LC49:
	.string	"num of str = %zd \n"
	.zero	45
	.align 32
.LC50:
	.string	"num_of_commands = %zd\n"
	.zero	41
	.align 32
.LC51:
	.string	"\n\nDUMP BUFFER\n"
	.zero	49
	.align 32
.LC52:
	.string	"\n\nDUMP LINES\n"
	.zero	50
	.align 32
.LC53:
	.string	"%s\n"
	.zero	60
	.align 32
.LC54:
	.string	"\n\nDUMP OF LABELS\n"
	.zero	46
	.align 32
.LC55:
	.string	"* %s = %2d   \n"
	.zero	49
	.align 32
.LC56:
	.string	" %s = %2d (POISON)\n"
	.zero	44
	.text
	.globl	_Z8dump_assP8ass_infoiPKcS2_i
	.type	_Z8dump_assP8ass_infoiPKcS2_i, @function
_Z8dump_assP8ass_infoiPKcS2_i:
.LASANPC965:
.LFB965:
	.loc 1 377 1
	.cfi_startproc
	endbr64
	pushq	%rbp
	.cfi_def_cfa_offset 16
	.cfi_offset 6, -16
	movq	%rsp, %rbp
	.cfi_def_cfa_register 6
	subq	$64, %rsp
	movq	%rdi, -40(%rbp)
	movl	%esi, -44(%rbp)
	movq	%rdx, -56(%rbp)
	movq	%rcx, -64(%rbp)
	movl	%r8d, -48(%rbp)
	.loc 1 378 12
	leaq	ass_logs(%rip), %rax
	movq	%rax, %rdx
	shrq	$3, %rdx
	addq	$2147450880, %rdx
	movzbl	(%rdx), %edx
	testb	%dl, %dl
	je	.L219
	movq	%rax, %rdi
	call	__asan_report_load8@PLT
.L219:
	movq	ass_logs(%rip), %rax
	movl	-48(%rbp), %esi
	movq	-64(%rbp), %rcx
	movq	-56(%rbp), %rdx
	movl	%esi, %r8d
	leaq	.LC47(%rip), %rsi
	movq	%rax, %rdi
	movl	$0, %eax
	call	fprintf@PLT
	.loc 1 380 12
	movq	-40(%rbp), %rax
	addq	$13240, %rax
	movq	%rax, %rdx
	shrq	$3, %rdx
	addq	$2147450880, %rdx
	movzbl	(%rdx), %edx
	testb	%dl, %dl
	je	.L220
	movq	%rax, %rdi
	call	__asan_report_load8@PLT
.L220:
	movq	-40(%rbp), %rax
	movq	13240(%rax), %rdx
	leaq	ass_logs(%rip), %rax
	movq	%rax, %rcx
	shrq	$3, %rcx
	addq	$2147450880, %rcx
	movzbl	(%rcx), %ecx
	testb	%cl, %cl
	je	.L221
	movq	%rax, %rdi
	call	__asan_report_load8@PLT
.L221:
	movq	ass_logs(%rip), %rax
	leaq	.LC48(%rip), %rcx
	movq	%rcx, %rsi
	movq	%rax, %rdi
	movl	$0, %eax
	call	fprintf@PLT
	.loc 1 381 12
	movq	-40(%rbp), %rax
	addq	$13224, %rax
	movq	%rax, %rdx
	shrq	$3, %rdx
	addq	$2147450880, %rdx
	movzbl	(%rdx), %edx
	testb	%dl, %dl
	je	.L222
	movq	%rax, %rdi
	call	__asan_report_load8@PLT
.L222:
	movq	-40(%rbp), %rax
	movq	13224(%rax), %rdx
	leaq	ass_logs(%rip), %rax
	movq	%rax, %rcx
	shrq	$3, %rcx
	addq	$2147450880, %rcx
	movzbl	(%rcx), %ecx
	testb	%cl, %cl
	je	.L223
	movq	%rax, %rdi
	call	__asan_report_load8@PLT
.L223:
	movq	ass_logs(%rip), %rax
	leaq	.LC49(%rip), %rcx
	movq	%rcx, %rsi
	movq	%rax, %rdi
	movl	$0, %eax
	call	fprintf@PLT
	.loc 1 382 12
	movq	-40(%rbp), %rax
	addq	$13232, %rax
	movq	%rax, %rdx
	shrq	$3, %rdx
	addq	$2147450880, %rdx
	movzbl	(%rdx), %edx
	testb	%dl, %dl
	je	.L224
	movq	%rax, %rdi
	call	__asan_report_load8@PLT
.L224:
	movq	-40(%rbp), %rax
	movq	13232(%rax), %rdx
	leaq	ass_logs(%rip), %rax
	movq	%rax, %rcx
	shrq	$3, %rcx
	addq	$2147450880, %rcx
	movzbl	(%rcx), %ecx
	testb	%cl, %cl
	je	.L225
	movq	%rax, %rdi
	call	__asan_report_load8@PLT
.L225:
	movq	ass_logs(%rip), %rax
	leaq	.LC50(%rip), %rcx
	movq	%rcx, %rsi
	movq	%rax, %rdi
	movl	$0, %eax
	call	fprintf@PLT
	.loc 1 384 10
	leaq	ass_logs(%rip), %rax
	movq	%rax, %rdx
	shrq	$3, %rdx
	addq	$2147450880, %rdx
	movzbl	(%rdx), %edx
	testb	%dl, %dl
	je	.L226
	movq	%rax, %rdi
	call	__asan_report_load8@PLT
.L226:
	movq	ass_logs(%rip), %rax
	movq	%rax, %rcx
	movl	$14, %edx
	movl	$1, %esi
	leaq	.LC51(%rip), %rax
	movq	%rax, %rdi
	call	fwrite@PLT
.LBB7:
	.loc 1 385 17
	movq	$0, -16(%rbp)
	.loc 1 385 5
	jmp	.L227
.L237:
	.loc 1 387 28
	movq	-40(%rbp), %rax
	addq	$8, %rax
	movq	%rax, %rdx
	shrq	$3, %rdx
	addq	$2147450880, %rdx
	movzbl	(%rdx), %edx
	testb	%dl, %dl
	je	.L228
	movq	%rax, %rdi
	call	__asan_report_load8@PLT
.L228:
	movq	-40(%rbp), %rax
	movq	8(%rax), %rdx
	.loc 1 387 36
	movq	-16(%rbp), %rax
	leaq	(%rdx,%rax), %rcx
	movq	%rcx, %rax
	movq	%rax, %rdx
	shrq	$3, %rdx
	addq	$2147450880, %rdx
	movzbl	(%rdx), %edx
	testb	%dl, %dl
	setne	%sil
	movq	%rax, %rdi
	andl	$7, %edi
	cmpb	%dl, %dil
	setge	%dl
	andl	%esi, %edx
	testb	%dl, %dl
	je	.L229
	movq	%rax, %rdi
	call	__asan_report_load1@PLT
.L229:
	movzbl	(%rcx), %eax
	.loc 1 387 9
	testb	%al, %al
	jne	.L230
	.loc 1 389 20 discriminator 1
	leaq	ass_logs(%rip), %rax
	movq	%rax, %rdx
	shrq	$3, %rdx
	addq	$2147450880, %rdx
	movzbl	(%rdx), %edx
	testb	%dl, %dl
	je	.L231
	.loc 1 389 20 is_stmt 0
	movq	%rax, %rdi
	call	__asan_report_load8@PLT
.L231:
	.loc 1 389 20 discriminator 1
	movq	ass_logs(%rip), %rax
	movq	%rax, %rsi
	movl	$10, %edi
	call	fputc@PLT
	.loc 1 390 13 is_stmt 1 discriminator 1
	jmp	.L232
.L230:
	.loc 1 392 48
	movq	-40(%rbp), %rax
	addq	$8, %rax
	movq	%rax, %rdx
	shrq	$3, %rdx
	addq	$2147450880, %rdx
	movzbl	(%rdx), %edx
	testb	%dl, %dl
	je	.L233
	movq	%rax, %rdi
	call	__asan_report_load8@PLT
.L233:
	movq	-40(%rbp), %rax
	movq	8(%rax), %rdx
	.loc 1 392 56
	movq	-16(%rbp), %rax
	leaq	(%rdx,%rax), %rcx
	movq	%rcx, %rax
	movq	%rax, %rdx
	shrq	$3, %rdx
	addq	$2147450880, %rdx
	movzbl	(%rdx), %edx
	testb	%dl, %dl
	setne	%sil
	movq	%rax, %rdi
	andl	$7, %edi
	cmpb	%dl, %dil
	setge	%dl
	andl	%esi, %edx
	testb	%dl, %dl
	je	.L234
	movq	%rax, %rdi
	call	__asan_report_load1@PLT
.L234:
	movzbl	(%rcx), %eax
	.loc 1 392 16
	movsbl	%al, %eax
	leaq	ass_logs(%rip), %rdx
	movq	%rdx, %rcx
	shrq	$3, %rcx
	addq	$2147450880, %rcx
	movzbl	(%rcx), %ecx
	testb	%cl, %cl
	je	.L235
	movq	%rdx, %rdi
	call	__asan_report_load8@PLT
.L235:
	movq	ass_logs(%rip), %rdx
	movq	%rdx, %rsi
	movl	%eax, %edi
	call	fputc@PLT
.L232:
	.loc 1 385 5 discriminator 2
	addq	$1, -16(%rbp)
.L227:
	.loc 1 385 43 discriminator 1
	movq	-40(%rbp), %rax
	addq	$13240, %rax
	movq	%rax, %rdx
	shrq	$3, %rdx
	addq	$2147450880, %rdx
	movzbl	(%rdx), %edx
	testb	%dl, %dl
	je	.L236
	.loc 1 385 43 is_stmt 0
	movq	%rax, %rdi
	call	__asan_report_load8@PLT
.L236:
	.loc 1 385 43 discriminator 1
	movq	-40(%rbp), %rax
	movq	13240(%rax), %rax
	.loc 1 385 26 is_stmt 1 discriminator 1
	cmpq	%rax, -16(%rbp)
	jb	.L237
.LBE7:
	.loc 1 395 10
	leaq	ass_logs(%rip), %rax
	movq	%rax, %rdx
	shrq	$3, %rdx
	addq	$2147450880, %rdx
	movzbl	(%rdx), %edx
	testb	%dl, %dl
	je	.L238
	movq	%rax, %rdi
	call	__asan_report_load8@PLT
.L238:
	movq	ass_logs(%rip), %rax
	movq	%rax, %rcx
	movl	$13, %edx
	movl	$1, %esi
	leaq	.LC52(%rip), %rax
	movq	%rax, %rdi
	call	fwrite@PLT
.LBB8:
	.loc 1 396 17
	movq	$0, -8(%rbp)
	.loc 1 396 5
	jmp	.L239
.L244:
	.loc 1 397 49 discriminator 3
	movq	-40(%rbp), %rax
	movq	%rax, %rdx
	shrq	$3, %rdx
	addq	$2147450880, %rdx
	movzbl	(%rdx), %edx
	testb	%dl, %dl
	je	.L240
	.loc 1 397 49 is_stmt 0
	movq	%rax, %rdi
	call	__asan_report_load8@PLT
.L240:
	.loc 1 397 49 discriminator 3
	movq	-40(%rbp), %rax
	movq	(%rax), %rdx
	.loc 1 397 55 is_stmt 1 discriminator 3
	movq	-8(%rbp), %rax
	salq	$3, %rax
	addq	%rdx, %rax
	.loc 1 397 16 discriminator 3
	movq	%rax, %rdx
	movq	%rdx, %rcx
	shrq	$3, %rcx
	addq	$2147450880, %rcx
	movzbl	(%rcx), %ecx
	testb	%cl, %cl
	je	.L241
	.loc 1 397 16 is_stmt 0
	movq	%rdx, %rdi
	call	__asan_report_load8@PLT
.L241:
	.loc 1 397 16 discriminator 3
	movq	(%rax), %rdx
	leaq	ass_logs(%rip), %rax
	movq	%rax, %rcx
	shrq	$3, %rcx
	addq	$2147450880, %rcx
	movzbl	(%rcx), %ecx
	testb	%cl, %cl
	je	.L242
	.loc 1 397 16
	movq	%rax, %rdi
	call	__asan_report_load8@PLT
.L242:
	.loc 1 397 16 discriminator 3
	movq	ass_logs(%rip), %rax
	leaq	.LC53(%rip), %rcx
	movq	%rcx, %rsi
	movq	%rax, %rdi
	movl	$0, %eax
	call	fprintf@PLT
	.loc 1 396 5 is_stmt 1 discriminator 3
	addq	$1, -8(%rbp)
.L239:
	.loc 1 396 43 discriminator 1
	movq	-40(%rbp), %rax
	addq	$13224, %rax
	movq	%rax, %rdx
	shrq	$3, %rdx
	addq	$2147450880, %rdx
	movzbl	(%rdx), %edx
	testb	%dl, %dl
	je	.L243
	.loc 1 396 43 is_stmt 0
	movq	%rax, %rdi
	call	__asan_report_load8@PLT
.L243:
	.loc 1 396 43 discriminator 1
	movq	-40(%rbp), %rax
	movq	13224(%rax), %rax
	.loc 1 396 26 is_stmt 1 discriminator 1
	cmpq	%rax, -8(%rbp)
	jb	.L244
.LBE8:
	.loc 1 399 10
	leaq	ass_logs(%rip), %rax
	movq	%rax, %rdx
	shrq	$3, %rdx
	addq	$2147450880, %rdx
	movzbl	(%rdx), %edx
	testb	%dl, %dl
	je	.L245
	movq	%rax, %rdi
	call	__asan_report_load8@PLT
.L245:
	movq	ass_logs(%rip), %rax
	movq	%rax, %rcx
	movl	$17, %edx
	movl	$1, %esi
	leaq	.LC54(%rip), %rax
	movq	%rax, %rdi
	call	fwrite@PLT
.LBB9:
	.loc 1 400 13
	movl	$0, -20(%rbp)
	.loc 1 400 5
	jmp	.L246
.L253:
	.loc 1 402 38
	movl	-20(%rbp), %eax
	movslq	%eax, %rdx
	movq	%rdx, %rax
	salq	$5, %rax
	addq	%rdx, %rax
	salq	$2, %rax
	leaq	144(%rax), %rdx
	movq	-40(%rbp), %rax
	addq	%rdx, %rax
	addq	$8, %rax
	movq	%rax, %rdx
	shrq	$3, %rdx
	addq	$2147450880, %rdx
	movzbl	(%rdx), %edx
	testb	%dl, %dl
	setne	%sil
	movq	%rax, %rcx
	andl	$7, %ecx
	addl	$3, %ecx
	cmpb	%dl, %cl
	setge	%dl
	andl	%esi, %edx
	testb	%dl, %dl
	je	.L247
	movq	%rax, %rdi
	call	__asan_report_load4@PLT
.L247:
	movq	-40(%rbp), %rcx
	movl	-20(%rbp), %eax
	movslq	%eax, %rdx
	movq	%rdx, %rax
	salq	$5, %rax
	addq	%rdx, %rax
	salq	$2, %rax
	addq	%rcx, %rax
	addq	$152, %rax
	movl	(%rax), %eax
	.loc 1 402 9
	cmpl	$-1, %eax
	je	.L248
	.loc 1 404 20
	movq	-40(%rbp), %rcx
	movl	-20(%rbp), %eax
	movslq	%eax, %rdx
	movq	%rdx, %rax
	salq	$5, %rax
	addq	%rdx, %rax
	salq	$2, %rax
	addq	%rcx, %rax
	addq	$152, %rax
	movl	(%rax), %edx
	.loc 1 404 75
	movl	-20(%rbp), %eax
	movslq	%eax, %rcx
	movq	%rcx, %rax
	salq	$5, %rax
	addq	%rcx, %rax
	salq	$2, %rax
	leaq	16(%rax), %rcx
	movq	-40(%rbp), %rax
	addq	%rcx, %rax
	leaq	8(%rax), %rsi
	.loc 1 404 20
	leaq	ass_logs(%rip), %rax
	movq	%rax, %rcx
	shrq	$3, %rcx
	addq	$2147450880, %rcx
	movzbl	(%rcx), %ecx
	testb	%cl, %cl
	je	.L249
	movq	%rax, %rdi
	call	__asan_report_load8@PLT
.L249:
	movq	ass_logs(%rip), %rax
	movl	%edx, %ecx
	movq	%rsi, %rdx
	leaq	.LC55(%rip), %rsi
	movq	%rax, %rdi
	movl	$0, %eax
	call	fprintf@PLT
	jmp	.L250
.L248:
	.loc 1 406 43
	movl	-20(%rbp), %eax
	movslq	%eax, %rdx
	movq	%rdx, %rax
	salq	$5, %rax
	addq	%rdx, %rax
	salq	$2, %rax
	leaq	144(%rax), %rdx
	movq	-40(%rbp), %rax
	addq	%rdx, %rax
	addq	$8, %rax
	movq	%rax, %rdx
	shrq	$3, %rdx
	addq	$2147450880, %rdx
	movzbl	(%rdx), %edx
	testb	%dl, %dl
	setne	%sil
	movq	%rax, %rcx
	andl	$7, %ecx
	addl	$3, %ecx
	cmpb	%dl, %cl
	setge	%dl
	andl	%esi, %edx
	testb	%dl, %dl
	je	.L251
	movq	%rax, %rdi
	call	__asan_report_load4@PLT
.L251:
	movq	-40(%rbp), %rcx
	movl	-20(%rbp), %eax
	movslq	%eax, %rdx
	movq	%rdx, %rax
	salq	$5, %rax
	addq	%rdx, %rax
	salq	$2, %rax
	addq	%rcx, %rax
	addq	$152, %rax
	movl	(%rax), %eax
	.loc 1 406 14
	cmpl	$-1, %eax
	jne	.L250
	.loc 1 408 20
	movq	-40(%rbp), %rcx
	movl	-20(%rbp), %eax
	movslq	%eax, %rdx
	movq	%rdx, %rax
	salq	$5, %rax
	addq	%rdx, %rax
	salq	$2, %rax
	addq	%rcx, %rax
	addq	$152, %rax
	movl	(%rax), %edx
	.loc 1 408 80
	movl	-20(%rbp), %eax
	movslq	%eax, %rcx
	movq	%rcx, %rax
	salq	$5, %rax
	addq	%rcx, %rax
	salq	$2, %rax
	leaq	16(%rax), %rcx
	movq	-40(%rbp), %rax
	addq	%rcx, %rax
	leaq	8(%rax), %rsi
	.loc 1 408 20
	leaq	ass_logs(%rip), %rax
	movq	%rax, %rcx
	shrq	$3, %rcx
	addq	$2147450880, %rcx
	movzbl	(%rcx), %ecx
	testb	%cl, %cl
	je	.L252
	movq	%rax, %rdi
	call	__asan_report_load8@PLT
.L252:
	movq	ass_logs(%rip), %rax
	movl	%edx, %ecx
	movq	%rsi, %rdx
	leaq	.LC56(%rip), %rsi
	movq	%rax, %rdi
	movl	$0, %eax
	call	fprintf@PLT
.L250:
	.loc 1 400 5 discriminator 2
	addl	$1, -20(%rbp)
.L246:
	.loc 1 400 22 discriminator 1
	movl	-20(%rbp), %eax
	cmpl	-44(%rbp), %eax
	jl	.L253
.LBE9:
	.loc 1 411 1
	nop
	nop
	leave
	.cfi_def_cfa 7, 8
	ret
	.cfi_endproc
.LFE965:
	.size	_Z8dump_assP8ass_infoiPKcS2_i, .-_Z8dump_assP8ass_infoiPKcS2_i
	.section	.rodata
	.align 32
.LC57:
	.string	"FILE* open_with_no_buff(const char*, const char*)"
	.zero	46
	.text
	.globl	_Z17open_with_no_buffPKcS0_
	.type	_Z17open_with_no_buffPKcS0_, @function
_Z17open_with_no_buffPKcS0_:
.LASANPC966:
.LFB966:
	.loc 1 414 1
	.cfi_startproc
	endbr64
	pushq	%rbp
	.cfi_def_cfa_offset 16
	.cfi_offset 6, -16
	movq	%rsp, %rbp
	.cfi_def_cfa_register 6
	subq	$32, %rsp
	movq	%rdi, -24(%rbp)
	movq	%rsi, -32(%rbp)
	.loc 1 415 27
	movq	-32(%rbp), %rdx
	movq	-24(%rbp), %rax
	movq	%rdx, %rsi
	movq	%rax, %rdi
	call	fopen@PLT
	movq	%rax, -8(%rbp)
	.loc 1 416 12
	cmpq	$0, -8(%rbp)
	jne	.L255
	.loc 1 416 39 discriminator 1
	call	__asan_handle_no_return@PLT
	leaq	.LC57(%rip), %rax
	movq	%rax, %rcx
	movl	$416, %edx
	leaq	.LC32(%rip), %rax
	movq	%rax, %rsi
	leaq	.LC38(%rip), %rax
	movq	%rax, %rdi
	call	__assert_fail@PLT
.L255:
	.loc 1 418 12
	movq	-8(%rbp), %rax
	movl	$0, %ecx
	movl	$2, %edx
	movl	$0, %esi
	movq	%rax, %rdi
	call	setvbuf@PLT
	.loc 1 420 12
	movq	-8(%rbp), %rax
	.loc 1 421 1
	leave
	.cfi_def_cfa 7, 8
	ret
	.cfi_endproc
.LFE966:
	.size	_Z17open_with_no_buffPKcS0_, .-_Z17open_with_no_buffPKcS0_
	.globl	_Z14write_to_filesP8_IO_FILEPiiS1_c
	.type	_Z14write_to_filesP8_IO_FILEPiiS1_c, @function
_Z14write_to_filesP8_IO_FILEPiiS1_c:
.LASANPC967:
.LFB967:
	.loc 1 424 1
	.cfi_startproc
	endbr64
	pushq	%rbp
	.cfi_def_cfa_offset 16
	.cfi_offset 6, -16
	movq	%rsp, %rbp
	.cfi_def_cfa_register 6
	subq	$32, %rsp
	movq	%rdi, -8(%rbp)
	movq	%rsi, -16(%rbp)
	movl	%edx, -20(%rbp)
	movq	%rcx, -32(%rbp)
	movl	%r8d, %eax
	movb	%al, -24(%rbp)
	.loc 1 426 12
	movsbl	-24(%rbp), %ecx
	movl	-20(%rbp), %edx
	movq	-8(%rbp), %rax
	leaq	.LC27(%rip), %rsi
	movq	%rax, %rdi
	movl	$0, %eax
	call	fprintf@PLT
	.loc 1 427 25
	movl	-20(%rbp), %esi
	.loc 1 427 5
	movq	-16(%rbp), %rdi
	.loc 1 427 17
	movq	-32(%rbp), %rax
	movq	%rax, %rdx
	shrq	$3, %rdx
	addq	$2147450880, %rdx
	movzbl	(%rdx), %edx
	testb	%dl, %dl
	setne	%r8b
	movq	%rax, %rcx
	andl	$7, %ecx
	addl	$3, %ecx
	cmpb	%dl, %cl
	setge	%dl
	andl	%r8d, %edx
	testb	%dl, %dl
	je	.L258
	movq	%rax, %rdi
	call	__asan_report_load4@PLT
.L258:
	movq	-32(%rbp), %rax
	movl	(%rax), %eax
	.loc 1 427 21
	leal	1(%rax), %ecx
	movq	-32(%rbp), %rdx
	movl	%ecx, (%rdx)
	cltq
	.loc 1 427 23
	salq	$2, %rax
	leaq	(%rdi,%rax), %rcx
	.loc 1 427 25
	movq	%rcx, %rax
	movq	%rax, %rdx
	shrq	$3, %rdx
	addq	$2147450880, %rdx
	movzbl	(%rdx), %edx
	testb	%dl, %dl
	setne	%r8b
	movq	%rax, %rdi
	andl	$7, %edi
	addl	$3, %edi
	cmpb	%dl, %dil
	setge	%dl
	andl	%r8d, %edx
	testb	%dl, %dl
	je	.L259
	movq	%rax, %rdi
	call	__asan_report_store4@PLT
.L259:
	movl	%esi, (%rcx)
	.loc 1 428 1
	nop
	leave
	.cfi_def_cfa 7, 8
	ret
	.cfi_endproc
.LFE967:
	.size	_Z14write_to_filesP8_IO_FILEPiiS1_c, .-_Z14write_to_filesP8_IO_FILEPiiS1_c
	.globl	__asan_stack_malloc_3
	.section	.rodata
	.align 8
.LC58:
	.string	"4 32 4 9 shift:432 48 4 13 tmp_value:434 64 8 12 tmp_pair:435 96 256 11 tmp_str:433"
	.align 32
.LC59:
	.string	" %s%n"
	.zero	58
	.align 32
.LC60:
	.string	"rax"
	.zero	60
	.align 32
.LC61:
	.string	"rbx"
	.zero	60
	.align 32
.LC62:
	.string	"rcx"
	.zero	60
	.align 32
.LC63:
	.string	"rdx"
	.zero	60
	.align 32
.LC64:
	.string	"%d"
	.zero	61
	.align 32
.LC65:
	.string	"%s"
	.zero	61
	.text
	.globl	_Z7get_argPc
	.type	_Z7get_argPc, @function
_Z7get_argPc:
.LASANPC968:
.LFB968:
	.loc 1 431 1
	.cfi_startproc
	endbr64
	pushq	%rbp
	.cfi_def_cfa_offset 16
	.cfi_offset 6, -16
	movq	%rsp, %rbp
	.cfi_def_cfa_register 6
	pushq	%r15
	pushq	%r14
	pushq	%r13
	pushq	%r12
	pushq	%rbx
	subq	$472, %rsp
	.cfi_offset 15, -24
	.cfi_offset 14, -32
	.cfi_offset 13, -40
	.cfi_offset 12, -48
	.cfi_offset 3, -56
	movq	%rdi, -504(%rbp)
	leaq	-496(%rbp), %r13
	movq	%r13, %r15
	cmpl	$0, __asan_option_detect_stack_use_after_return(%rip)
	je	.L260
	movl	$416, %edi
	call	__asan_stack_malloc_3@PLT
	testq	%rax, %rax
	je	.L260
	movq	%rax, %r13
.L260:
	leaq	448(%r13), %rax
	movq	%rax, %rbx
	movq	$1102416563, 0(%r13)
	leaq	.LC58(%rip), %rax
	movq	%rax, 8(%r13)
	leaq	.LASANPC968(%rip), %rax
	movq	%rax, 16(%r13)
	movq	%r13, %r12
	shrq	$3, %r12
	movl	$-235802127, 2147450880(%r12)
	movl	$-234556924, 2147450884(%r12)
	movl	$-218959360, 2147450888(%r12)
	movl	$-202116109, 2147450924(%r12)
	movl	$-202116109, 2147450928(%r12)
	.loc 1 431 1
	movq	%fs:40, %rax
	movq	%rax, -56(%rbp)
	xorl	%eax, %eax
	.loc 1 432 9
	leaq	-416(%rbx), %rax
	movq	%rax, %rdx
	movq	%rdx, %rax
	shrq	$3, %rax
	addq	$2147450880, %rax
	movzbl	(%rax), %eax
	testb	%al, %al
	setne	%cl
	cmpb	$3, %al
	setle	%al
	andl	%ecx, %eax
	testb	%al, %al
	je	.L264
	movq	%rdx, %rdi
	call	__asan_report_store4@PLT
.L264:
	movl	$0, -416(%rbx)
	.loc 1 433 10
	leaq	-352(%rbx), %rax
	movq	%rax, %rdx
	shrq	$3, %rdx
	addq	$2147450880, %rdx
	movzbl	(%rdx), %edx
	testb	%dl, %dl
	setne	%cl
	testb	%dl, %dl
	setle	%dl
	movl	%ecx, %esi
	andl	%edx, %esi
	movl	$256, %edx
	subq	$1, %rdx
	leaq	(%rax,%rdx), %rcx
	movq	%rcx, %rdx
	shrq	$3, %rdx
	addq	$2147450880, %rdx
	movzbl	(%rdx), %edx
	testb	%dl, %dl
	setne	%dil
	andl	$7, %ecx
	cmpb	%dl, %cl
	setge	%dl
	andl	%edi, %edx
	orl	%esi, %edx
	testb	%dl, %dl
	je	.L265
	movl	$256, %esi
	movq	%rax, %rdi
	call	__asan_report_store_n@PLT
.L265:
	movq	$0, -352(%rbx)
	movq	$0, -344(%rbx)
	movq	$0, -336(%rbx)
	movq	$0, -328(%rbx)
	movq	$0, -320(%rbx)
	movq	$0, -312(%rbx)
	movq	$0, -304(%rbx)
	movq	$0, -296(%rbx)
	movq	$0, -288(%rbx)
	movq	$0, -280(%rbx)
	movq	$0, -272(%rbx)
	movq	$0, -264(%rbx)
	movq	$0, -256(%rbx)
	movq	$0, -248(%rbx)
	movq	$0, -240(%rbx)
	movq	$0, -232(%rbx)
	movq	$0, -224(%rbx)
	movq	$0, -216(%rbx)
	movq	$0, -208(%rbx)
	movq	$0, -200(%rbx)
	movq	$0, -192(%rbx)
	movq	$0, -184(%rbx)
	movq	$0, -176(%rbx)
	movq	$0, -168(%rbx)
	movq	$0, -160(%rbx)
	movq	$0, -152(%rbx)
	movq	$0, -144(%rbx)
	movq	$0, -136(%rbx)
	movq	$0, -128(%rbx)
	movq	$0, -120(%rbx)
	movq	$0, -112(%rbx)
	movq	$0, -104(%rbx)
	.loc 1 434 9
	leaq	-400(%rbx), %rax
	movq	%rax, %rdx
	movq	%rdx, %rax
	shrq	$3, %rax
	addq	$2147450880, %rax
	movzbl	(%rax), %eax
	testb	%al, %al
	setne	%cl
	cmpb	$3, %al
	setle	%al
	andl	%ecx, %eax
	testb	%al, %al
	je	.L266
	movq	%rdx, %rdi
	call	__asan_report_store4@PLT
.L266:
	movl	$0, -400(%rbx)
	.loc 1 435 10
	leaq	-384(%rbx), %rax
	movq	%rax, %rdx
	shrq	$3, %rdx
	addq	$2147450880, %rdx
	movzbl	(%rdx), %edx
	testb	%dl, %dl
	je	.L267
	movq	%rax, %rdi
	call	__asan_report_store8@PLT
.L267:
	movq	$0, -384(%rbx)
	.loc 1 437 11
	leaq	-416(%rbx), %rcx
	leaq	-352(%rbx), %rdx
	movq	-504(%rbp), %rax
	leaq	.LC59(%rip), %rsi
	movq	%rax, %rdi
	movl	$0, %eax
	call	__isoc99_sscanf@PLT
	.loc 1 439 22
	movq	-504(%rbp), %rax
	movq	%rax, %rdx
	shrq	$3, %rdx
	addq	$2147450880, %rdx
	movzbl	(%rdx), %edx
	testb	%dl, %dl
	setne	%cl
	movq	%rax, %rsi
	andl	$7, %esi
	cmpb	%dl, %sil
	setge	%dl
	andl	%ecx, %edx
	testb	%dl, %dl
	je	.L268
	movq	%rax, %rdi
	call	__asan_report_load1@PLT
.L268:
	movq	-504(%rbp), %rax
	movzbl	(%rax), %eax
	.loc 1 439 16
	movsbl	%al, %eax
	movl	%eax, %edi
	call	isalpha@PLT
	.loc 1 439 5
	testl	%eax, %eax
	je	.L269
	.loc 1 442 19
	leaq	-352(%rbx), %rax
	movq	%rax, %rsi
	leaq	.LC60(%rip), %rax
	movq	%rax, %rdi
	call	strcmp@PLT
	.loc 1 442 9
	testl	%eax, %eax
	jne	.L270
	.loc 1 444 27
	leaq	-384(%rbx), %rax
	movq	%rax, %rdx
	movq	%rdx, %rax
	shrq	$3, %rax
	addq	$2147450880, %rax
	movzbl	(%rax), %eax
	testb	%al, %al
	setne	%cl
	cmpb	$3, %al
	setle	%al
	andl	%ecx, %eax
	testb	%al, %al
	je	.L271
	movq	%rdx, %rdi
	call	__asan_report_load4@PLT
.L271:
	movl	-384(%rbx), %eax
	orb	$-128, %al
	movl	%eax, -384(%rbx)
	.loc 1 445 28
	leaq	-384(%rbx), %rax
	addq	$4, %rax
	movq	%rax, %rdx
	shrq	$3, %rdx
	addq	$2147450880, %rdx
	movzbl	(%rdx), %edx
	testb	%dl, %dl
	setne	%sil
	movq	%rax, %rcx
	andl	$7, %ecx
	addl	$3, %ecx
	cmpb	%dl, %cl
	setge	%dl
	andl	%esi, %edx
	testb	%dl, %dl
	je	.L272
	movq	%rax, %rdi
	call	__asan_report_store4@PLT
.L272:
	movl	$1, -380(%rbx)
	jmp	.L269
.L270:
	.loc 1 448 24
	leaq	-352(%rbx), %rax
	movq	%rax, %rsi
	leaq	.LC61(%rip), %rax
	movq	%rax, %rdi
	call	strcmp@PLT
	.loc 1 448 14
	testl	%eax, %eax
	jne	.L273
	.loc 1 450 27
	leaq	-384(%rbx), %rax
	movq	%rax, %rdx
	movq	%rdx, %rax
	shrq	$3, %rax
	addq	$2147450880, %rax
	movzbl	(%rax), %eax
	testb	%al, %al
	setne	%cl
	cmpb	$3, %al
	setle	%al
	andl	%ecx, %eax
	testb	%al, %al
	je	.L274
	movq	%rdx, %rdi
	call	__asan_report_load4@PLT
.L274:
	movl	-384(%rbx), %eax
	orb	$-128, %al
	movl	%eax, -384(%rbx)
	.loc 1 451 28
	leaq	-384(%rbx), %rax
	addq	$4, %rax
	movq	%rax, %rdx
	shrq	$3, %rdx
	addq	$2147450880, %rdx
	movzbl	(%rdx), %edx
	testb	%dl, %dl
	setne	%sil
	movq	%rax, %rcx
	andl	$7, %ecx
	addl	$3, %ecx
	cmpb	%dl, %cl
	setge	%dl
	andl	%esi, %edx
	testb	%dl, %dl
	je	.L275
	movq	%rax, %rdi
	call	__asan_report_store4@PLT
.L275:
	movl	$2, -380(%rbx)
	jmp	.L269
.L273:
	.loc 1 454 24
	leaq	-352(%rbx), %rax
	movq	%rax, %rsi
	leaq	.LC62(%rip), %rax
	movq	%rax, %rdi
	call	strcmp@PLT
	.loc 1 454 14
	testl	%eax, %eax
	jne	.L276
	.loc 1 456 27
	leaq	-384(%rbx), %rax
	movq	%rax, %rdx
	movq	%rdx, %rax
	shrq	$3, %rax
	addq	$2147450880, %rax
	movzbl	(%rax), %eax
	testb	%al, %al
	setne	%cl
	cmpb	$3, %al
	setle	%al
	andl	%ecx, %eax
	testb	%al, %al
	je	.L277
	movq	%rdx, %rdi
	call	__asan_report_load4@PLT
.L277:
	movl	-384(%rbx), %eax
	orb	$-128, %al
	movl	%eax, -384(%rbx)
	.loc 1 457 28
	leaq	-384(%rbx), %rax
	addq	$4, %rax
	movq	%rax, %rdx
	shrq	$3, %rdx
	addq	$2147450880, %rdx
	movzbl	(%rdx), %edx
	testb	%dl, %dl
	setne	%sil
	movq	%rax, %rcx
	andl	$7, %ecx
	addl	$3, %ecx
	cmpb	%dl, %cl
	setge	%dl
	andl	%esi, %edx
	testb	%dl, %dl
	je	.L278
	movq	%rax, %rdi
	call	__asan_report_store4@PLT
.L278:
	movl	$3, -380(%rbx)
	jmp	.L269
.L276:
	.loc 1 460 24
	leaq	-352(%rbx), %rax
	movq	%rax, %rsi
	leaq	.LC63(%rip), %rax
	movq	%rax, %rdi
	call	strcmp@PLT
	.loc 1 460 14
	testl	%eax, %eax
	jne	.L269
	.loc 1 462 27
	leaq	-384(%rbx), %rax
	movq	%rax, %rdx
	movq	%rdx, %rax
	shrq	$3, %rax
	addq	$2147450880, %rax
	movzbl	(%rax), %eax
	testb	%al, %al
	setne	%cl
	cmpb	$3, %al
	setle	%al
	andl	%ecx, %eax
	testb	%al, %al
	je	.L279
	movq	%rdx, %rdi
	call	__asan_report_load4@PLT
.L279:
	movl	-384(%rbx), %eax
	orb	$-128, %al
	movl	%eax, -384(%rbx)
	.loc 1 463 28
	leaq	-384(%rbx), %rax
	addq	$4, %rax
	movq	%rax, %rdx
	shrq	$3, %rdx
	addq	$2147450880, %rdx
	movzbl	(%rdx), %edx
	testb	%dl, %dl
	setne	%sil
	movq	%rax, %rcx
	andl	$7, %ecx
	addl	$3, %ecx
	cmpb	%dl, %cl
	setge	%dl
	andl	%esi, %edx
	testb	%dl, %dl
	je	.L280
	movq	%rax, %rdi
	call	__asan_report_store4@PLT
.L280:
	movl	$4, -380(%rbx)
.L269:
	.loc 1 467 15
	leaq	-384(%rbx), %rax
	leaq	4(%rax), %rdx
	movq	-504(%rbp), %rax
	leaq	.LC64(%rip), %rcx
	movq	%rcx, %rsi
	movq	%rax, %rdi
	movl	$0, %eax
	call	__isoc99_sscanf@PLT
	testl	%eax, %eax
	setne	%al
	.loc 1 467 5
	testb	%al, %al
	je	.L281
	.loc 1 469 23
	leaq	-384(%rbx), %rax
	movq	%rax, %rdx
	movq	%rdx, %rax
	shrq	$3, %rax
	addq	$2147450880, %rax
	movzbl	(%rax), %eax
	testb	%al, %al
	setne	%cl
	cmpb	$3, %al
	setle	%al
	andl	%ecx, %eax
	testb	%al, %al
	je	.L282
	movq	%rdx, %rdi
	call	__asan_report_load4@PLT
.L282:
	movl	-384(%rbx), %eax
	orl	$64, %eax
	movl	%eax, -384(%rbx)
.L281:
	.loc 1 472 16
	movq	-504(%rbp), %rax
	movl	$91, %esi
	movq	%rax, %rdi
	call	strchr@PLT
	.loc 1 472 5
	testq	%rax, %rax
	je	.L283
	.loc 1 472 45 discriminator 1
	movq	-504(%rbp), %rax
	movl	$93, %esi
	movq	%rax, %rdi
	call	strchr@PLT
	.loc 1 472 35 discriminator 1
	testq	%rax, %rax
	je	.L283
	.loc 1 472 75 discriminator 2
	movq	-504(%rbp), %rax
	movl	$91, %esi
	movq	%rax, %rdi
	call	strchr@PLT
	movq	%rax, %r14
	.loc 1 472 94 discriminator 2
	movq	-504(%rbp), %rax
	movl	$93, %esi
	movq	%rax, %rdi
	call	strchr@PLT
	.loc 1 472 65 discriminator 2
	cmpq	%rax, %r14
	jnb	.L283
	.loc 1 474 23
	leaq	-384(%rbx), %rax
	movq	%rax, %rdx
	movq	%rdx, %rax
	shrq	$3, %rax
	addq	$2147450880, %rax
	movzbl	(%rax), %eax
	testb	%al, %al
	setne	%cl
	cmpb	$3, %al
	setle	%al
	andl	%ecx, %eax
	testb	%al, %al
	je	.L284
	movq	%rdx, %rdi
	call	__asan_report_load4@PLT
.L284:
	movl	-384(%rbx), %eax
	orb	$1, %ah
	movl	%eax, -384(%rbx)
	.loc 1 475 26
	movq	-504(%rbp), %rax
	movl	$91, %esi
	movq	%rax, %rdi
	call	strchr@PLT
	.loc 1 475 37
	leaq	1(%rax), %rcx
	.loc 1 475 19
	leaq	-400(%rbx), %rax
	movq	%rax, %rdx
	leaq	.LC64(%rip), %rax
	movq	%rax, %rsi
	movq	%rcx, %rdi
	movl	$0, %eax
	call	__isoc99_sscanf@PLT
	.loc 1 475 60
	cmpl	$1, %eax
	sete	%al
	.loc 1 475 9
	testb	%al, %al
	je	.L285
	.loc 1 477 28
	leaq	-400(%rbx), %rax
	movq	%rax, %rdx
	movq	%rdx, %rax
	shrq	$3, %rax
	addq	$2147450880, %rax
	movzbl	(%rax), %eax
	testb	%al, %al
	setne	%cl
	cmpb	$3, %al
	setle	%al
	andl	%ecx, %eax
	testb	%al, %al
	je	.L286
	movq	%rdx, %rdi
	call	__asan_report_load4@PLT
.L286:
	movl	-400(%rbx), %ecx
	leaq	-384(%rbx), %rax
	addq	$4, %rax
	movq	%rax, %rdx
	shrq	$3, %rdx
	addq	$2147450880, %rdx
	movzbl	(%rdx), %edx
	testb	%dl, %dl
	setne	%dil
	movq	%rax, %rsi
	andl	$7, %esi
	addl	$3, %esi
	cmpb	%dl, %sil
	setge	%dl
	andl	%edi, %edx
	testb	%dl, %dl
	je	.L287
	movq	%rax, %rdi
	call	__asan_report_store4@PLT
.L287:
	movl	%ecx, -380(%rbx)
	jmp	.L283
.L285:
	.loc 1 480 31
	movq	-504(%rbp), %rax
	movl	$91, %esi
	movq	%rax, %rdi
	call	strchr@PLT
	.loc 1 480 42
	leaq	1(%rax), %rcx
	.loc 1 480 24
	leaq	-352(%rbx), %rax
	movq	%rax, %rdx
	leaq	.LC65(%rip), %rax
	movq	%rax, %rsi
	movq	%rcx, %rdi
	movl	$0, %eax
	call	__isoc99_sscanf@PLT
	testl	%eax, %eax
	setne	%al
	.loc 1 480 14
	testb	%al, %al
	je	.L283
	.loc 1 482 24
	leaq	-352(%rbx), %rax
	addq	$3, %rax
	movq	%rax, %rdx
	shrq	$3, %rdx
	addq	$2147450880, %rdx
	movzbl	(%rdx), %edx
	testb	%dl, %dl
	setne	%cl
	movq	%rax, %rsi
	andl	$7, %esi
	cmpb	%dl, %sil
	setge	%dl
	andl	%ecx, %edx
	testb	%dl, %dl
	je	.L288
	movq	%rax, %rdi
	call	__asan_report_store1@PLT
.L288:
	movb	$0, -349(%rbx)
	.loc 1 484 23
	leaq	-352(%rbx), %rax
	movq	%rax, %rsi
	leaq	.LC60(%rip), %rax
	movq	%rax, %rdi
	call	strcmp@PLT
	.loc 1 484 13
	testl	%eax, %eax
	jne	.L289
	.loc 1 486 31
	leaq	-384(%rbx), %rax
	movq	%rax, %rdx
	movq	%rdx, %rax
	shrq	$3, %rax
	addq	$2147450880, %rax
	movzbl	(%rax), %eax
	testb	%al, %al
	setne	%cl
	cmpb	$3, %al
	setle	%al
	andl	%ecx, %eax
	testb	%al, %al
	je	.L290
	movq	%rdx, %rdi
	call	__asan_report_load4@PLT
.L290:
	movl	-384(%rbx), %eax
	orb	$-128, %al
	movl	%eax, -384(%rbx)
	.loc 1 487 32
	leaq	-384(%rbx), %rax
	addq	$4, %rax
	movq	%rax, %rdx
	shrq	$3, %rdx
	addq	$2147450880, %rdx
	movzbl	(%rdx), %edx
	testb	%dl, %dl
	setne	%sil
	movq	%rax, %rcx
	andl	$7, %ecx
	addl	$3, %ecx
	cmpb	%dl, %cl
	setge	%dl
	andl	%esi, %edx
	testb	%dl, %dl
	je	.L291
	movq	%rax, %rdi
	call	__asan_report_store4@PLT
.L291:
	movl	$1, -380(%rbx)
	jmp	.L283
.L289:
	.loc 1 490 28
	leaq	-352(%rbx), %rax
	movq	%rax, %rsi
	leaq	.LC61(%rip), %rax
	movq	%rax, %rdi
	call	strcmp@PLT
	.loc 1 490 18
	testl	%eax, %eax
	jne	.L292
	.loc 1 492 31
	leaq	-384(%rbx), %rax
	movq	%rax, %rdx
	movq	%rdx, %rax
	shrq	$3, %rax
	addq	$2147450880, %rax
	movzbl	(%rax), %eax
	testb	%al, %al
	setne	%cl
	cmpb	$3, %al
	setle	%al
	andl	%ecx, %eax
	testb	%al, %al
	je	.L293
	movq	%rdx, %rdi
	call	__asan_report_load4@PLT
.L293:
	movl	-384(%rbx), %eax
	orb	$-128, %al
	movl	%eax, -384(%rbx)
	.loc 1 493 32
	leaq	-384(%rbx), %rax
	addq	$4, %rax
	movq	%rax, %rdx
	shrq	$3, %rdx
	addq	$2147450880, %rdx
	movzbl	(%rdx), %edx
	testb	%dl, %dl
	setne	%sil
	movq	%rax, %rcx
	andl	$7, %ecx
	addl	$3, %ecx
	cmpb	%dl, %cl
	setge	%dl
	andl	%esi, %edx
	testb	%dl, %dl
	je	.L294
	movq	%rax, %rdi
	call	__asan_report_store4@PLT
.L294:
	movl	$2, -380(%rbx)
	jmp	.L283
.L292:
	.loc 1 496 28
	leaq	-352(%rbx), %rax
	movq	%rax, %rsi
	leaq	.LC62(%rip), %rax
	movq	%rax, %rdi
	call	strcmp@PLT
	.loc 1 496 18
	testl	%eax, %eax
	jne	.L295
	.loc 1 498 31
	leaq	-384(%rbx), %rax
	movq	%rax, %rdx
	movq	%rdx, %rax
	shrq	$3, %rax
	addq	$2147450880, %rax
	movzbl	(%rax), %eax
	testb	%al, %al
	setne	%cl
	cmpb	$3, %al
	setle	%al
	andl	%ecx, %eax
	testb	%al, %al
	je	.L296
	movq	%rdx, %rdi
	call	__asan_report_load4@PLT
.L296:
	movl	-384(%rbx), %eax
	orb	$-128, %al
	movl	%eax, -384(%rbx)
	.loc 1 499 32
	leaq	-384(%rbx), %rax
	addq	$4, %rax
	movq	%rax, %rdx
	shrq	$3, %rdx
	addq	$2147450880, %rdx
	movzbl	(%rdx), %edx
	testb	%dl, %dl
	setne	%sil
	movq	%rax, %rcx
	andl	$7, %ecx
	addl	$3, %ecx
	cmpb	%dl, %cl
	setge	%dl
	andl	%esi, %edx
	testb	%dl, %dl
	je	.L297
	movq	%rax, %rdi
	call	__asan_report_store4@PLT
.L297:
	movl	$3, -380(%rbx)
	jmp	.L283
.L295:
	.loc 1 502 28
	leaq	-352(%rbx), %rax
	movq	%rax, %rsi
	leaq	.LC63(%rip), %rax
	movq	%rax, %rdi
	call	strcmp@PLT
	.loc 1 502 18
	testl	%eax, %eax
	jne	.L283
	.loc 1 504 31
	leaq	-384(%rbx), %rax
	movq	%rax, %rdx
	movq	%rdx, %rax
	shrq	$3, %rax
	addq	$2147450880, %rax
	movzbl	(%rax), %eax
	testb	%al, %al
	setne	%cl
	cmpb	$3, %al
	setle	%al
	andl	%ecx, %eax
	testb	%al, %al
	je	.L298
	movq	%rdx, %rdi
	call	__asan_report_load4@PLT
.L298:
	movl	-384(%rbx), %eax
	orb	$-128, %al
	movl	%eax, -384(%rbx)
	.loc 1 505 32
	leaq	-384(%rbx), %rax
	addq	$4, %rax
	movq	%rax, %rdx
	shrq	$3, %rdx
	addq	$2147450880, %rdx
	movzbl	(%rdx), %edx
	testb	%dl, %dl
	setne	%sil
	movq	%rax, %rcx
	andl	$7, %ecx
	addl	$3, %ecx
	cmpb	%dl, %cl
	setge	%dl
	andl	%esi, %edx
	testb	%dl, %dl
	je	.L299
	movq	%rax, %rdi
	call	__asan_report_store4@PLT
.L299:
	movl	$4, -380(%rbx)
.L283:
	.loc 1 510 12
	leaq	-384(%rbx), %rax
	movq	%rax, %rdx
	shrq	$3, %rdx
	addq	$2147450880, %rdx
	movzbl	(%rdx), %edx
	testb	%dl, %dl
	je	.L300
	movq	%rax, %rdi
	call	__asan_report_load8@PLT
.L300:
	movq	-384(%rbx), %rax
	movq	%rax, %rdx
	.loc 1 431 1
	cmpq	%r13, %r15
	je	.L261
	movq	$1172321806, 0(%r13)
	movabsq	$-723401728380766731, %rsi
	movabsq	$-723401728380766731, %rdi
	movq	%rsi, 2147450880(%r12)
	movq	%rdi, 2147450888(%r12)
	movq	%rsi, 2147450896(%r12)
	movq	%rdi, 2147450904(%r12)
	movq	%rsi, 2147450912(%r12)
	movq	%rdi, 2147450920(%r12)
	movl	$-168430091, 2147450928(%r12)
	movq	504(%r13), %rax
	movb	$0, (%rax)
	jmp	.L262
.L261:
	movq	$0, 2147450880(%r12)
	movl	$0, 2147450888(%r12)
	movq	$0, 2147450924(%r12)
.L262:
	.loc 1 511 1
	movq	-56(%rbp), %rax
	subq	%fs:40, %rax
	je	.L302
	call	__stack_chk_fail@PLT
.L302:
	movq	%rdx, %rax
	addq	$472, %rsp
	popq	%rbx
	popq	%r12
	popq	%r13
	popq	%r14
	popq	%r15
	popq	%rbp
	.cfi_def_cfa 7, 8
	ret
	.cfi_endproc
.LFE968:
	.size	_Z7get_argPc, .-_Z7get_argPc
	.globl	_Z15find_label_namePc
	.type	_Z15find_label_namePc, @function
_Z15find_label_namePc:
.LASANPC969:
.LFB969:
	.loc 1 514 1
	.cfi_startproc
	endbr64
	pushq	%rbp
	.cfi_def_cfa_offset 16
	.cfi_offset 6, -16
	movq	%rsp, %rbp
	.cfi_def_cfa_register 6
	subq	$48, %rsp
	movq	%rdi, -40(%rbp)
	.loc 1 515 9
	movl	$0, -20(%rbp)
	.loc 1 516 40
	movq	-40(%rbp), %rax
	movl	$58, %esi
	movq	%rax, %rdi
	call	strchr@PLT
	movq	%rax, -16(%rbp)
	.loc 1 517 11
	movq	-40(%rbp), %rax
	movq	%rax, -8(%rbp)
	.loc 1 519 5
	jmp	.L304
.L306:
	.loc 1 520 14
	addl	$1, -20(%rbp)
.L304:
	.loc 1 519 24
	movl	-20(%rbp), %eax
	movslq	%eax, %rdx
	.loc 1 519 29
	movq	-40(%rbp), %rax
	leaq	(%rdx,%rax), %rcx
	movq	%rcx, %rax
	movq	%rax, %rdx
	shrq	$3, %rdx
	addq	$2147450880, %rdx
	movzbl	(%rdx), %edx
	testb	%dl, %dl
	setne	%sil
	movq	%rax, %rdi
	andl	$7, %edi
	cmpb	%dl, %dil
	setge	%dl
	andl	%esi, %edx
	testb	%dl, %dl
	je	.L305
	movq	%rax, %rdi
	call	__asan_report_load1@PLT
.L305:
	movzbl	(%rcx), %eax
	.loc 1 519 19
	movsbl	%al, %eax
	movl	%eax, %edi
	call	isspace@PLT
	.loc 1 519 32
	cmpl	$1, %eax
	je	.L306
	.loc 1 522 18
	movl	-20(%rbp), %eax
	cltq
	.loc 1 522 15
	addq	%rax, -8(%rbp)
	.loc 1 524 5
	movq	-8(%rbp), %rax
	cmpq	-16(%rbp), %rax
	jnb	.L307
	.loc 1 524 53 discriminator 1
	movq	-8(%rbp), %rax
	movl	$32, %esi
	movq	%rax, %rdi
	call	strchr@PLT
	.loc 1 524 42 discriminator 1
	testq	%rax, %rax
	je	.L308
	.loc 1 524 109 discriminator 2
	movq	-8(%rbp), %rax
	movl	$32, %esi
	movq	%rax, %rdi
	call	strchr@PLT
	.loc 1 524 76 discriminator 2
	cmpq	%rax, -16(%rbp)
	jnb	.L307
.L308:
	.loc 1 526 20
	movq	-8(%rbp), %rax
	jmp	.L309
.L307:
	.loc 1 531 16
	leaq	.LC2(%rip), %rax
.L309:
	.loc 1 534 1
	leave
	.cfi_def_cfa 7, 8
	ret
	.cfi_endproc
.LFE969:
	.size	_Z15find_label_namePc, .-_Z15find_label_namePc
	.globl	_Z12find_addressPcP8ass_info
	.type	_Z12find_addressPcP8ass_info, @function
_Z12find_addressPcP8ass_info:
.LASANPC970:
.LFB970:
	.loc 1 537 1
	.cfi_startproc
	endbr64
	pushq	%rbp
	.cfi_def_cfa_offset 16
	.cfi_offset 6, -16
	movq	%rsp, %rbp
	.cfi_def_cfa_register 6
	subq	$32, %rsp
	movq	%rdi, -24(%rbp)
	movq	%rsi, -32(%rbp)
	.loc 1 538 9
	movl	$0, -4(%rbp)
	.loc 1 540 5
	jmp	.L311
.L314:
	.loc 1 542 63
	movl	-4(%rbp), %eax
	movslq	%eax, %rdx
	movq	%rdx, %rax
	salq	$5, %rax
	addq	%rdx, %rax
	salq	$2, %rax
	leaq	16(%rax), %rdx
	movq	-32(%rbp), %rax
	addq	%rdx, %rax
	leaq	8(%rax), %rdx
	.loc 1 542 19
	movq	-24(%rbp), %rax
	movq	%rdx, %rsi
	movq	%rax, %rdi
	call	strcmp@PLT
	.loc 1 542 9
	testl	%eax, %eax
	je	.L317
	.loc 1 544 16
	addl	$1, -4(%rbp)
.L311:
	.loc 1 540 19
	cmpl	$99, -4(%rbp)
	jle	.L314
	jmp	.L313
.L317:
	.loc 1 543 13
	nop
.L313:
	.loc 1 547 5
	cmpl	$100, -4(%rbp)
	jne	.L315
	.loc 1 549 17
	movl	$-1, %eax
	jmp	.L316
.L315:
	.loc 1 552 16
	movl	-4(%rbp), %eax
.L316:
	.loc 1 553 1
	leave
	.cfi_def_cfa 7, 8
	ret
	.cfi_endproc
.LFE970:
	.size	_Z12find_addressPcP8ass_info, .-_Z12find_addressPcP8ass_info
	.section	.rodata
	.align 32
.LC66:
	.string	"codes.txt"
	.zero	54
	.text
	.globl	_Z18name_of_input_fileiPKc
	.type	_Z18name_of_input_fileiPKc, @function
_Z18name_of_input_fileiPKc:
.LASANPC971:
.LFB971:
	.loc 1 556 1
	.cfi_startproc
	endbr64
	pushq	%rbp
	.cfi_def_cfa_offset 16
	.cfi_offset 6, -16
	movq	%rsp, %rbp
	.cfi_def_cfa_register 6
	movl	%edi, -4(%rbp)
	movq	%rsi, -16(%rbp)
	.loc 1 557 5
	cmpl	$1, -4(%rbp)
	jle	.L319
	.loc 1 558 16
	movq	-16(%rbp), %rax
	jmp	.L320
.L319:
	.loc 1 560 16
	leaq	.LC66(%rip), %rax
.L320:
	.loc 1 561 1
	popq	%rbp
	.cfi_def_cfa 7, 8
	ret
	.cfi_endproc
.LFE971:
	.size	_Z18name_of_input_fileiPKc, .-_Z18name_of_input_fileiPKc
	.section	.rodata
.LC67:
	.string	"src/../include/asm.h"
	.section	.data.rel.local,"aw"
	.align 16
	.type	.LASANLOC1, @object
	.size	.LASANLOC1, 16
.LASANLOC1:
	.quad	.LC67
	.long	84
	.long	11
	.align 16
	.type	.LASANLOC2, @object
	.size	.LASANLOC2, 16
.LASANLOC2:
	.quad	.LC67
	.long	25
	.long	11
	.align 16
	.type	.LASANLOC3, @object
	.size	.LASANLOC3, 16
.LASANLOC3:
	.quad	.LC67
	.long	23
	.long	11
	.section	.rodata
.LC68:
	.string	"MASK_CMD"
.LC69:
	.string	"SIZE_OF_LABELS_ARR"
.LC70:
	.string	"ACCURACY"
.LC71:
	.string	"*.LC10"
.LC72:
	.string	"*.LC16"
.LC73:
	.string	"*.LC14"
.LC74:
	.string	"*.LC2"
.LC75:
	.string	"*.LC12"
.LC76:
	.string	"*.LC55"
.LC77:
	.string	"*.LC49"
.LC78:
	.string	"*.LC1"
.LC79:
	.string	"*.LC35"
.LC80:
	.string	"*.LC21"
.LC81:
	.string	"*.LC57"
.LC82:
	.string	"*.LC4"
.LC83:
	.string	"*.LC53"
.LC84:
	.string	"*.LC38"
.LC85:
	.string	"*.LC50"
.LC86:
	.string	"*.LC9"
.LC87:
	.string	"*.LC60"
.LC88:
	.string	"*.LC65"
.LC89:
	.string	"*.LC34"
.LC90:
	.string	"*.LC61"
.LC91:
	.string	"*.LC13"
.LC92:
	.string	"*.LC11"
.LC93:
	.string	"*.LC56"
.LC94:
	.string	"*.LC51"
.LC95:
	.string	"*.LC19"
.LC96:
	.string	"*.LC25"
.LC97:
	.string	"*.LC40"
.LC98:
	.string	"*.LC29"
.LC99:
	.string	"*.LC62"
.LC100:
	.string	"*.LC44"
.LC101:
	.string	"*.LC32"
.LC102:
	.string	"*.LC5"
.LC103:
	.string	"*.LC7"
.LC104:
	.string	"*.LC20"
.LC105:
	.string	"*.LC43"
.LC106:
	.string	"*.LC63"
.LC107:
	.string	"*.LC3"
.LC108:
	.string	"*.LC64"
.LC109:
	.string	"*.LC31"
.LC110:
	.string	"*.LC39"
.LC111:
	.string	"*.LC42"
.LC112:
	.string	"*.LC45"
.LC113:
	.string	"*.LC48"
.LC114:
	.string	"*.LC33"
.LC115:
	.string	"*.LC37"
.LC116:
	.string	"*.LC23"
.LC117:
	.string	"*.LC17"
.LC118:
	.string	"*.LC47"
.LC119:
	.string	"*.LC8"
.LC120:
	.string	"*.LC27"
.LC121:
	.string	"*.LC36"
.LC122:
	.string	"*.LC22"
.LC123:
	.string	"*.LC41"
.LC124:
	.string	"*.LC24"
.LC125:
	.string	"*.LC59"
.LC126:
	.string	"*.LC18"
.LC127:
	.string	"*.LC28"
.LC128:
	.string	"*.LC6"
.LC129:
	.string	"*.LC15"
.LC130:
	.string	"*.LC66"
.LC131:
	.string	"*.LC54"
.LC132:
	.string	"*.LC52"
	.section	.data.rel.local
	.align 32
	.type	.LASAN0, @object
	.size	.LASAN0, 4160
.LASAN0:
	.quad	_ZL8MASK_CMD
	.quad	4
	.quad	64
	.quad	.LC68
	.quad	.LC32
	.quad	0
	.quad	.LASANLOC1
	.quad	0
	.quad	_ZL18SIZE_OF_LABELS_ARR
	.quad	4
	.quad	64
	.quad	.LC69
	.quad	.LC32
	.quad	0
	.quad	.LASANLOC2
	.quad	0
	.quad	_ZL8ACCURACY
	.quad	4
	.quad	64
	.quad	.LC70
	.quad	.LC32
	.quad	0
	.quad	.LASANLOC3
	.quad	0
	.quad	.LC10
	.quad	4
	.quad	64
	.quad	.LC71
	.quad	.LC32
	.quad	0
	.quad	0
	.quad	0
	.quad	.LC16
	.quad	4
	.quad	64
	.quad	.LC72
	.quad	.LC32
	.quad	0
	.quad	0
	.quad	0
	.quad	.LC14
	.quad	3
	.quad	64
	.quad	.LC73
	.quad	.LC32
	.quad	0
	.quad	0
	.quad	0
	.quad	.LC2
	.quad	6
	.quad	64
	.quad	.LC74
	.quad	.LC32
	.quad	0
	.quad	0
	.quad	0
	.quad	.LC12
	.quad	4
	.quad	64
	.quad	.LC75
	.quad	.LC32
	.quad	0
	.quad	0
	.quad	0
	.quad	.LC55
	.quad	15
	.quad	64
	.quad	.LC76
	.quad	.LC32
	.quad	0
	.quad	0
	.quad	0
	.quad	.LC49
	.quad	19
	.quad	64
	.quad	.LC77
	.quad	.LC32
	.quad	0
	.quad	0
	.quad	0
	.quad	.LC1
	.quad	5
	.quad	64
	.quad	.LC78
	.quad	.LC32
	.quad	0
	.quad	0
	.quad	0
	.quad	.LC35
	.quad	27
	.quad	64
	.quad	.LC79
	.quad	.LC32
	.quad	0
	.quad	0
	.quad	0
	.quad	.LC21
	.quad	4
	.quad	64
	.quad	.LC80
	.quad	.LC32
	.quad	0
	.quad	0
	.quad	0
	.quad	.LC57
	.quad	50
	.quad	96
	.quad	.LC81
	.quad	.LC32
	.quad	0
	.quad	0
	.quad	0
	.quad	.LC4
	.quad	4
	.quad	64
	.quad	.LC82
	.quad	.LC32
	.quad	0
	.quad	0
	.quad	0
	.quad	.LC53
	.quad	4
	.quad	64
	.quad	.LC83
	.quad	.LC32
	.quad	0
	.quad	0
	.quad	0
	.quad	.LC38
	.quad	17
	.quad	64
	.quad	.LC84
	.quad	.LC32
	.quad	0
	.quad	0
	.quad	0
	.quad	.LC50
	.quad	23
	.quad	64
	.quad	.LC85
	.quad	.LC32
	.quad	0
	.quad	0
	.quad	0
	.quad	.LC9
	.quad	4
	.quad	64
	.quad	.LC86
	.quad	.LC32
	.quad	0
	.quad	0
	.quad	0
	.quad	.LC60
	.quad	4
	.quad	64
	.quad	.LC87
	.quad	.LC32
	.quad	0
	.quad	0
	.quad	0
	.quad	.LC65
	.quad	3
	.quad	64
	.quad	.LC88
	.quad	.LC32
	.quad	0
	.quad	0
	.quad	0
	.quad	.LC34
	.quad	21
	.quad	64
	.quad	.LC89
	.quad	.LC32
	.quad	0
	.quad	0
	.quad	0
	.quad	.LC61
	.quad	4
	.quad	64
	.quad	.LC90
	.quad	.LC32
	.quad	0
	.quad	0
	.quad	0
	.quad	.LC13
	.quad	5
	.quad	64
	.quad	.LC91
	.quad	.LC32
	.quad	0
	.quad	0
	.quad	0
	.quad	.LC11
	.quad	4
	.quad	64
	.quad	.LC92
	.quad	.LC32
	.quad	0
	.quad	0
	.quad	0
	.quad	.LC56
	.quad	20
	.quad	64
	.quad	.LC93
	.quad	.LC32
	.quad	0
	.quad	0
	.quad	0
	.quad	.LC51
	.quad	15
	.quad	64
	.quad	.LC94
	.quad	.LC32
	.quad	0
	.quad	0
	.quad	0
	.quad	.LC19
	.quad	4
	.quad	64
	.quad	.LC95
	.quad	.LC32
	.quad	0
	.quad	0
	.quad	0
	.quad	.LC25
	.quad	30
	.quad	64
	.quad	.LC96
	.quad	.LC32
	.quad	0
	.quad	0
	.quad	0
	.quad	.LC40
	.quad	31
	.quad	64
	.quad	.LC97
	.quad	.LC32
	.quad	0
	.quad	0
	.quad	0
	.quad	.LC29
	.quad	5
	.quad	64
	.quad	.LC98
	.quad	.LC32
	.quad	0
	.quad	0
	.quad	0
	.quad	.LC62
	.quad	4
	.quad	64
	.quad	.LC99
	.quad	.LC32
	.quad	0
	.quad	0
	.quad	0
	.quad	.LC44
	.quad	37
	.quad	96
	.quad	.LC100
	.quad	.LC32
	.quad	0
	.quad	0
	.quad	0
	.quad	.LC32
	.quad	18
	.quad	64
	.quad	.LC101
	.quad	.LC32
	.quad	0
	.quad	0
	.quad	0
	.quad	.LC5
	.quad	5
	.quad	64
	.quad	.LC102
	.quad	.LC32
	.quad	0
	.quad	0
	.quad	0
	.quad	.LC7
	.quad	4
	.quad	64
	.quad	.LC103
	.quad	.LC32
	.quad	0
	.quad	0
	.quad	0
	.quad	.LC20
	.quad	4
	.quad	64
	.quad	.LC104
	.quad	.LC32
	.quad	0
	.quad	0
	.quad	0
	.quad	.LC43
	.quad	39
	.quad	96
	.quad	.LC105
	.quad	.LC32
	.quad	0
	.quad	0
	.quad	0
	.quad	.LC63
	.quad	4
	.quad	64
	.quad	.LC106
	.quad	.LC32
	.quad	0
	.quad	0
	.quad	0
	.quad	.LC3
	.quad	13
	.quad	64
	.quad	.LC107
	.quad	.LC32
	.quad	0
	.quad	0
	.quad	0
	.quad	.LC64
	.quad	3
	.quad	64
	.quad	.LC108
	.quad	.LC32
	.quad	0
	.quad	0
	.quad	0
	.quad	.LC31
	.quad	46
	.quad	96
	.quad	.LC109
	.quad	.LC32
	.quad	0
	.quad	0
	.quad	0
	.quad	.LC39
	.quad	18
	.quad	64
	.quad	.LC110
	.quad	.LC32
	.quad	0
	.quad	0
	.quad	0
	.quad	.LC42
	.quad	15
	.quad	64
	.quad	.LC111
	.quad	.LC32
	.quad	0
	.quad	0
	.quad	0
	.quad	.LC45
	.quad	28
	.quad	64
	.quad	.LC112
	.quad	.LC32
	.quad	0
	.quad	0
	.quad	0
	.quad	.LC48
	.quad	18
	.quad	64
	.quad	.LC113
	.quad	.LC32
	.quad	0
	.quad	0
	.quad	0
	.quad	.LC33
	.quad	13
	.quad	64
	.quad	.LC114
	.quad	.LC32
	.quad	0
	.quad	0
	.quad	0
	.quad	.LC37
	.quad	22
	.quad	64
	.quad	.LC115
	.quad	.LC32
	.quad	0
	.quad	0
	.quad	0
	.quad	.LC23
	.quad	4
	.quad	64
	.quad	.LC116
	.quad	.LC32
	.quad	0
	.quad	0
	.quad	0
	.quad	.LC17
	.quad	4
	.quad	64
	.quad	.LC117
	.quad	.LC32
	.quad	0
	.quad	0
	.quad	0
	.quad	.LC47
	.quad	46
	.quad	96
	.quad	.LC118
	.quad	.LC32
	.quad	0
	.quad	0
	.quad	0
	.quad	.LC8
	.quad	4
	.quad	64
	.quad	.LC119
	.quad	.LC32
	.quad	0
	.quad	0
	.quad	0
	.quad	.LC27
	.quad	5
	.quad	64
	.quad	.LC120
	.quad	.LC32
	.quad	0
	.quad	0
	.quad	0
	.quad	.LC36
	.quad	55
	.quad	96
	.quad	.LC121
	.quad	.LC32
	.quad	0
	.quad	0
	.quad	0
	.quad	.LC22
	.quad	3
	.quad	64
	.quad	.LC122
	.quad	.LC32
	.quad	0
	.quad	0
	.quad	0
	.quad	.LC41
	.quad	30
	.quad	64
	.quad	.LC123
	.quad	.LC32
	.quad	0
	.quad	0
	.quad	0
	.quad	.LC24
	.quad	4
	.quad	64
	.quad	.LC124
	.quad	.LC32
	.quad	0
	.quad	0
	.quad	0
	.quad	.LC59
	.quad	6
	.quad	64
	.quad	.LC125
	.quad	.LC32
	.quad	0
	.quad	0
	.quad	0
	.quad	.LC18
	.quad	3
	.quad	64
	.quad	.LC126
	.quad	.LC32
	.quad	0
	.quad	0
	.quad	0
	.quad	.LC28
	.quad	6
	.quad	64
	.quad	.LC127
	.quad	.LC32
	.quad	0
	.quad	0
	.quad	0
	.quad	.LC6
	.quad	5
	.quad	64
	.quad	.LC128
	.quad	.LC32
	.quad	0
	.quad	0
	.quad	0
	.quad	.LC15
	.quad	4
	.quad	64
	.quad	.LC129
	.quad	.LC32
	.quad	0
	.quad	0
	.quad	0
	.quad	.LC66
	.quad	10
	.quad	64
	.quad	.LC130
	.quad	.LC32
	.quad	0
	.quad	0
	.quad	0
	.quad	.LC54
	.quad	18
	.quad	64
	.quad	.LC131
	.quad	.LC32
	.quad	0
	.quad	0
	.quad	0
	.quad	.LC52
	.quad	14
	.quad	64
	.quad	.LC132
	.quad	.LC32
	.quad	0
	.quad	0
	.quad	0
	.text
	.type	_sub_D_00099_0, @function
_sub_D_00099_0:
.LFB1122:
	.cfi_startproc
	endbr64
	pushq	%rbp
	.cfi_def_cfa_offset 16
	.cfi_offset 6, -16
	movq	%rsp, %rbp
	.cfi_def_cfa_register 6
	movl	$65, %esi
	leaq	.LASAN0(%rip), %rax
	movq	%rax, %rdi
	call	__asan_unregister_globals@PLT
	popq	%rbp
	.cfi_def_cfa 7, 8
	ret
	.cfi_endproc
.LFE1122:
	.size	_sub_D_00099_0, .-_sub_D_00099_0
	.section	.fini_array.00099,"aw"
	.align 8
	.quad	_sub_D_00099_0
	.text
	.type	_sub_I_00099_1, @function
_sub_I_00099_1:
.LFB1123:
	.cfi_startproc
	endbr64
	pushq	%rbp
	.cfi_def_cfa_offset 16
	.cfi_offset 6, -16
	movq	%rsp, %rbp
	.cfi_def_cfa_register 6
	call	__asan_init@PLT
	call	__asan_version_mismatch_check_v8@PLT
	movl	$65, %esi
	leaq	.LASAN0(%rip), %rax
	movq	%rax, %rdi
	call	__asan_register_globals@PLT
	popq	%rbp
	.cfi_def_cfa 7, 8
	ret
	.cfi_endproc
.LFE1123:
	.size	_sub_I_00099_1, .-_sub_I_00099_1
	.section	.init_array.00099,"aw"
	.align 8
	.quad	_sub_I_00099_1
	.text
.Letext0:
	.file 2 "/usr/lib/gcc/x86_64-linux-gnu/11/include/stddef.h"
	.file 3 "/usr/include/x86_64-linux-gnu/bits/types.h"
	.file 4 "/usr/include/x86_64-linux-gnu/bits/types/struct_FILE.h"
	.file 5 "/usr/include/x86_64-linux-gnu/bits/types/FILE.h"
	.file 6 "/usr/include/stdlib.h"
	.file 7 "/usr/include/x86_64-linux-gnu/bits/types/struct_timespec.h"
	.file 8 "/usr/include/c++/11/cstdlib"
	.file 9 "/usr/include/c++/11/bits/std_abs.h"
	.file 10 "/usr/include/c++/11/cmath"
	.file 11 "/usr/include/c++/11/type_traits"
	.file 12 "/usr/include/c++/11/debug/debug.h"
	.file 13 "/usr/include/c++/11/bits/stl_iterator.h"
	.file 14 "/usr/include/c++/11/bits/predefined_ops.h"
	.file 15 "/usr/include/c++/11/stdlib.h"
	.file 16 "/usr/include/x86_64-linux-gnu/bits/struct_stat.h"
	.file 17 "/usr/include/math.h"
	.file 18 "/usr/include/x86_64-linux-gnu/c++/11/bits/c++config.h"
	.file 19 "/usr/include/c++/11/math.h"
	.file 20 "src/../include/asm.h"
	.file 21 "/usr/include/ctype.h"
	.file 22 "/usr/include/stdio.h"
	.file 23 "/usr/include/x86_64-linux-gnu/sys/stat.h"
	.file 24 "/usr/include/assert.h"
	.file 25 "/usr/include/string.h"
	.file 26 "/usr/include/x86_64-linux-gnu/bits/confname.h"
	.section	.note.GNU-stack,"",@progbits
	.section	.note.gnu.property,"a"
	.align 8
	.long	1f - 0f
	.long	4f - 1f
	.long	5
0:
	.string	"GNU"
1:
	.align 8
	.long	0xc0000002
	.long	3f - 2f
2:
	.long	0x3
3:
	.align 8
4:
