	.file	"assembler.cpp"
	.text
.Ltext0:
	.file 0 "/home/alexander/GIT/CP" "src/assembler.cpp"
	.section	.rodata
	.align 32
	.type	_ZL8ACCURACY, @object
	.size	_ZL8ACCURACY, 4
_ZL8ACCURACY:
	.long	100
	.zero	60
	.align 32
	.type	_ZL18SIZE_OF_LABELS_ARR, @object
	.size	_ZL18SIZE_OF_LABELS_ARR, 4
_ZL18SIZE_OF_LABELS_ARR:
	.long	100
	.zero	60
	.align 32
	.type	_ZL8MASK_CMD, @object
	.size	_ZL8MASK_CMD, 4
_ZL8MASK_CMD:
	.long	63
	.zero	60
	.globl	ass_logs
	.bss
	.align 32
	.type	ass_logs, @object
	.size	ass_logs, 8
ass_logs:
	.zero	64
	.globl	__asan_stack_malloc_8
	.section	.rodata
.LC0:
	.string	"1 32 13248 13 info_of_codes"
	.globl	__asan_stack_free_8
	.align 32
.LC1:
	.string	"executable_file.txt"
	.zero	44
	.align 32
.LC2:
	.string	"executable_file.bin"
	.zero	44
	.align 32
.LC3:
	.string	"r"
	.zero	62
	.align 32
.LC4:
	.string	"int main(int, char**)"
	.zero	42
	.align 32
.LC5:
	.string	"src/assembler.cpp"
	.zero	46
	.align 32
.LC6:
	.string	"file_text != NULL"
	.zero	46
	.align 32
.LC7:
	.string	"w"
	.zero	62
	.align 32
.LC8:
	.string	"wb"
	.zero	61
	.align 32
.LC9:
	.string	"executable_file != NULL"
	.zero	40
	.align 32
.LC10:
	.string	"executable_file_bin != NULL"
	.zero	36
	.align 32
.LC11:
	.string	"CP"
	.zero	61
	.align 32
.LC12:
	.string	"%s %d %zd\n"
	.zero	53
	.align 32
.LC13:
	.string	"main"
	.zero	59
	.text
	.globl	main
	.type	main, @function
main:
.LASANPC957:
.LFB957:
	.file 1 "src/assembler.cpp"
	.loc 1 14 1
	.cfi_startproc
	endbr64
	pushq	%rbp
	.cfi_def_cfa_offset 16
	.cfi_offset 6, -16
	movq	%rsp, %rbp
	.cfi_def_cfa_register 6
	pushq	%r14
	pushq	%r13
	pushq	%r12
	pushq	%rbx
	subq	$4096, %rsp
	orq	$0, (%rsp)
	subq	$4096, %rsp
	orq	$0, (%rsp)
	subq	$4096, %rsp
	orq	$0, (%rsp)
	subq	$1344, %rsp
	.cfi_offset 14, -24
	.cfi_offset 13, -32
	.cfi_offset 12, -40
	.cfi_offset 3, -48
	movl	%edi, -13652(%rbp)
	movq	%rsi, -13664(%rbp)
	leaq	-13600(%rbp), %r13
	movq	%r13, %r14
	cmpl	$0, __asan_option_detect_stack_use_after_return(%rip)
	je	.L1
	movl	$13536, %edi
	call	__asan_stack_malloc_8@PLT
	testq	%rax, %rax
	je	.L1
	movq	%rax, %r13
.L1:
	leaq	13568(%r13), %rax
	movq	%rax, %rbx
	movq	$1102416563, 0(%r13)
	leaq	.LC0(%rip), %rax
	movq	%rax, 8(%r13)
	leaq	.LASANPC957(%rip), %rax
	movq	%rax, 16(%r13)
	movq	%r13, %r12
	shrq	$3, %r12
	movl	$-235802127, 2147450880(%r12)
	movl	$-202116109, 2147452540(%r12)
	movl	$-202116109, 2147452544(%r12)
	movl	$-202116109, 2147452548(%r12)
	movl	$-202116109, 2147452552(%r12)
	movl	$-202116109, 2147452556(%r12)
	movl	$-202116109, 2147452560(%r12)
	movl	$-202116109, 2147452564(%r12)
	movl	$-202116109, 2147452568(%r12)
	.loc 1 14 1
	movq	%fs:40, %rax
	movq	%rax, -40(%rbp)
	xorl	%eax, %eax
	.loc 1 15 64
	movq	-13664(%rbp), %rax
	addq	$8, %rax
	.loc 1 15 51
	movq	%rax, %rdx
	movq	%rdx, %rcx
	shrq	$3, %rcx
	addq	$2147450880, %rcx
	movzbl	(%rcx), %ecx
	testb	%cl, %cl
	je	.L5
	movq	%rdx, %rdi
	call	__asan_report_load8@PLT
.L5:
	movq	(%rax), %rdx
	movl	-13652(%rbp), %eax
	movq	%rdx, %rsi
	movl	%eax, %edi
	call	_Z18name_of_input_fileiPKc@PLT
	movq	%rax, -13648(%rbp)
	.loc 1 16 17
	leaq	.LC1(%rip), %rax
	movq	%rax, -13640(%rbp)
	.loc 1 17 17
	leaq	.LC2(%rip), %rax
	movq	%rax, -13632(%rbp)
	.loc 1 19 28
	movq	-13648(%rbp), %rax
	leaq	.LC3(%rip), %rdx
	movq	%rdx, %rsi
	movq	%rax, %rdi
	call	fopen@PLT
	movq	%rax, -13624(%rbp)
	.loc 1 20 12
	cmpq	$0, -13624(%rbp)
	jne	.L6
	.loc 1 20 39 discriminator 1
	call	__asan_handle_no_return@PLT
	leaq	.LC4(%rip), %rax
	movq	%rax, %rcx
	movl	$20, %edx
	leaq	.LC5(%rip), %rax
	movq	%rax, %rsi
	leaq	.LC6(%rip), %rax
	movq	%rax, %rdi
	call	__assert_fail@PLT
.L6:
	.loc 1 22 34
	movq	-13640(%rbp), %rax
	leaq	.LC7(%rip), %rdx
	movq	%rdx, %rsi
	movq	%rax, %rdi
	call	fopen@PLT
	movq	%rax, -13616(%rbp)
	.loc 1 23 38
	movq	-13632(%rbp), %rax
	leaq	.LC8(%rip), %rdx
	movq	%rdx, %rsi
	movq	%rax, %rdi
	call	fopen@PLT
	movq	%rax, -13608(%rbp)
	.loc 1 24 12
	cmpq	$0, -13616(%rbp)
	jne	.L7
	.loc 1 24 39 discriminator 1
	call	__asan_handle_no_return@PLT
	leaq	.LC4(%rip), %rax
	movq	%rax, %rcx
	movl	$24, %edx
	leaq	.LC5(%rip), %rax
	movq	%rax, %rsi
	leaq	.LC9(%rip), %rax
	movq	%rax, %rdi
	call	__assert_fail@PLT
.L7:
	.loc 1 25 12
	cmpq	$0, -13608(%rbp)
	jne	.L8
	.loc 1 25 39 discriminator 1
	call	__asan_handle_no_return@PLT
	leaq	.LC4(%rip), %rax
	movq	%rax, %rcx
	movl	$25, %edx
	leaq	.LC5(%rip), %rax
	movq	%rax, %rsi
	leaq	.LC10(%rip), %rax
	movq	%rax, %rdi
	call	__assert_fail@PLT
.L8:
	.loc 1 27 14
	leaq	-13536(%rbx), %rax
	movq	%rax, %rdx
	shrq	$3, %rdx
	addq	$2147450880, %rdx
	movzbl	(%rdx), %edx
	testb	%dl, %dl
	setne	%cl
	testb	%dl, %dl
	setle	%dl
	movl	%ecx, %esi
	andl	%edx, %esi
	movl	$13248, %edx
	subq	$1, %rdx
	leaq	(%rax,%rdx), %rcx
	movq	%rcx, %rdx
	shrq	$3, %rdx
	addq	$2147450880, %rdx
	movzbl	(%rdx), %edx
	testb	%dl, %dl
	setne	%dil
	andl	$7, %ecx
	cmpb	%dl, %cl
	setge	%dl
	andl	%edi, %edx
	orl	%esi, %edx
	testb	%dl, %dl
	je	.L9
	movl	$13248, %esi
	movq	%rax, %rdi
	call	__asan_report_store_n@PLT
.L9:
	leaq	-13536(%rbx), %rax
	movl	$13248, %edx
	movl	$0, %esi
	movq	%rax, %rdi
	call	memset@PLT
	.loc 1 29 23
	movq	-13648(%rbp), %rdx
	movq	-13624(%rbp), %rcx
	leaq	-13536(%rbx), %rax
	movq	%rcx, %rsi
	movq	%rax, %rdi
	call	_Z18fill_info_of_codesP8ass_infoP8_IO_FILEPKc@PLT
	.loc 1 31 12
	leaq	-13536(%rbx), %rdx
	movq	-13616(%rbp), %rax
	movq	%rdx, %rsi
	movq	%rax, %rdi
	call	_Z7compileP8_IO_FILEP8ass_info@PLT
	.loc 1 33 33
	movq	-13616(%rbp), %rax
	movq	%rax, %rdi
	call	_Z28start_to_point_on_first_lineP8_IO_FILE
	.loc 1 34 12
	leaq	-13536(%rbx), %rax
	addq	$13232, %rax
	movq	%rax, %rdx
	shrq	$3, %rdx
	addq	$2147450880, %rdx
	movzbl	(%rdx), %edx
	testb	%dl, %dl
	je	.L10
	movq	%rax, %rdi
	call	__asan_report_load8@PLT
.L10:
	movq	-304(%rbx), %rdx
	movq	-13616(%rbp), %rax
	movq	%rdx, %r8
	movl	$1, %ecx
	leaq	.LC11(%rip), %rdx
	leaq	.LC12(%rip), %rsi
	movq	%rax, %rdi
	movl	$0, %eax
	call	fprintf@PLT
	.loc 1 35 74
	leaq	-13536(%rbx), %rax
	addq	$13232, %rax
	movq	%rax, %rdx
	shrq	$3, %rdx
	addq	$2147450880, %rdx
	movzbl	(%rdx), %edx
	testb	%dl, %dl
	je	.L11
	movq	%rax, %rdi
	call	__asan_report_load8@PLT
.L11:
	movq	-304(%rbx), %rax
	.loc 1 35 29
	movl	%eax, %edx
	movq	-13608(%rbp), %rax
	movl	%edx, %ecx
	movl	$1, %edx
	leaq	.LC11(%rip), %rsi
	movq	%rax, %rdi
	call	_Z24write_header_of_bin_fileP8_IO_FILEPKcii@PLT
	.loc 1 37 12
	leaq	-13536(%rbx), %rdx
	movq	-13616(%rbp), %rax
	movq	%rdx, %rsi
	movq	%rax, %rdi
	call	_Z7compileP8_IO_FILEP8ass_info@PLT
	.loc 1 39 13
	leaq	-13536(%rbx), %rax
	movl	$39, %r8d
	leaq	.LC13(%rip), %rdx
	movq	%rdx, %rcx
	leaq	.LC5(%rip), %rdx
	movl	$100, %esi
	movq	%rax, %rdi
	call	_Z8dump_assP8ass_infoiPKcS2_i@PLT
	.loc 1 41 11
	leaq	-13536(%rbx), %rax
	addq	$13232, %rax
	movq	%rax, %rdx
	shrq	$3, %rdx
	addq	$2147450880, %rdx
	movzbl	(%rdx), %edx
	testb	%dl, %dl
	je	.L12
	movq	%rax, %rdi
	call	__asan_report_load8@PLT
.L12:
	movq	-304(%rbx), %rdx
	.loc 1 41 26
	leaq	-13536(%rbx), %rax
	addq	$16, %rax
	movq	%rax, %rcx
	shrq	$3, %rcx
	addq	$2147450880, %rcx
	movzbl	(%rcx), %ecx
	testb	%cl, %cl
	je	.L13
	movq	%rax, %rdi
	call	__asan_report_load8@PLT
.L13:
	movq	-13520(%rbx), %rax
	.loc 1 41 11
	movq	-13608(%rbp), %rcx
	movl	$4, %esi
	movq	%rax, %rdi
	call	fwrite@PLT
	.loc 1 43 15
	leaq	-13536(%rbx), %rax
	movq	%rax, %rdi
	call	_Z10detor_infoP8ass_info@PLT
	.loc 1 44 11
	movq	-13624(%rbp), %rax
	movq	%rax, %rdi
	call	fclose@PLT
	.loc 1 45 11
	movq	-13616(%rbp), %rax
	movq	%rax, %rdi
	call	fclose@PLT
	.loc 1 46 11
	movq	-13608(%rbp), %rax
	movq	%rax, %rdi
	call	fclose@PLT
	.loc 1 47 11
	leaq	ass_logs(%rip), %rax
	movq	%rax, %rdx
	shrq	$3, %rdx
	addq	$2147450880, %rdx
	movzbl	(%rdx), %edx
	testb	%dl, %dl
	je	.L14
	movq	%rax, %rdi
	call	__asan_report_load8@PLT
.L14:
	movq	ass_logs(%rip), %rax
	movq	%rax, %rdi
	call	fclose@PLT
	.loc 1 48 12
	movl	$0, %eax
	.loc 1 49 1
	movl	%eax, %ebx
	.loc 1 14 1
	cmpq	%r13, %r14
	je	.L2
	movq	$1172321806, 0(%r13)
	movq	%r14, %rdx
	movl	$13536, %esi
	movq	%r13, %rdi
	call	__asan_stack_free_8@PLT
	jmp	.L3
.L2:
	movl	$0, 2147450880(%r12)
	movq	$0, 2147452540(%r12)
	movq	$0, 2147452548(%r12)
	movq	$0, 2147452556(%r12)
	movq	$0, 2147452564(%r12)
.L3:
	.loc 1 49 1
	movq	-40(%rbp), %rax
	subq	%fs:40, %rax
	je	.L16
	call	__stack_chk_fail@PLT
.L16:
	movl	%ebx, %eax
	addq	$13632, %rsp
	popq	%rbx
	popq	%r12
	popq	%r13
	popq	%r14
	popq	%rbp
	.cfi_def_cfa 7, 8
	ret
	.cfi_endproc
.LFE957:
	.size	main, .-main
	.globl	_Z28start_to_point_on_first_lineP8_IO_FILE
	.type	_Z28start_to_point_on_first_lineP8_IO_FILE, @function
_Z28start_to_point_on_first_lineP8_IO_FILE:
.LASANPC958:
.LFB958:
	.loc 1 52 1
	.cfi_startproc
	endbr64
	pushq	%rbp
	.cfi_def_cfa_offset 16
	.cfi_offset 6, -16
	movq	%rsp, %rbp
	.cfi_def_cfa_register 6
	subq	$16, %rsp
	movq	%rdi, -8(%rbp)
	.loc 1 53 10
	movq	-8(%rbp), %rax
	movl	$0, %edx
	movl	$0, %esi
	movq	%rax, %rdi
	call	fseek@PLT
	.loc 1 54 1
	nop
	leave
	.cfi_def_cfa 7, 8
	ret
	.cfi_endproc
.LFE958:
	.size	_Z28start_to_point_on_first_lineP8_IO_FILE, .-_Z28start_to_point_on_first_lineP8_IO_FILE
	.section	.rodata
	.align 32
.LC14:
	.string	"ass_logs"
	.zero	55
	.text
	.type	_Z41__static_initialization_and_destruction_0ii, @function
_Z41__static_initialization_and_destruction_0ii:
.LASANPC1109:
.LFB1109:
	.loc 1 54 1
	.cfi_startproc
	endbr64
	pushq	%rbp
	.cfi_def_cfa_offset 16
	.cfi_offset 6, -16
	movq	%rsp, %rbp
	.cfi_def_cfa_register 6
	subq	$16, %rsp
	movl	%edi, -4(%rbp)
	movl	%esi, -8(%rbp)
	.loc 1 54 1
	cmpl	$1, -4(%rbp)
	jne	.L22
	.loc 1 54 1 is_stmt 0 discriminator 1
	leaq	.LC5(%rip), %rax
	movq	%rax, %rdi
	call	__asan_before_dynamic_init@PLT
	cmpl	$65535, -8(%rbp)
	jne	.L20
	.loc 1 11 35 is_stmt 1
	leaq	.LC7(%rip), %rax
	movq	%rax, %rsi
	leaq	.LC14(%rip), %rax
	movq	%rax, %rdi
	call	_Z17open_with_no_buffPKcS0_@PLT
	.loc 1 11 7
	leaq	ass_logs(%rip), %rdx
	movq	%rdx, %rcx
	shrq	$3, %rcx
	addq	$2147450880, %rcx
	movzbl	(%rcx), %ecx
	testb	%cl, %cl
	je	.L21
	movq	%rdx, %rdi
	call	__asan_report_store8@PLT
.L21:
	movq	%rax, ass_logs(%rip)
.L20:
	.loc 1 11 7 is_stmt 0 discriminator 1
	call	__asan_after_dynamic_init@PLT
.L22:
	.loc 1 54 1 is_stmt 1
	nop
	leave
	.cfi_def_cfa 7, 8
	ret
	.cfi_endproc
.LFE1109:
	.size	_Z41__static_initialization_and_destruction_0ii, .-_Z41__static_initialization_and_destruction_0ii
	.type	_GLOBAL__sub_I_ass_logs, @function
_GLOBAL__sub_I_ass_logs:
.LASANPC1110:
.LFB1110:
	.loc 1 54 1
	.cfi_startproc
	endbr64
	pushq	%rbp
	.cfi_def_cfa_offset 16
	.cfi_offset 6, -16
	movq	%rsp, %rbp
	.cfi_def_cfa_register 6
	.loc 1 54 1
	movl	$65535, %esi
	movl	$1, %edi
	call	_Z41__static_initialization_and_destruction_0ii
	popq	%rbp
	.cfi_def_cfa 7, 8
	ret
	.cfi_endproc
.LFE1110:
	.size	_GLOBAL__sub_I_ass_logs, .-_GLOBAL__sub_I_ass_logs
	.section	.init_array,"aw"
	.align 8
	.quad	_GLOBAL__sub_I_ass_logs
	.globl	__odr_asan.ass_logs
	.bss
	.type	__odr_asan.ass_logs, @object
	.size	__odr_asan.ass_logs, 1
__odr_asan.ass_logs:
	.zero	1
	.section	.data.rel.local,"aw"
	.align 16
	.type	.LASANLOC1, @object
	.size	.LASANLOC1, 16
.LASANLOC1:
	.quad	.LC5
	.long	11
	.long	7
	.section	.rodata
.LC15:
	.string	"src/../include/asm.h"
	.section	.data.rel.local
	.align 16
	.type	.LASANLOC2, @object
	.size	.LASANLOC2, 16
.LASANLOC2:
	.quad	.LC15
	.long	84
	.long	11
	.align 16
	.type	.LASANLOC3, @object
	.size	.LASANLOC3, 16
.LASANLOC3:
	.quad	.LC15
	.long	25
	.long	11
	.align 16
	.type	.LASANLOC4, @object
	.size	.LASANLOC4, 16
.LASANLOC4:
	.quad	.LC15
	.long	23
	.long	11
	.section	.rodata
.LC16:
	.string	"MASK_CMD"
.LC17:
	.string	"SIZE_OF_LABELS_ARR"
.LC18:
	.string	"ACCURACY"
.LC19:
	.string	"*.LC14"
.LC20:
	.string	"*.LC6"
.LC21:
	.string	"*.LC13"
.LC22:
	.string	"*.LC7"
.LC23:
	.string	"*.LC3"
.LC24:
	.string	"*.LC8"
.LC25:
	.string	"*.LC11"
.LC26:
	.string	"*.LC9"
.LC27:
	.string	"*.LC5"
.LC28:
	.string	"*.LC2"
.LC29:
	.string	"*.LC12"
.LC30:
	.string	"*.LC1"
.LC31:
	.string	"*.LC4"
.LC32:
	.string	"*.LC10"
	.section	.data.rel.local
	.align 32
	.type	.LASAN0, @object
	.size	.LASAN0, 1152
.LASAN0:
	.quad	ass_logs
	.quad	8
	.quad	64
	.quad	.LC14
	.quad	.LC5
	.quad	1
	.quad	.LASANLOC1
	.quad	__odr_asan.ass_logs
	.quad	_ZL8MASK_CMD
	.quad	4
	.quad	64
	.quad	.LC16
	.quad	.LC5
	.quad	0
	.quad	.LASANLOC2
	.quad	0
	.quad	_ZL18SIZE_OF_LABELS_ARR
	.quad	4
	.quad	64
	.quad	.LC17
	.quad	.LC5
	.quad	0
	.quad	.LASANLOC3
	.quad	0
	.quad	_ZL8ACCURACY
	.quad	4
	.quad	64
	.quad	.LC18
	.quad	.LC5
	.quad	0
	.quad	.LASANLOC4
	.quad	0
	.quad	.LC14
	.quad	9
	.quad	64
	.quad	.LC19
	.quad	.LC5
	.quad	0
	.quad	0
	.quad	0
	.quad	.LC6
	.quad	18
	.quad	64
	.quad	.LC20
	.quad	.LC5
	.quad	0
	.quad	0
	.quad	0
	.quad	.LC13
	.quad	5
	.quad	64
	.quad	.LC21
	.quad	.LC5
	.quad	0
	.quad	0
	.quad	0
	.quad	.LC7
	.quad	2
	.quad	64
	.quad	.LC22
	.quad	.LC5
	.quad	0
	.quad	0
	.quad	0
	.quad	.LC3
	.quad	2
	.quad	64
	.quad	.LC23
	.quad	.LC5
	.quad	0
	.quad	0
	.quad	0
	.quad	.LC8
	.quad	3
	.quad	64
	.quad	.LC24
	.quad	.LC5
	.quad	0
	.quad	0
	.quad	0
	.quad	.LC11
	.quad	3
	.quad	64
	.quad	.LC25
	.quad	.LC5
	.quad	0
	.quad	0
	.quad	0
	.quad	.LC9
	.quad	24
	.quad	64
	.quad	.LC26
	.quad	.LC5
	.quad	0
	.quad	0
	.quad	0
	.quad	.LC5
	.quad	18
	.quad	64
	.quad	.LC27
	.quad	.LC5
	.quad	0
	.quad	0
	.quad	0
	.quad	.LC2
	.quad	20
	.quad	64
	.quad	.LC28
	.quad	.LC5
	.quad	0
	.quad	0
	.quad	0
	.quad	.LC12
	.quad	11
	.quad	64
	.quad	.LC29
	.quad	.LC5
	.quad	0
	.quad	0
	.quad	0
	.quad	.LC1
	.quad	20
	.quad	64
	.quad	.LC30
	.quad	.LC5
	.quad	0
	.quad	0
	.quad	0
	.quad	.LC4
	.quad	22
	.quad	64
	.quad	.LC31
	.quad	.LC5
	.quad	0
	.quad	0
	.quad	0
	.quad	.LC10
	.quad	28
	.quad	64
	.quad	.LC32
	.quad	.LC5
	.quad	0
	.quad	0
	.quad	0
	.text
	.type	_sub_D_00099_0, @function
_sub_D_00099_0:
.LFB1111:
	.cfi_startproc
	endbr64
	pushq	%rbp
	.cfi_def_cfa_offset 16
	.cfi_offset 6, -16
	movq	%rsp, %rbp
	.cfi_def_cfa_register 6
	movl	$18, %esi
	leaq	.LASAN0(%rip), %rax
	movq	%rax, %rdi
	call	__asan_unregister_globals@PLT
	popq	%rbp
	.cfi_def_cfa 7, 8
	ret
	.cfi_endproc
.LFE1111:
	.size	_sub_D_00099_0, .-_sub_D_00099_0
	.section	.fini_array.00099,"aw"
	.align 8
	.quad	_sub_D_00099_0
	.text
	.type	_sub_I_00099_1, @function
_sub_I_00099_1:
.LFB1112:
	.cfi_startproc
	endbr64
	pushq	%rbp
	.cfi_def_cfa_offset 16
	.cfi_offset 6, -16
	movq	%rsp, %rbp
	.cfi_def_cfa_register 6
	call	__asan_init@PLT
	call	__asan_version_mismatch_check_v8@PLT
	movl	$18, %esi
	leaq	.LASAN0(%rip), %rax
	movq	%rax, %rdi
	call	__asan_register_globals@PLT
	popq	%rbp
	.cfi_def_cfa 7, 8
	ret
	.cfi_endproc
.LFE1112:
	.size	_sub_I_00099_1, .-_sub_I_00099_1
	.section	.init_array.00099,"aw"
	.align 8
	.quad	_sub_I_00099_1
	.text
.Letext0:
	.file 2 "/usr/lib/gcc/x86_64-linux-gnu/11/include/stddef.h"
	.file 3 "/usr/include/x86_64-linux-gnu/bits/types.h"
	.file 4 "/usr/include/x86_64-linux-gnu/bits/types/struct_FILE.h"
	.file 5 "/usr/include/x86_64-linux-gnu/bits/types/FILE.h"
	.file 6 "/usr/include/stdlib.h"
	.file 7 "/usr/include/c++/11/cstdlib"
	.file 8 "/usr/include/c++/11/bits/std_abs.h"
	.file 9 "/usr/include/c++/11/cmath"
	.file 10 "/usr/include/c++/11/type_traits"
	.file 11 "/usr/include/c++/11/debug/debug.h"
	.file 12 "/usr/include/c++/11/bits/stl_iterator.h"
	.file 13 "/usr/include/c++/11/bits/predefined_ops.h"
	.file 14 "/usr/include/c++/11/stdlib.h"
	.file 15 "/usr/include/math.h"
	.file 16 "/usr/include/x86_64-linux-gnu/c++/11/bits/c++config.h"
	.file 17 "/usr/include/c++/11/math.h"
	.file 18 "src/../include/asm.h"
	.file 19 "/usr/include/stdio.h"
	.file 20 "/usr/include/assert.h"
	.file 21 "/usr/include/x86_64-linux-gnu/bits/confname.h"
	.section	.note.GNU-stack,"",@progbits
	.section	.note.gnu.property,"a"
	.align 8
	.long	1f - 0f
	.long	4f - 1f
	.long	5
0:
	.string	"GNU"
1:
	.align 8
	.long	0xc0000002
	.long	3f - 2f
2:
	.long	0x3
3:
	.align 8
4:
