	.file	"cpu.cpp"
	.text
.Ltext0:
	.file 0 "/home/alexander/GIT/CP" "src/cpu.cpp"
	.section	.rodata
	.align 32
	.type	_ZL8ACCURACY, @object
	.size	_ZL8ACCURACY, 4
_ZL8ACCURACY:
	.long	100
	.zero	60
	.align 32
	.type	_ZL18SIZE_OF_LABELS_ARR, @object
	.size	_ZL18SIZE_OF_LABELS_ARR, 4
_ZL18SIZE_OF_LABELS_ARR:
	.long	100
	.zero	60
	.align 32
	.type	_ZL8MASK_CMD, @object
	.size	_ZL8MASK_CMD, 4
_ZL8MASK_CMD:
	.long	63
	.zero	60
	.align 32
	.type	_ZL13STRUCT_CANARY, @object
	.size	_ZL13STRUCT_CANARY, 8
_ZL13STRUCT_CANARY:
	.quad	4027428875
	.zero	56
	.align 32
	.type	_ZL10ARR_CANARY, @object
	.size	_ZL10ARR_CANARY, 8
_ZL10ARR_CANARY:
	.quad	2882382830
	.zero	56
	.align 32
	.type	_ZL11SIZE_OF_RAM, @object
	.size	_ZL11SIZE_OF_RAM, 4
_ZL11SIZE_OF_RAM:
	.long	4096
	.zero	60
	.globl	cpu_logs
	.bss
	.align 32
	.type	cpu_logs, @object
	.size	cpu_logs, 8
cpu_logs:
	.zero	64
	.section	.rodata
	.align 32
.LC0:
	.string	"executable_file.txt"
	.zero	44
	.align 32
.LC1:
	.string	"executable_file.bin"
	.zero	44
	.align 32
.LC2:
	.string	"result_of_executable_file.txt"
	.zero	34
	.align 32
.LC3:
	.string	"w"
	.zero	62
	.align 32
.LC4:
	.string	"elements_of_stack.txt"
	.zero	42
	.align 32
.LC5:
	.string	"r"
	.zero	62
	.align 32
.LC6:
	.string	"rb"
	.zero	61
	.align 32
.LC7:
	.string	"int main()"
	.zero	53
	.align 32
.LC8:
	.string	"src/cpu.cpp"
	.zero	52
	.align 32
.LC9:
	.string	"exec_not_bin_file_ptr != NULL"
	.zero	34
	.align 32
.LC10:
	.string	"stk_out_file != NULL"
	.zero	43
	.align 32
.LC11:
	.string	"file_result != NULL"
	.zero	44
	.align 32
.LC12:
	.string	"cpu_logs != NULL"
	.zero	47
	.text
	.globl	main
	.type	main, @function
main:
.LASANPC957:
.LFB957:
	.file 1 "src/cpu.cpp"
	.loc 1 15 1
	.cfi_startproc
	endbr64
	pushq	%rbp
	.cfi_def_cfa_offset 16
	.cfi_offset 6, -16
	movq	%rsp, %rbp
	.cfi_def_cfa_register 6
	subq	$64, %rsp
	.loc 1 16 17
	leaq	.LC0(%rip), %rax
	movq	%rax, -64(%rbp)
	.loc 1 17 17
	leaq	.LC1(%rip), %rax
	movq	%rax, -56(%rbp)
	.loc 1 18 17
	leaq	.LC2(%rip), %rax
	movq	%rax, -48(%rbp)
	.loc 1 20 31
	leaq	.LC3(%rip), %rax
	movq	%rax, %rsi
	leaq	.LC4(%rip), %rax
	movq	%rax, %rdi
	call	fopen@PLT
	movq	%rax, -40(%rbp)
	.loc 1 21 40
	movq	-64(%rbp), %rax
	leaq	.LC5(%rip), %rdx
	movq	%rdx, %rsi
	movq	%rax, %rdi
	call	fopen@PLT
	movq	%rax, -32(%rbp)
	.loc 1 22 36
	movq	-56(%rbp), %rax
	leaq	.LC6(%rip), %rdx
	movq	%rdx, %rsi
	movq	%rax, %rdi
	call	fopen@PLT
	movq	%rax, -24(%rbp)
	.loc 1 23 30
	movq	-48(%rbp), %rax
	leaq	.LC3(%rip), %rdx
	movq	%rdx, %rsi
	movq	%rax, %rdi
	call	fopen@PLT
	movq	%rax, -16(%rbp)
	.loc 1 24 34
	movq	-48(%rbp), %rax
	leaq	.LC3(%rip), %rdx
	movq	%rdx, %rsi
	movq	%rax, %rdi
	call	fopen@PLT
	movq	%rax, -8(%rbp)
	.loc 1 27 12
	cmpq	$0, -32(%rbp)
	jne	.L2
	.loc 1 27 39 discriminator 1
	call	__asan_handle_no_return@PLT
	leaq	.LC7(%rip), %rax
	movq	%rax, %rcx
	movl	$27, %edx
	leaq	.LC8(%rip), %rax
	movq	%rax, %rsi
	leaq	.LC9(%rip), %rax
	movq	%rax, %rdi
	call	__assert_fail@PLT
.L2:
	.loc 1 28 12
	cmpq	$0, -40(%rbp)
	jne	.L3
	.loc 1 28 39 discriminator 1
	call	__asan_handle_no_return@PLT
	leaq	.LC7(%rip), %rax
	movq	%rax, %rcx
	movl	$28, %edx
	leaq	.LC8(%rip), %rax
	movq	%rax, %rsi
	leaq	.LC10(%rip), %rax
	movq	%rax, %rdi
	call	__assert_fail@PLT
.L3:
	.loc 1 29 12
	cmpq	$0, -16(%rbp)
	jne	.L4
	.loc 1 29 39 discriminator 1
	call	__asan_handle_no_return@PLT
	leaq	.LC7(%rip), %rax
	movq	%rax, %rcx
	movl	$29, %edx
	leaq	.LC8(%rip), %rax
	movq	%rax, %rsi
	leaq	.LC11(%rip), %rax
	movq	%rax, %rdi
	call	__assert_fail@PLT
.L4:
	.loc 1 30 13
	leaq	cpu_logs(%rip), %rax
	movq	%rax, %rdx
	shrq	$3, %rdx
	addq	$2147450880, %rdx
	movzbl	(%rdx), %edx
	testb	%dl, %dl
	je	.L5
	movq	%rax, %rdi
	call	__asan_report_load8@PLT
.L5:
	movq	cpu_logs(%rip), %rax
	.loc 1 30 12
	testq	%rax, %rax
	jne	.L6
	.loc 1 30 39 discriminator 1
	call	__asan_handle_no_return@PLT
	leaq	.LC7(%rip), %rax
	movq	%rax, %rcx
	movl	$30, %edx
	leaq	.LC8(%rip), %rax
	movq	%rax, %rsi
	leaq	.LC12(%rip), %rax
	movq	%rax, %rdi
	call	__assert_fail@PLT
.L6:
	.loc 1 32 28
	movq	-16(%rbp), %rdx
	movq	-64(%rbp), %rcx
	movq	-32(%rbp), %rax
	movq	%rcx, %rsi
	movq	%rax, %rdi
	call	_Z23do_not_bin_instructionsP8_IO_FILEPKcS0_@PLT
	.loc 1 36 11
	movq	-32(%rbp), %rax
	movq	%rax, %rdi
	call	fclose@PLT
	.loc 1 37 11
	leaq	cpu_logs(%rip), %rax
	movq	%rax, %rdx
	shrq	$3, %rdx
	addq	$2147450880, %rdx
	movzbl	(%rdx), %edx
	testb	%dl, %dl
	je	.L7
	movq	%rax, %rdi
	call	__asan_report_load8@PLT
.L7:
	movq	cpu_logs(%rip), %rax
	movq	%rax, %rdi
	call	fclose@PLT
	.loc 1 38 11
	movq	-16(%rbp), %rax
	movq	%rax, %rdi
	call	fclose@PLT
	.loc 1 39 11
	movq	-40(%rbp), %rax
	movq	%rax, %rdi
	call	fclose@PLT
	.loc 1 40 11
	movq	-24(%rbp), %rax
	movq	%rax, %rdi
	call	fclose@PLT
	.loc 1 41 11
	movq	-8(%rbp), %rax
	movq	%rax, %rdi
	call	fclose@PLT
	.loc 1 43 12
	movl	$1, %eax
	.loc 1 44 1
	leave
	.cfi_def_cfa 7, 8
	ret
	.cfi_endproc
.LFE957:
	.size	main, .-main
	.section	.rodata
	.align 32
.LC13:
	.string	"cpu_logs.txt"
	.zero	51
	.text
	.type	_Z41__static_initialization_and_destruction_0ii, @function
_Z41__static_initialization_and_destruction_0ii:
.LASANPC1108:
.LFB1108:
	.loc 1 44 1
	.cfi_startproc
	endbr64
	pushq	%rbp
	.cfi_def_cfa_offset 16
	.cfi_offset 6, -16
	movq	%rsp, %rbp
	.cfi_def_cfa_register 6
	subq	$16, %rsp
	movl	%edi, -4(%rbp)
	movl	%esi, -8(%rbp)
	.loc 1 44 1
	cmpl	$1, -4(%rbp)
	jne	.L13
	.loc 1 44 1 is_stmt 0 discriminator 1
	leaq	.LC8(%rip), %rax
	movq	%rax, %rdi
	call	__asan_before_dynamic_init@PLT
	cmpl	$65535, -8(%rbp)
	jne	.L11
	.loc 1 12 35 is_stmt 1
	leaq	.LC3(%rip), %rax
	movq	%rax, %rsi
	leaq	.LC13(%rip), %rax
	movq	%rax, %rdi
	call	_Z17open_with_no_buffPKcS0_@PLT
	.loc 1 12 7
	leaq	cpu_logs(%rip), %rdx
	movq	%rdx, %rcx
	shrq	$3, %rcx
	addq	$2147450880, %rcx
	movzbl	(%rcx), %ecx
	testb	%cl, %cl
	je	.L12
	movq	%rdx, %rdi
	call	__asan_report_store8@PLT
.L12:
	movq	%rax, cpu_logs(%rip)
.L11:
	.loc 1 12 7 is_stmt 0 discriminator 1
	call	__asan_after_dynamic_init@PLT
.L13:
	.loc 1 44 1 is_stmt 1
	nop
	leave
	.cfi_def_cfa 7, 8
	ret
	.cfi_endproc
.LFE1108:
	.size	_Z41__static_initialization_and_destruction_0ii, .-_Z41__static_initialization_and_destruction_0ii
	.type	_GLOBAL__sub_I_cpu_logs, @function
_GLOBAL__sub_I_cpu_logs:
.LASANPC1109:
.LFB1109:
	.loc 1 44 1
	.cfi_startproc
	endbr64
	pushq	%rbp
	.cfi_def_cfa_offset 16
	.cfi_offset 6, -16
	movq	%rsp, %rbp
	.cfi_def_cfa_register 6
	.loc 1 44 1
	movl	$65535, %esi
	movl	$1, %edi
	call	_Z41__static_initialization_and_destruction_0ii
	popq	%rbp
	.cfi_def_cfa 7, 8
	ret
	.cfi_endproc
.LFE1109:
	.size	_GLOBAL__sub_I_cpu_logs, .-_GLOBAL__sub_I_cpu_logs
	.section	.init_array,"aw"
	.align 8
	.quad	_GLOBAL__sub_I_cpu_logs
	.globl	__odr_asan.cpu_logs
	.bss
	.type	__odr_asan.cpu_logs, @object
	.size	__odr_asan.cpu_logs, 1
__odr_asan.cpu_logs:
	.zero	1
	.section	.data.rel.local,"aw"
	.align 16
	.type	.LASANLOC1, @object
	.size	.LASANLOC1, 16
.LASANLOC1:
	.quad	.LC8
	.long	12
	.long	7
	.section	.rodata
.LC14:
	.string	"src/../include/cpu.h"
	.section	.data.rel.local
	.align 16
	.type	.LASANLOC2, @object
	.size	.LASANLOC2, 16
.LASANLOC2:
	.quad	.LC14
	.long	1
	.long	11
	.section	.rodata
	.align 8
.LC15:
	.string	"src/../include/stack_objects.h"
	.section	.data.rel.local
	.align 16
	.type	.LASANLOC3, @object
	.size	.LASANLOC3, 16
.LASANLOC3:
	.quad	.LC15
	.long	16
	.long	14
	.align 16
	.type	.LASANLOC4, @object
	.size	.LASANLOC4, 16
.LASANLOC4:
	.quad	.LC15
	.long	15
	.long	14
	.section	.rodata
.LC16:
	.string	"src/../include/asm.h"
	.section	.data.rel.local
	.align 16
	.type	.LASANLOC5, @object
	.size	.LASANLOC5, 16
.LASANLOC5:
	.quad	.LC16
	.long	84
	.long	11
	.align 16
	.type	.LASANLOC6, @object
	.size	.LASANLOC6, 16
.LASANLOC6:
	.quad	.LC16
	.long	25
	.long	11
	.align 16
	.type	.LASANLOC7, @object
	.size	.LASANLOC7, 16
.LASANLOC7:
	.quad	.LC16
	.long	23
	.long	11
	.section	.rodata
.LC17:
	.string	"cpu_logs"
.LC18:
	.string	"SIZE_OF_RAM"
.LC19:
	.string	"ARR_CANARY"
.LC20:
	.string	"STRUCT_CANARY"
.LC21:
	.string	"MASK_CMD"
.LC22:
	.string	"SIZE_OF_LABELS_ARR"
.LC23:
	.string	"ACCURACY"
.LC24:
	.string	"*.LC8"
.LC25:
	.string	"*.LC12"
.LC26:
	.string	"*.LC13"
.LC27:
	.string	"*.LC4"
.LC28:
	.string	"*.LC3"
.LC29:
	.string	"*.LC11"
.LC30:
	.string	"*.LC5"
.LC31:
	.string	"*.LC10"
.LC32:
	.string	"*.LC2"
.LC33:
	.string	"*.LC9"
.LC34:
	.string	"*.LC1"
.LC35:
	.string	"*.LC0"
.LC36:
	.string	"*.LC7"
.LC37:
	.string	"*.LC6"
	.section	.data.rel.local
	.align 32
	.type	.LASAN0, @object
	.size	.LASAN0, 1344
.LASAN0:
	.quad	cpu_logs
	.quad	8
	.quad	64
	.quad	.LC17
	.quad	.LC8
	.quad	1
	.quad	.LASANLOC1
	.quad	__odr_asan.cpu_logs
	.quad	_ZL11SIZE_OF_RAM
	.quad	4
	.quad	64
	.quad	.LC18
	.quad	.LC8
	.quad	0
	.quad	.LASANLOC2
	.quad	0
	.quad	_ZL10ARR_CANARY
	.quad	8
	.quad	64
	.quad	.LC19
	.quad	.LC8
	.quad	0
	.quad	.LASANLOC3
	.quad	0
	.quad	_ZL13STRUCT_CANARY
	.quad	8
	.quad	64
	.quad	.LC20
	.quad	.LC8
	.quad	0
	.quad	.LASANLOC4
	.quad	0
	.quad	_ZL8MASK_CMD
	.quad	4
	.quad	64
	.quad	.LC21
	.quad	.LC8
	.quad	0
	.quad	.LASANLOC5
	.quad	0
	.quad	_ZL18SIZE_OF_LABELS_ARR
	.quad	4
	.quad	64
	.quad	.LC22
	.quad	.LC8
	.quad	0
	.quad	.LASANLOC6
	.quad	0
	.quad	_ZL8ACCURACY
	.quad	4
	.quad	64
	.quad	.LC23
	.quad	.LC8
	.quad	0
	.quad	.LASANLOC7
	.quad	0
	.quad	.LC8
	.quad	12
	.quad	64
	.quad	.LC24
	.quad	.LC8
	.quad	0
	.quad	0
	.quad	0
	.quad	.LC12
	.quad	17
	.quad	64
	.quad	.LC25
	.quad	.LC8
	.quad	0
	.quad	0
	.quad	0
	.quad	.LC13
	.quad	13
	.quad	64
	.quad	.LC26
	.quad	.LC8
	.quad	0
	.quad	0
	.quad	0
	.quad	.LC4
	.quad	22
	.quad	64
	.quad	.LC27
	.quad	.LC8
	.quad	0
	.quad	0
	.quad	0
	.quad	.LC3
	.quad	2
	.quad	64
	.quad	.LC28
	.quad	.LC8
	.quad	0
	.quad	0
	.quad	0
	.quad	.LC11
	.quad	20
	.quad	64
	.quad	.LC29
	.quad	.LC8
	.quad	0
	.quad	0
	.quad	0
	.quad	.LC5
	.quad	2
	.quad	64
	.quad	.LC30
	.quad	.LC8
	.quad	0
	.quad	0
	.quad	0
	.quad	.LC10
	.quad	21
	.quad	64
	.quad	.LC31
	.quad	.LC8
	.quad	0
	.quad	0
	.quad	0
	.quad	.LC2
	.quad	30
	.quad	64
	.quad	.LC32
	.quad	.LC8
	.quad	0
	.quad	0
	.quad	0
	.quad	.LC9
	.quad	30
	.quad	64
	.quad	.LC33
	.quad	.LC8
	.quad	0
	.quad	0
	.quad	0
	.quad	.LC1
	.quad	20
	.quad	64
	.quad	.LC34
	.quad	.LC8
	.quad	0
	.quad	0
	.quad	0
	.quad	.LC0
	.quad	20
	.quad	64
	.quad	.LC35
	.quad	.LC8
	.quad	0
	.quad	0
	.quad	0
	.quad	.LC7
	.quad	11
	.quad	64
	.quad	.LC36
	.quad	.LC8
	.quad	0
	.quad	0
	.quad	0
	.quad	.LC6
	.quad	3
	.quad	64
	.quad	.LC37
	.quad	.LC8
	.quad	0
	.quad	0
	.quad	0
	.text
	.type	_sub_D_00099_0, @function
_sub_D_00099_0:
.LFB1110:
	.cfi_startproc
	endbr64
	pushq	%rbp
	.cfi_def_cfa_offset 16
	.cfi_offset 6, -16
	movq	%rsp, %rbp
	.cfi_def_cfa_register 6
	movl	$21, %esi
	leaq	.LASAN0(%rip), %rax
	movq	%rax, %rdi
	call	__asan_unregister_globals@PLT
	popq	%rbp
	.cfi_def_cfa 7, 8
	ret
	.cfi_endproc
.LFE1110:
	.size	_sub_D_00099_0, .-_sub_D_00099_0
	.section	.fini_array.00099,"aw"
	.align 8
	.quad	_sub_D_00099_0
	.text
	.type	_sub_I_00099_1, @function
_sub_I_00099_1:
.LFB1111:
	.cfi_startproc
	endbr64
	pushq	%rbp
	.cfi_def_cfa_offset 16
	.cfi_offset 6, -16
	movq	%rsp, %rbp
	.cfi_def_cfa_register 6
	call	__asan_init@PLT
	call	__asan_version_mismatch_check_v8@PLT
	movl	$21, %esi
	leaq	.LASAN0(%rip), %rax
	movq	%rax, %rdi
	call	__asan_register_globals@PLT
	popq	%rbp
	.cfi_def_cfa 7, 8
	ret
	.cfi_endproc
.LFE1111:
	.size	_sub_I_00099_1, .-_sub_I_00099_1
	.section	.init_array.00099,"aw"
	.align 8
	.quad	_sub_I_00099_1
	.text
.Letext0:
	.file 2 "/usr/lib/gcc/x86_64-linux-gnu/11/include/stddef.h"
	.file 3 "/usr/include/x86_64-linux-gnu/bits/types.h"
	.file 4 "/usr/include/x86_64-linux-gnu/bits/types/struct_FILE.h"
	.file 5 "/usr/include/x86_64-linux-gnu/bits/types/FILE.h"
	.file 6 "/usr/include/stdlib.h"
	.file 7 "/usr/include/c++/11/cstdlib"
	.file 8 "/usr/include/c++/11/bits/std_abs.h"
	.file 9 "/usr/include/c++/11/cmath"
	.file 10 "/usr/include/c++/11/type_traits"
	.file 11 "/usr/include/c++/11/debug/debug.h"
	.file 12 "/usr/include/c++/11/bits/stl_iterator.h"
	.file 13 "/usr/include/c++/11/bits/predefined_ops.h"
	.file 14 "/usr/include/c++/11/stdlib.h"
	.file 15 "/usr/include/math.h"
	.file 16 "/usr/include/x86_64-linux-gnu/c++/11/bits/c++config.h"
	.file 17 "/usr/include/c++/11/math.h"
	.file 18 "src/../include/asm.h"
	.file 19 "src/../include/stack_objects.h"
	.file 20 "src/../include/cpu.h"
	.file 21 "/usr/include/stdio.h"
	.file 22 "/usr/include/assert.h"
	.file 23 "/usr/include/x86_64-linux-gnu/bits/confname.h"
	.section	.note.GNU-stack,"",@progbits
	.section	.note.gnu.property,"a"
	.align 8
	.long	1f - 0f
	.long	4f - 1f
	.long	5
0:
	.string	"GNU"
1:
	.align 8
	.long	0xc0000002
	.long	3f - 2f
2:
	.long	0x3
3:
	.align 8
4:
