	.file	"cpu_funcs.cpp"
	.text
.Ltext0:
	.file 0 "/home/alexander/GIT/CP" "src/cpu_funcs.cpp"
	.section	.text._ZSt5isnand,"axG",@progbits,_ZSt5isnand,comdat
	.weak	_ZSt5isnand
	.type	_ZSt5isnand, @function
_ZSt5isnand:
.LASANPC109:
.LFB109:
	.file 1 "/usr/include/c++/11/cmath"
	.loc 1 620 3
	.cfi_startproc
	endbr64
	pushq	%rbp
	.cfi_def_cfa_offset 16
	.cfi_offset 6, -16
	movq	%rsp, %rbp
	.cfi_def_cfa_register 6
	movsd	%xmm0, -8(%rbp)
	.loc 1 620 27
	movsd	-8(%rbp), %xmm0
	ucomisd	-8(%rbp), %xmm0
	setp	%al
	movzbl	%al, %eax
	.loc 1 620 31
	testl	%eax, %eax
	setne	%al
	.loc 1 620 34
	popq	%rbp
	.cfi_def_cfa 7, 8
	ret
	.cfi_endproc
.LFE109:
	.size	_ZSt5isnand, .-_ZSt5isnand
	.data
	.align 32
	.type	.Lubsan_type2, @object
	.size	.Lubsan_type2, 13
.Lubsan_type2:
	.value	1
	.value	64
	.string	"'double'"
	.zero	51
	.section	.rodata
	.align 32
	.type	_ZL8ACCURACY, @object
	.size	_ZL8ACCURACY, 4
_ZL8ACCURACY:
	.long	100
	.zero	60
	.align 32
	.type	_ZL18SIZE_OF_LABELS_ARR, @object
	.size	_ZL18SIZE_OF_LABELS_ARR, 4
_ZL18SIZE_OF_LABELS_ARR:
	.long	100
	.zero	60
	.align 32
	.type	_ZL8MASK_CMD, @object
	.size	_ZL8MASK_CMD, 4
_ZL8MASK_CMD:
	.long	63
	.zero	60
	.align 32
	.type	_ZL13STRUCT_CANARY, @object
	.size	_ZL13STRUCT_CANARY, 8
_ZL13STRUCT_CANARY:
	.quad	4027428875
	.zero	56
	.align 32
	.type	_ZL10ARR_CANARY, @object
	.size	_ZL10ARR_CANARY, 8
_ZL10ARR_CANARY:
	.quad	2882382830
	.zero	56
	.align 32
	.type	_ZL11SIZE_OF_RAM, @object
	.size	_ZL11SIZE_OF_RAM, 4
_ZL11SIZE_OF_RAM:
	.long	4096
	.zero	60
	.align 32
.LC0:
	.string	"src/cpu_funcs.cpp"
	.zero	46
	.section	.data.rel.local,"aw"
	.align 32
	.type	.Lubsan_data633, @object
	.size	.Lubsan_data633, 16
.Lubsan_data633:
	.quad	.LC0
	.long	31
	.long	23
	.zero	48
	.data
	.align 32
	.type	.Lubsan_type6, @object
	.size	.Lubsan_type6, 24
.Lubsan_type6:
	.value	-1
	.value	0
	.string	"'struct Cpu_struct'"
	.zero	40
	.section	.data.rel.local
	.align 32
	.type	.Lubsan_data634, @object
	.size	.Lubsan_data634, 32
.Lubsan_data634:
	.quad	.LC0
	.long	33
	.long	11
	.quad	.Lubsan_type6
	.byte	3
	.byte	3
	.zero	6
	.zero	32
	.align 32
	.type	.Lubsan_data635, @object
	.size	.Lubsan_data635, 16
.Lubsan_data635:
	.quad	.LC0
	.long	33
	.long	11
	.zero	48
	.align 32
	.type	.Lubsan_data636, @object
	.size	.Lubsan_data636, 16
.Lubsan_data636:
	.quad	.LC0
	.long	33
	.long	23
	.zero	48
	.align 32
	.type	.Lubsan_data637, @object
	.size	.Lubsan_data637, 32
.Lubsan_data637:
	.quad	.LC0
	.long	35
	.long	10
	.quad	.Lubsan_type6
	.byte	3
	.byte	3
	.zero	6
	.zero	32
	.align 32
	.type	.Lubsan_data638, @object
	.size	.Lubsan_data638, 32
.Lubsan_data638:
	.quad	.LC0
	.long	36
	.long	20
	.quad	.Lubsan_type6
	.byte	3
	.byte	3
	.zero	6
	.zero	32
	.align 32
	.type	.Lubsan_data639, @object
	.size	.Lubsan_data639, 16
.Lubsan_data639:
	.quad	.LC0
	.long	36
	.long	20
	.zero	48
	.globl	__asan_stack_malloc_1
	.section	.rodata
	.align 8
.LC1:
	.string	"3 32 4 7 version 48 4 5 shift 64 4 11 delta_shift"
	.align 32
.LC2:
	.string	"void check_executable_file(FILE*, Cpu_struct*)"
	.zero	49
	.align 32
.LC3:
	.string	"extension != NULL"
	.zero	46
	.align 32
.LC4:
	.string	"first_line != NULL"
	.zero	45
	.align 32
.LC5:
	.string	"%s%n"
	.zero	59
	.align 32
.LC6:
	.string	"%d%n"
	.zero	59
	.section	.data.rel.local
	.align 32
	.type	.Lubsan_data640, @object
	.size	.Lubsan_data640, 24
.Lubsan_data640:
	.quad	.LC0
	.long	32
	.long	11
	.quad	.Lubsan_type4
	.zero	40
	.section	.rodata
	.align 32
.LC7:
	.string	"%zd"
	.zero	60
	.align 32
.LC8:
	.string	"strcmp(extension,cpu->extension) == 0"
	.zero	58
	.align 32
.LC9:
	.string	"version == cpu->version"
	.zero	40
	.text
	.globl	_Z21check_executable_fileP8_IO_FILEP10Cpu_struct
	.type	_Z21check_executable_fileP8_IO_FILEP10Cpu_struct, @function
_Z21check_executable_fileP8_IO_FILEP10Cpu_struct:
.LASANPC1114:
.LFB1114:
	.file 2 "src/cpu_funcs.cpp"
	.loc 2 16 1
	.cfi_startproc
	endbr64
	pushq	%rbp
	.cfi_def_cfa_offset 16
	.cfi_offset 6, -16
	movq	%rsp, %rbp
	.cfi_def_cfa_register 6
	pushq	%r15
	pushq	%r14
	pushq	%r13
	pushq	%r12
	pushq	%rbx
	subq	$152, %rsp
	.cfi_offset 15, -24
	.cfi_offset 14, -32
	.cfi_offset 13, -40
	.cfi_offset 12, -48
	.cfi_offset 3, -56
	movq	%rdi, -168(%rbp)
	movq	%rsi, -176(%rbp)
	leaq	-144(%rbp), %r12
	movq	%r12, -184(%rbp)
	cmpl	$0, __asan_option_detect_stack_use_after_return(%rip)
	je	.L3
	movl	$96, %edi
	call	__asan_stack_malloc_1@PLT
	testq	%rax, %rax
	je	.L3
	movq	%rax, %r12
.L3:
	leaq	96(%r12), %rax
	movq	%rax, %rbx
	movq	$1102416563, (%r12)
	leaq	.LC1(%rip), %rax
	movq	%rax, 8(%r12)
	leaq	.LASANPC1114(%rip), %rax
	movq	%rax, 16(%r12)
	movq	%r12, %r13
	shrq	$3, %r13
	movl	$-235802127, 2147450880(%r13)
	movl	$-234556924, 2147450884(%r13)
	movl	$-202116348, 2147450888(%r13)
	.loc 2 17 37
	movl	$8, %esi
	movl	$1, %edi
	call	calloc@PLT
	movq	%rax, -160(%rbp)
	.loc 2 18 12
	cmpq	$0, -160(%rbp)
	jne	.L7
	.loc 2 18 39 discriminator 1
	call	__asan_handle_no_return@PLT
	leaq	.LC2(%rip), %rax
	movq	%rax, %rcx
	movl	$18, %edx
	leaq	.LC0(%rip), %rax
	movq	%rax, %rsi
	leaq	.LC3(%rip), %rax
	movq	%rax, %rdi
	call	__assert_fail@PLT
.L7:
	.loc 2 20 9
	leaq	-64(%rbx), %rax
	movq	%rax, %rdx
	movq	%rdx, %rax
	shrq	$3, %rax
	addq	$2147450880, %rax
	movzbl	(%rax), %eax
	testb	%al, %al
	setne	%cl
	cmpb	$3, %al
	setle	%al
	andl	%ecx, %eax
	testb	%al, %al
	je	.L8
	movq	%rdx, %rdi
	call	__asan_report_store4@PLT
.L8:
	movl	$0, -64(%rbx)
	.loc 2 22 38
	movl	$8, %esi
	movl	$32, %edi
	call	calloc@PLT
	movq	%rax, -152(%rbp)
	.loc 2 23 12
	cmpq	$0, -152(%rbp)
	jne	.L9
	.loc 2 23 39 discriminator 1
	call	__asan_handle_no_return@PLT
	leaq	.LC2(%rip), %rax
	movq	%rax, %rcx
	movl	$23, %edx
	leaq	.LC0(%rip), %rax
	movq	%rax, %rsi
	leaq	.LC4(%rip), %rax
	movq	%rax, %rdi
	call	__assert_fail@PLT
.L9:
	.loc 2 25 10
	movq	-168(%rbp), %rdx
	movq	-152(%rbp), %rax
	movl	$32, %esi
	movq	%rax, %rdi
	call	fgets@PLT
	.loc 2 27 9
	leaq	-48(%rbx), %rax
	movq	%rax, %rdx
	movq	%rdx, %rax
	shrq	$3, %rax
	addq	$2147450880, %rax
	movzbl	(%rax), %eax
	testb	%al, %al
	setne	%cl
	cmpb	$3, %al
	setle	%al
	andl	%ecx, %eax
	testb	%al, %al
	je	.L10
	movq	%rdx, %rdi
	call	__asan_report_store4@PLT
.L10:
	movl	$0, -48(%rbx)
	.loc 2 28 9
	leaq	-32(%rbx), %rax
	movq	%rax, %rdx
	movq	%rdx, %rax
	shrq	$3, %rax
	addq	$2147450880, %rax
	movzbl	(%rax), %eax
	testb	%al, %al
	setne	%cl
	cmpb	$3, %al
	setle	%al
	andl	%ecx, %eax
	testb	%al, %al
	je	.L11
	movq	%rdx, %rdi
	call	__asan_report_store4@PLT
.L11:
	movl	$0, -32(%rbx)
	.loc 2 30 11
	leaq	-48(%rbx), %rcx
	movq	-160(%rbp), %rdx
	movq	-152(%rbp), %rax
	leaq	.LC5(%rip), %rsi
	movq	%rax, %rdi
	movl	$0, %eax
	call	__isoc99_sscanf@PLT
	.loc 2 31 25
	leaq	-48(%rbx), %rax
	movq	%rax, %rdx
	movq	%rdx, %rax
	shrq	$3, %rax
	addq	$2147450880, %rax
	movzbl	(%rax), %eax
	testb	%al, %al
	setne	%cl
	cmpb	$3, %al
	setle	%al
	andl	%ecx, %eax
	testb	%al, %al
	je	.L12
	movq	%rdx, %rdi
	call	__asan_report_load4@PLT
.L12:
	movl	-48(%rbx), %eax
	movslq	%eax, %r14
	.loc 2 31 23
	movq	-152(%rbp), %rdx
	leaq	(%rdx,%r14), %rax
	movq	%r14, %rcx
	notq	%rcx
	shrq	$63, %rcx
	testb	%cl, %cl
	je	.L13
	cmpq	%rdx, %rax
	jnb	.L14
.L15:
	movq	-152(%rbp), %rcx
	movq	%rax, %rdx
	movq	%rcx, %rsi
	leaq	.Lubsan_data633(%rip), %rax
	movq	%rax, %rdi
	call	__ubsan_handle_pointer_overflow@PLT
	jmp	.L14
.L13:
	cmpq	%rdx, %rax
	ja	.L15
.L14:
	movq	-152(%rbp), %rax
	leaq	(%r14,%rax), %rdi
	.loc 2 31 11
	leaq	-32(%rbx), %rdx
	leaq	-64(%rbx), %rax
	movq	%rdx, %rcx
	movq	%rax, %rdx
	leaq	.LC6(%rip), %rax
	movq	%rax, %rsi
	movl	$0, %eax
	call	__isoc99_sscanf@PLT
	.loc 2 32 11
	leaq	-48(%rbx), %rax
	movq	%rax, %rdx
	movq	%rdx, %rax
	shrq	$3, %rax
	addq	$2147450880, %rax
	movzbl	(%rax), %eax
	testb	%al, %al
	setne	%cl
	cmpb	$3, %al
	setle	%al
	andl	%ecx, %eax
	testb	%al, %al
	je	.L16
	movq	%rdx, %rdi
	call	__asan_report_load4@PLT
.L16:
	movl	-48(%rbx), %eax
	leaq	-32(%rbx), %rdx
	movq	%rdx, %rcx
	movq	%rcx, %rdx
	shrq	$3, %rdx
	addq	$2147450880, %rdx
	movzbl	(%rdx), %edx
	testb	%dl, %dl
	setne	%sil
	cmpb	$3, %dl
	setle	%dl
	andl	%esi, %edx
	testb	%dl, %dl
	je	.L17
	movq	%rcx, %rdi
	call	__asan_report_load4@PLT
.L17:
	movl	-32(%rbx), %edx
	movl	%eax, %r14d
	addl	%edx, %r14d
	jno	.L18
	movslq	%edx, %rdx
	cltq
	movq	%rax, %rsi
	leaq	.Lubsan_data640(%rip), %rax
	movq	%rax, %rdi
	call	__ubsan_handle_add_overflow@PLT
.L18:
	movl	%r14d, %eax
	movl	%eax, -48(%rbx)
	.loc 2 33 11
	movq	-176(%rbp), %rax
	cmpq	$0, -176(%rbp)
	je	.L20
	movq	%rax, %rdx
	andl	$7, %edx
	testq	%rdx, %rdx
	je	.L21
.L20:
	movq	%rax, %rsi
	leaq	.Lubsan_data634(%rip), %rax
	movq	%rax, %rdi
	call	__ubsan_handle_type_mismatch_v1@PLT
.L21:
	movq	-176(%rbp), %rax
	leaq	24(%rax), %rdx
	cmpq	$-24, %rax
	jb	.L22
	movq	-176(%rbp), %rax
	movq	%rax, %rsi
	leaq	.Lubsan_data635(%rip), %rax
	movq	%rax, %rdi
	call	__ubsan_handle_pointer_overflow@PLT
.L22:
	movq	-176(%rbp), %rax
	leaq	24(%rax), %r15
	.loc 2 33 25
	movl	-48(%rbx), %eax
	movslq	%eax, %r14
	.loc 2 33 23
	movq	-152(%rbp), %rdx
	leaq	(%rdx,%r14), %rax
	movq	%r14, %rcx
	notq	%rcx
	shrq	$63, %rcx
	testb	%cl, %cl
	je	.L23
	cmpq	%rdx, %rax
	jnb	.L24
.L25:
	movq	-152(%rbp), %rcx
	movq	%rax, %rdx
	movq	%rcx, %rsi
	leaq	.Lubsan_data636(%rip), %rax
	movq	%rax, %rdi
	call	__ubsan_handle_pointer_overflow@PLT
	jmp	.L24
.L23:
	cmpq	%rdx, %rax
	ja	.L25
.L24:
	movq	-152(%rbp), %rax
	addq	%r14, %rax
	.loc 2 33 11
	movq	%r15, %rdx
	leaq	.LC7(%rip), %rcx
	movq	%rcx, %rsi
	movq	%rax, %rdi
	movl	$0, %eax
	call	__isoc99_sscanf@PLT
	.loc 2 35 10
	movq	-176(%rbp), %rax
	cmpq	$0, -176(%rbp)
	je	.L26
	movq	%rax, %rdx
	andl	$7, %edx
	testq	%rdx, %rdx
	je	.L27
.L26:
	movq	%rax, %rsi
	leaq	.Lubsan_data637(%rip), %rax
	movq	%rax, %rdi
	call	__ubsan_handle_type_mismatch_v1@PLT
.L27:
	movq	-176(%rbp), %rax
	movq	%rax, %rdx
	shrq	$3, %rdx
	addq	$2147450880, %rdx
	movzbl	(%rdx), %edx
	testb	%dl, %dl
	je	.L28
	movq	%rax, %rdi
	call	__asan_report_load8@PLT
.L28:
	movq	-176(%rbp), %rax
	movq	(%rax), %r14
	cmpq	$0, -160(%rbp)
	jne	.L29
	leaq	.Lubsan_data592(%rip), %rax
	movq	%rax, %rdi
	call	__ubsan_handle_nonnull_arg@PLT
.L29:
	testq	%r14, %r14
	jne	.L30
	leaq	.Lubsan_data593(%rip), %rax
	movq	%rax, %rdi
	call	__ubsan_handle_nonnull_arg@PLT
.L30:
	movq	-160(%rbp), %rax
	movq	%r14, %rsi
	movq	%rax, %rdi
	call	strcmp@PLT
	.loc 2 35 6
	testl	%eax, %eax
	je	.L31
	.loc 2 35 33 discriminator 1
	call	__asan_handle_no_return@PLT
	leaq	.LC2(%rip), %rax
	movq	%rax, %rcx
	movl	$35, %edx
	leaq	.LC0(%rip), %rax
	movq	%rax, %rsi
	leaq	.LC8(%rip), %rax
	movq	%rax, %rdi
	call	__assert_fail@PLT
.L31:
	.loc 2 36 20
	movq	-176(%rbp), %rax
	cmpq	$0, -176(%rbp)
	je	.L32
	movq	%rax, %rdx
	andl	$7, %edx
	testq	%rdx, %rdx
	je	.L33
.L32:
	movq	%rax, %rsi
	leaq	.Lubsan_data638(%rip), %rax
	movq	%rax, %rdi
	call	__ubsan_handle_type_mismatch_v1@PLT
.L33:
	movq	-176(%rbp), %rax
	leaq	8(%rax), %rdx
	cmpq	$-8, %rax
	jb	.L34
	movq	-176(%rbp), %rax
	movq	%rax, %rsi
	leaq	.Lubsan_data639(%rip), %rax
	movq	%rax, %rdi
	call	__ubsan_handle_pointer_overflow@PLT
.L34:
	movq	-176(%rbp), %rax
	addq	$8, %rax
	movq	%rax, %rdx
	movq	%rdx, %rax
	shrq	$3, %rax
	addq	$2147450880, %rax
	movzbl	(%rax), %eax
	testb	%al, %al
	setne	%cl
	cmpb	$3, %al
	setle	%al
	andl	%ecx, %eax
	testb	%al, %al
	je	.L35
	movq	%rdx, %rdi
	call	__asan_report_load4@PLT
.L35:
	movq	-176(%rbp), %rax
	movl	8(%rax), %ecx
	.loc 2 36 12
	leaq	-64(%rbx), %rax
	movq	%rax, %rdx
	movq	%rdx, %rax
	shrq	$3, %rax
	addq	$2147450880, %rax
	movzbl	(%rax), %eax
	testb	%al, %al
	setne	%sil
	cmpb	$3, %al
	setle	%al
	andl	%esi, %eax
	testb	%al, %al
	je	.L36
	movq	%rdx, %rdi
	call	__asan_report_load4@PLT
.L36:
	movl	-64(%rbx), %eax
	.loc 2 36 6
	cmpl	%eax, %ecx
	je	.L37
	.loc 2 36 33 discriminator 1
	call	__asan_handle_no_return@PLT
	leaq	.LC2(%rip), %rax
	movq	%rax, %rcx
	movl	$36, %edx
	leaq	.LC0(%rip), %rax
	movq	%rax, %rsi
	leaq	.LC9(%rip), %rax
	movq	%rax, %rdi
	call	__assert_fail@PLT
.L37:
	.loc 2 39 9
	movq	-160(%rbp), %rax
	movq	%rax, %rdi
	call	free@PLT
	.loc 2 40 9
	movq	-152(%rbp), %rax
	movq	%rax, %rdi
	call	free@PLT
	.loc 2 41 1
	nop
	.loc 2 16 1
	cmpq	%r12, -184(%rbp)
	je	.L4
	movq	$1172321806, (%r12)
	movabsq	$-723401728380766731, %rax
	movq	%rax, 2147450880(%r13)
	movl	$-168430091, 2147450888(%r13)
	movq	120(%r12), %rax
	movb	$0, (%rax)
	jmp	.L5
.L4:
	movq	$0, 2147450880(%r13)
	movl	$0, 2147450888(%r13)
.L5:
	.loc 2 41 1
	addq	$152, %rsp
	popq	%rbx
	popq	%r12
	popq	%r13
	popq	%r14
	popq	%r15
	popq	%rbp
	.cfi_def_cfa 7, 8
	ret
	.cfi_endproc
.LFE1114:
	.size	_Z21check_executable_fileP8_IO_FILEP10Cpu_struct, .-_Z21check_executable_fileP8_IO_FILEP10Cpu_struct
	.globl	__asan_stack_malloc_2
	.section	.rodata
.LC10:
	.string	"1 48 144 4 data"
	.align 32
.LC11:
	.string	"size_t know_size_for_buff(FILE*, const char*)"
	.zero	50
	.align 32
.LC12:
	.string	"text != NULL"
	.zero	51
	.align 32
.LC13:
	.string	"name_of_file != NULL"
	.zero	43
	.align 32
.LC14:
	.string	"Trying to find size of dir"
	.zero	37
	.text
	.globl	_Z18know_size_for_buffP8_IO_FILEPKc
	.type	_Z18know_size_for_buffP8_IO_FILEPKc, @function
_Z18know_size_for_buffP8_IO_FILEPKc:
.LASANPC1115:
.LFB1115:
	.loc 2 44 1
	.cfi_startproc
	endbr64
	pushq	%rbp
	.cfi_def_cfa_offset 16
	.cfi_offset 6, -16
	movq	%rsp, %rbp
	.cfi_def_cfa_register 6
	pushq	%r14
	pushq	%r13
	pushq	%r12
	pushq	%rbx
	subq	$272, %rsp
	.cfi_offset 14, -24
	.cfi_offset 13, -32
	.cfi_offset 12, -40
	.cfi_offset 3, -48
	movq	%rdi, -296(%rbp)
	movq	%rsi, -304(%rbp)
	leaq	-288(%rbp), %rbx
	movq	%rbx, %r14
	cmpl	$0, __asan_option_detect_stack_use_after_return(%rip)
	je	.L38
	movl	$256, %edi
	call	__asan_stack_malloc_2@PLT
	testq	%rax, %rax
	je	.L38
	movq	%rax, %rbx
.L38:
	leaq	256(%rbx), %rax
	movq	%rax, %r13
	movq	$1102416563, (%rbx)
	leaq	.LC10(%rip), %rax
	movq	%rax, 8(%rbx)
	leaq	.LASANPC1115(%rip), %rax
	movq	%rax, 16(%rbx)
	movq	%rbx, %r12
	shrq	$3, %r12
	movl	$-235802127, 2147450880(%r12)
	movl	$61937, 2147450884(%r12)
	movl	$-202116109, 2147450904(%r12)
	movl	$-202116109, 2147450908(%r12)
	.loc 2 45 12
	cmpq	$0, -296(%rbp)
	jne	.L42
	.loc 2 45 39 discriminator 1
	call	__asan_handle_no_return@PLT
	leaq	.LC11(%rip), %rax
	movq	%rax, %rcx
	movl	$45, %edx
	leaq	.LC0(%rip), %rax
	movq	%rax, %rsi
	leaq	.LC12(%rip), %rax
	movq	%rax, %rdi
	call	__assert_fail@PLT
.L42:
	.loc 2 46 12
	cmpq	$0, -304(%rbp)
	jne	.L43
	.loc 2 46 39 discriminator 1
	call	__asan_handle_no_return@PLT
	leaq	.LC11(%rip), %rax
	movq	%rax, %rcx
	movl	$46, %edx
	leaq	.LC0(%rip), %rax
	movq	%rax, %rsi
	leaq	.LC13(%rip), %rax
	movq	%rax, %rdi
	call	__assert_fail@PLT
.L43:
	.loc 2 48 17
	leaq	-208(%r13), %rax
	movq	%rax, %rdx
	shrq	$3, %rdx
	addq	$2147450880, %rdx
	movzbl	(%rdx), %edx
	testb	%dl, %dl
	setne	%cl
	testb	%dl, %dl
	setle	%dl
	movl	%ecx, %esi
	andl	%edx, %esi
	movl	$144, %edx
	subq	$1, %rdx
	leaq	(%rax,%rdx), %rcx
	movq	%rcx, %rdx
	shrq	$3, %rdx
	addq	$2147450880, %rdx
	movzbl	(%rdx), %edx
	testb	%dl, %dl
	setne	%dil
	andl	$7, %ecx
	cmpb	%dl, %cl
	setge	%dl
	andl	%edi, %edx
	orl	%esi, %edx
	testb	%dl, %dl
	je	.L44
	movl	$144, %esi
	movq	%rax, %rdi
	call	__asan_report_store_n@PLT
.L44:
	leaq	-208(%r13), %rdx
	movl	$0, %eax
	movl	$18, %ecx
	movq	%rdx, %rdi
	rep stosq
	.loc 2 49 9
	cmpq	$0, -304(%rbp)
	jne	.L45
	leaq	.Lubsan_data594(%rip), %rax
	movq	%rax, %rdi
	call	__ubsan_handle_nonnull_arg@PLT
.L45:
	leaq	-208(%r13), %rdx
	movq	-304(%rbp), %rax
	movq	%rdx, %rsi
	movq	%rax, %rdi
	call	stat@PLT
	.loc 2 51 16
	leaq	-208(%r13), %rax
	addq	$24, %rax
	movq	%rax, %rdx
	movq	%rdx, %rax
	shrq	$3, %rax
	addq	$2147450880, %rax
	movzbl	(%rax), %eax
	testb	%al, %al
	setne	%cl
	cmpb	$3, %al
	setle	%al
	andl	%ecx, %eax
	testb	%al, %al
	je	.L46
	movq	%rdx, %rdi
	call	__asan_report_load4@PLT
.L46:
	movl	-184(%r13), %eax
	.loc 2 51 24
	andl	$61440, %eax
	.loc 2 51 5
	cmpl	$16384, %eax
	jne	.L47
	.loc 2 53 19
	leaq	.LC14(%rip), %rax
	movq	%rax, %rdi
	movl	$0, %eax
	call	printf@PLT
	.loc 2 54 18
	call	__asan_handle_no_return@PLT
	call	abort@PLT
.L47:
	.loc 2 57 17
	leaq	-208(%r13), %rax
	addq	$48, %rax
	movq	%rax, %rdx
	shrq	$3, %rdx
	addq	$2147450880, %rdx
	movzbl	(%rdx), %edx
	testb	%dl, %dl
	je	.L48
	movq	%rax, %rdi
	call	__asan_report_load8@PLT
.L48:
	movq	-160(%r13), %rax
	movq	%rax, %rdx
	.loc 2 44 1
	cmpq	%rbx, %r14
	je	.L39
	movq	$1172321806, (%rbx)
	movabsq	$-723401728380766731, %rsi
	movabsq	$-723401728380766731, %rdi
	movq	%rsi, 2147450880(%r12)
	movq	%rdi, 2147450888(%r12)
	movq	%rsi, 2147450896(%r12)
	movq	%rdi, 2147450904(%r12)
	movq	248(%rbx), %rax
	movb	$0, (%rax)
	jmp	.L40
.L39:
	movq	$0, 2147450880(%r12)
	movq	$0, 2147450904(%r12)
.L40:
	.loc 2 58 1
	movq	%rdx, %rax
	addq	$272, %rsp
	popq	%rbx
	popq	%r12
	popq	%r13
	popq	%r14
	popq	%rbp
	.cfi_def_cfa 7, 8
	ret
	.cfi_endproc
.LFE1115:
	.size	_Z18know_size_for_buffP8_IO_FILEPKc, .-_Z18know_size_for_buffP8_IO_FILEPKc
	.section	.data.rel.local
	.align 32
	.type	.Lubsan_data641, @object
	.size	.Lubsan_data641, 32
.Lubsan_data641:
	.quad	.LC0
	.long	62
	.long	15
	.quad	.Lubsan_type6
	.byte	3
	.byte	3
	.zero	6
	.zero	32
	.align 32
	.type	.Lubsan_data642, @object
	.size	.Lubsan_data642, 16
.Lubsan_data642:
	.quad	.LC0
	.long	62
	.long	15
	.zero	48
	.align 32
	.type	.Lubsan_data643, @object
	.size	.Lubsan_data643, 32
.Lubsan_data643:
	.quad	.LC0
	.long	64
	.long	39
	.quad	.Lubsan_type6
	.byte	3
	.byte	3
	.zero	6
	.zero	32
	.align 32
	.type	.Lubsan_data644, @object
	.size	.Lubsan_data644, 16
.Lubsan_data644:
	.quad	.LC0
	.long	64
	.long	39
	.zero	48
	.align 32
	.type	.Lubsan_data645, @object
	.size	.Lubsan_data645, 32
.Lubsan_data645:
	.quad	.LC0
	.long	64
	.long	17
	.quad	.Lubsan_type6
	.byte	3
	.byte	3
	.zero	6
	.zero	32
	.align 32
	.type	.Lubsan_data646, @object
	.size	.Lubsan_data646, 16
.Lubsan_data646:
	.quad	.LC0
	.long	64
	.long	17
	.zero	48
	.align 32
	.type	.Lubsan_data647, @object
	.size	.Lubsan_data647, 32
.Lubsan_data647:
	.quad	.LC0
	.long	67
	.long	56
	.quad	.Lubsan_type6
	.byte	3
	.byte	3
	.zero	6
	.zero	32
	.align 32
	.type	.Lubsan_data648, @object
	.size	.Lubsan_data648, 16
.Lubsan_data648:
	.quad	.LC0
	.long	67
	.long	56
	.zero	48
	.align 32
	.type	.Lubsan_data649, @object
	.size	.Lubsan_data649, 32
.Lubsan_data649:
	.quad	.LC0
	.long	67
	.long	29
	.quad	.Lubsan_type6
	.byte	3
	.byte	3
	.zero	6
	.zero	32
	.align 32
	.type	.Lubsan_data650, @object
	.size	.Lubsan_data650, 16
.Lubsan_data650:
	.quad	.LC0
	.long	67
	.long	29
	.zero	48
	.section	.rodata
	.align 32
.LC15:
	.string	"void fill_cpu_struct(FILE*, Cpu_struct*, const char*)"
	.zero	42
	.align 32
.LC16:
	.string	"test_fread != 0"
	.zero	48
	.text
	.globl	_Z15fill_cpu_structP8_IO_FILEP10Cpu_structPKc
	.type	_Z15fill_cpu_structP8_IO_FILEP10Cpu_structPKc, @function
_Z15fill_cpu_structP8_IO_FILEP10Cpu_structPKc:
.LASANPC1116:
.LFB1116:
	.loc 2 61 1
	.cfi_startproc
	endbr64
	pushq	%rbp
	.cfi_def_cfa_offset 16
	.cfi_offset 6, -16
	movq	%rsp, %rbp
	.cfi_def_cfa_register 6
	pushq	%rbx
	subq	$56, %rsp
	.cfi_offset 3, -24
	movq	%rdi, -40(%rbp)
	movq	%rsi, -48(%rbp)
	movq	%rdx, -56(%rbp)
	.loc 2 62 35
	movq	-56(%rbp), %rdx
	movq	-40(%rbp), %rax
	movq	%rdx, %rsi
	movq	%rax, %rdi
	call	_Z18know_size_for_buffP8_IO_FILEPKc
	movq	%rax, %rbx
	.loc 2 62 15
	movq	-48(%rbp), %rax
	cmpq	$0, -48(%rbp)
	je	.L51
	movq	%rax, %rdx
	andl	$7, %edx
	testq	%rdx, %rdx
	je	.L52
.L51:
	movq	%rax, %rsi
	leaq	.Lubsan_data641(%rip), %rax
	movq	%rax, %rdi
	call	__ubsan_handle_type_mismatch_v1@PLT
.L52:
	movq	-48(%rbp), %rax
	leaq	16(%rax), %rdx
	cmpq	$-16, %rax
	jb	.L53
	movq	-48(%rbp), %rax
	movq	%rax, %rsi
	leaq	.Lubsan_data642(%rip), %rax
	movq	%rax, %rdi
	call	__ubsan_handle_pointer_overflow@PLT
.L53:
	movq	-48(%rbp), %rax
	addq	$16, %rax
	movq	%rax, %rdx
	shrq	$3, %rdx
	addq	$2147450880, %rdx
	movzbl	(%rdx), %edx
	testb	%dl, %dl
	je	.L54
	movq	%rax, %rdi
	call	__asan_report_store8@PLT
.L54:
	movq	-48(%rbp), %rax
	movq	%rbx, 16(%rax)
	.loc 2 64 39
	movq	-48(%rbp), %rax
	cmpq	$0, -48(%rbp)
	je	.L55
	movq	%rax, %rdx
	andl	$7, %edx
	testq	%rdx, %rdx
	je	.L56
.L55:
	movq	%rax, %rsi
	leaq	.Lubsan_data643(%rip), %rax
	movq	%rax, %rdi
	call	__ubsan_handle_type_mismatch_v1@PLT
.L56:
	movq	-48(%rbp), %rax
	leaq	16(%rax), %rdx
	cmpq	$-16, %rax
	jb	.L57
	movq	-48(%rbp), %rax
	movq	%rax, %rsi
	leaq	.Lubsan_data644(%rip), %rax
	movq	%rax, %rdi
	call	__ubsan_handle_pointer_overflow@PLT
.L57:
	movq	-48(%rbp), %rax
	movq	16(%rax), %rax
	.loc 2 64 33
	movl	$1, %esi
	movq	%rax, %rdi
	call	calloc@PLT
	movq	%rax, %rbx
	.loc 2 64 17
	movq	-48(%rbp), %rax
	cmpq	$0, -48(%rbp)
	je	.L58
	movq	%rax, %rdx
	andl	$7, %edx
	testq	%rdx, %rdx
	je	.L59
.L58:
	movq	%rax, %rsi
	leaq	.Lubsan_data645(%rip), %rax
	movq	%rax, %rdi
	call	__ubsan_handle_type_mismatch_v1@PLT
.L59:
	movq	-48(%rbp), %rax
	leaq	32(%rax), %rdx
	cmpq	$-32, %rax
	jb	.L60
	movq	-48(%rbp), %rax
	movq	%rax, %rsi
	leaq	.Lubsan_data646(%rip), %rax
	movq	%rax, %rdi
	call	__ubsan_handle_pointer_overflow@PLT
.L60:
	movq	-48(%rbp), %rax
	addq	$32, %rax
	movq	%rax, %rdx
	shrq	$3, %rdx
	addq	$2147450880, %rdx
	movzbl	(%rdx), %edx
	testb	%dl, %dl
	je	.L61
	movq	%rax, %rdi
	call	__asan_report_store8@PLT
.L61:
	movq	-48(%rbp), %rax
	movq	%rbx, 32(%rax)
	.loc 2 66 9
	movl	$0, -20(%rbp)
	.loc 2 67 56
	movq	-48(%rbp), %rax
	cmpq	$0, -48(%rbp)
	je	.L62
	movq	%rax, %rdx
	andl	$7, %edx
	testq	%rdx, %rdx
	je	.L63
.L62:
	movq	%rax, %rsi
	leaq	.Lubsan_data647(%rip), %rax
	movq	%rax, %rdi
	call	__ubsan_handle_type_mismatch_v1@PLT
.L63:
	movq	-48(%rbp), %rax
	leaq	16(%rax), %rdx
	cmpq	$-16, %rax
	jb	.L64
	movq	-48(%rbp), %rax
	movq	%rax, %rsi
	leaq	.Lubsan_data648(%rip), %rax
	movq	%rax, %rdi
	call	__ubsan_handle_pointer_overflow@PLT
.L64:
	movq	-48(%rbp), %rax
	movq	16(%rax), %rax
	.loc 2 67 23
	movq	%rax, %rbx
	.loc 2 67 29
	movq	-48(%rbp), %rax
	cmpq	$0, -48(%rbp)
	je	.L65
	movq	%rax, %rdx
	andl	$7, %edx
	testq	%rdx, %rdx
	je	.L66
.L65:
	movq	%rax, %rsi
	leaq	.Lubsan_data649(%rip), %rax
	movq	%rax, %rdi
	call	__ubsan_handle_type_mismatch_v1@PLT
.L66:
	movq	-48(%rbp), %rax
	leaq	32(%rax), %rdx
	cmpq	$-32, %rax
	jb	.L67
	movq	-48(%rbp), %rax
	movq	%rax, %rsi
	leaq	.Lubsan_data650(%rip), %rax
	movq	%rax, %rdi
	call	__ubsan_handle_pointer_overflow@PLT
.L67:
	movq	-48(%rbp), %rax
	movq	32(%rax), %rax
	.loc 2 67 23
	movq	-40(%rbp), %rdx
	movq	%rdx, %rcx
	movq	%rbx, %rdx
	movl	$1, %esi
	movq	%rax, %rdi
	call	fread@PLT
	.loc 2 67 16
	movl	%eax, -20(%rbp)
	.loc 2 68 6
	cmpl	$0, -20(%rbp)
	jne	.L68
	.loc 2 68 33 discriminator 1
	call	__asan_handle_no_return@PLT
	leaq	.LC15(%rip), %rax
	movq	%rax, %rcx
	movl	$68, %edx
	leaq	.LC0(%rip), %rax
	movq	%rax, %rsi
	leaq	.LC16(%rip), %rax
	movq	%rax, %rdi
	call	__assert_fail@PLT
.L68:
	.loc 2 70 20
	movq	-48(%rbp), %rax
	movq	%rax, %rdi
	call	_Z15make_num_bufferP10Cpu_struct
	.loc 2 71 1
	nop
	movq	-8(%rbp), %rbx
	leave
	.cfi_def_cfa 7, 8
	ret
	.cfi_endproc
.LFE1116:
	.size	_Z15fill_cpu_structP8_IO_FILEP10Cpu_structPKc, .-_Z15fill_cpu_structP8_IO_FILEP10Cpu_structPKc
	.section	.data.rel.local
	.align 32
	.type	.Lubsan_data651, @object
	.size	.Lubsan_data651, 32
.Lubsan_data651:
	.quad	.LC0
	.long	75
	.long	15
	.quad	.Lubsan_type6
	.byte	3
	.byte	3
	.zero	6
	.zero	32
	.align 32
	.type	.Lubsan_data652, @object
	.size	.Lubsan_data652, 16
.Lubsan_data652:
	.quad	.LC0
	.long	75
	.long	15
	.zero	48
	.align 32
	.type	.Lubsan_data653, @object
	.size	.Lubsan_data653, 32
.Lubsan_data653:
	.quad	.LC0
	.long	76
	.long	15
	.quad	.Lubsan_type6
	.byte	3
	.byte	3
	.zero	6
	.zero	32
	.align 32
	.type	.Lubsan_data654, @object
	.size	.Lubsan_data654, 16
.Lubsan_data654:
	.quad	.LC0
	.long	76
	.long	15
	.zero	48
	.text
	.globl	_Z16dtor_exec_no_binP10Cpu_struct
	.type	_Z16dtor_exec_no_binP10Cpu_struct, @function
_Z16dtor_exec_no_binP10Cpu_struct:
.LASANPC1117:
.LFB1117:
	.loc 2 74 1
	.cfi_startproc
	endbr64
	pushq	%rbp
	.cfi_def_cfa_offset 16
	.cfi_offset 6, -16
	movq	%rsp, %rbp
	.cfi_def_cfa_register 6
	subq	$16, %rsp
	movq	%rdi, -8(%rbp)
	.loc 2 75 15
	movq	-8(%rbp), %rax
	cmpq	$0, -8(%rbp)
	je	.L70
	movq	%rax, %rdx
	andl	$7, %edx
	testq	%rdx, %rdx
	je	.L71
.L70:
	movq	%rax, %rsi
	leaq	.Lubsan_data651(%rip), %rax
	movq	%rax, %rdi
	call	__ubsan_handle_type_mismatch_v1@PLT
.L71:
	movq	-8(%rbp), %rax
	leaq	32(%rax), %rdx
	cmpq	$-32, %rax
	jb	.L72
	movq	-8(%rbp), %rax
	movq	%rax, %rsi
	leaq	.Lubsan_data652(%rip), %rax
	movq	%rax, %rdi
	call	__ubsan_handle_pointer_overflow@PLT
.L72:
	movq	-8(%rbp), %rax
	addq	$32, %rax
	movq	%rax, %rdx
	shrq	$3, %rdx
	addq	$2147450880, %rdx
	movzbl	(%rdx), %edx
	testb	%dl, %dl
	je	.L73
	movq	%rax, %rdi
	call	__asan_report_load8@PLT
.L73:
	movq	-8(%rbp), %rax
	movq	32(%rax), %rax
	.loc 2 75 9
	movq	%rax, %rdi
	call	free@PLT
	.loc 2 76 15
	movq	-8(%rbp), %rax
	cmpq	$0, -8(%rbp)
	je	.L74
	movq	%rax, %rdx
	andl	$7, %edx
	testq	%rdx, %rdx
	je	.L75
.L74:
	movq	%rax, %rsi
	leaq	.Lubsan_data653(%rip), %rax
	movq	%rax, %rdi
	call	__ubsan_handle_type_mismatch_v1@PLT
.L75:
	movq	-8(%rbp), %rax
	leaq	136(%rax), %rdx
	cmpq	$-136, %rax
	jb	.L76
	movq	-8(%rbp), %rax
	movq	%rax, %rsi
	leaq	.Lubsan_data654(%rip), %rax
	movq	%rax, %rdi
	call	__ubsan_handle_pointer_overflow@PLT
.L76:
	movq	-8(%rbp), %rax
	addq	$136, %rax
	movq	%rax, %rdx
	shrq	$3, %rdx
	addq	$2147450880, %rdx
	movzbl	(%rdx), %edx
	testb	%dl, %dl
	je	.L77
	movq	%rax, %rdi
	call	__asan_report_load8@PLT
.L77:
	movq	-8(%rbp), %rax
	movq	136(%rax), %rax
	.loc 2 76 9
	movq	%rax, %rdi
	call	free@PLT
	.loc 2 77 1
	nop
	leave
	.cfi_def_cfa 7, 8
	ret
	.cfi_endproc
.LFE1117:
	.size	_Z16dtor_exec_no_binP10Cpu_struct, .-_Z16dtor_exec_no_binP10Cpu_struct
	.section	.data.rel.local
	.align 32
	.type	.Lubsan_data655, @object
	.size	.Lubsan_data655, 32
.Lubsan_data655:
	.quad	.LC0
	.long	81
	.long	42
	.quad	.Lubsan_type6
	.byte	3
	.byte	3
	.zero	6
	.zero	32
	.align 32
	.type	.Lubsan_data656, @object
	.size	.Lubsan_data656, 16
.Lubsan_data656:
	.quad	.LC0
	.long	81
	.long	42
	.zero	48
	.align 32
	.type	.Lubsan_data657, @object
	.size	.Lubsan_data657, 32
.Lubsan_data657:
	.quad	.LC0
	.long	81
	.long	21
	.quad	.Lubsan_type6
	.byte	3
	.byte	3
	.zero	6
	.zero	32
	.align 32
	.type	.Lubsan_data658, @object
	.size	.Lubsan_data658, 16
.Lubsan_data658:
	.quad	.LC0
	.long	81
	.long	21
	.zero	48
	.align 32
	.type	.Lubsan_data659, @object
	.size	.Lubsan_data659, 32
.Lubsan_data659:
	.quad	.LC0
	.long	89
	.long	21
	.quad	.Lubsan_type6
	.byte	3
	.byte	3
	.zero	6
	.zero	32
	.align 32
	.type	.Lubsan_data660, @object
	.size	.Lubsan_data660, 16
.Lubsan_data660:
	.quad	.LC0
	.long	89
	.long	21
	.zero	48
	.align 32
	.type	.Lubsan_data661, @object
	.size	.Lubsan_data661, 16
.Lubsan_data661:
	.quad	.LC0
	.long	89
	.long	28
	.zero	48
	.align 32
	.type	.Lubsan_data662, @object
	.size	.Lubsan_data662, 32
.Lubsan_data662:
	.quad	.LC0
	.long	92
	.long	14
	.quad	.Lubsan_type6
	.byte	3
	.byte	3
	.zero	6
	.zero	32
	.align 32
	.type	.Lubsan_data663, @object
	.size	.Lubsan_data663, 16
.Lubsan_data663:
	.quad	.LC0
	.long	92
	.long	14
	.zero	48
	.align 32
	.type	.Lubsan_data664, @object
	.size	.Lubsan_data664, 16
.Lubsan_data664:
	.quad	.LC0
	.long	92
	.long	32
	.zero	48
	.data
	.align 32
	.type	.Lubsan_type7, @object
	.size	.Lubsan_type7, 10
.Lubsan_type7:
	.value	-1
	.value	0
	.string	"'int'"
	.zero	54
	.section	.data.rel.local
	.align 32
	.type	.Lubsan_data665, @object
	.size	.Lubsan_data665, 32
.Lubsan_data665:
	.quad	.LC0
	.long	92
	.long	34
	.quad	.Lubsan_type7
	.byte	2
	.byte	1
	.zero	6
	.zero	32
	.align 32
	.type	.Lubsan_data666, @object
	.size	.Lubsan_data666, 32
.Lubsan_data666:
	.quad	.LC0
	.long	87
	.long	46
	.quad	.Lubsan_type6
	.byte	3
	.byte	3
	.zero	6
	.zero	32
	.align 32
	.type	.Lubsan_data667, @object
	.size	.Lubsan_data667, 16
.Lubsan_data667:
	.quad	.LC0
	.long	87
	.long	46
	.zero	48
	.section	.rodata
	.align 8
.LC17:
	.string	"2 48 4 14 delta_shift:84 64 4 6 num:85"
	.section	.data.rel.local
	.align 32
	.type	.Lubsan_data668, @object
	.size	.Lubsan_data668, 24
.Lubsan_data668:
	.quad	.LC0
	.long	90
	.long	15
	.quad	.Lubsan_type4
	.zero	40
	.align 32
	.type	.Lubsan_data669, @object
	.size	.Lubsan_data669, 24
.Lubsan_data669:
	.quad	.LC0
	.long	87
	.long	5
	.quad	.Lubsan_type5
	.zero	40
	.text
	.globl	_Z15make_num_bufferP10Cpu_struct
	.type	_Z15make_num_bufferP10Cpu_struct, @function
_Z15make_num_bufferP10Cpu_struct:
.LASANPC1118:
.LFB1118:
	.loc 2 80 1
	.cfi_startproc
	endbr64
	pushq	%rbp
	.cfi_def_cfa_offset 16
	.cfi_offset 6, -16
	movq	%rsp, %rbp
	.cfi_def_cfa_register 6
	pushq	%r15
	pushq	%r14
	pushq	%r13
	pushq	%r12
	pushq	%rbx
	subq	$136, %rsp
	.cfi_offset 15, -24
	.cfi_offset 14, -32
	.cfi_offset 13, -40
	.cfi_offset 12, -48
	.cfi_offset 3, -56
	movq	%rdi, -168(%rbp)
	leaq	-144(%rbp), %rbx
	movq	%rbx, -176(%rbp)
	cmpl	$0, __asan_option_detect_stack_use_after_return(%rip)
	je	.L78
	movl	$96, %edi
	call	__asan_stack_malloc_1@PLT
	testq	%rax, %rax
	je	.L78
	movq	%rax, %rbx
.L78:
	leaq	96(%rbx), %rax
	movq	%rax, %r12
	movq	$1102416563, (%rbx)
	leaq	.LC17(%rip), %rax
	movq	%rax, 8(%rbx)
	leaq	.LASANPC1118(%rip), %rax
	movq	%rax, 16(%rbx)
	movq	%rbx, %r13
	shrq	$3, %r13
	movl	$-235802127, 2147450880(%r13)
	movl	$-234556943, 2147450884(%r13)
	movl	$-202116348, 2147450888(%r13)
	.loc 2 81 42
	movq	-168(%rbp), %rax
	cmpq	$0, -168(%rbp)
	je	.L82
	movq	%rax, %rdx
	andl	$7, %edx
	testq	%rdx, %rdx
	je	.L83
.L82:
	movq	%rax, %rsi
	leaq	.Lubsan_data655(%rip), %rax
	movq	%rax, %rdi
	call	__ubsan_handle_type_mismatch_v1@PLT
.L83:
	movq	-168(%rbp), %rax
	leaq	24(%rax), %rdx
	cmpq	$-24, %rax
	jb	.L84
	movq	-168(%rbp), %rax
	movq	%rax, %rsi
	leaq	.Lubsan_data656(%rip), %rax
	movq	%rax, %rdi
	call	__ubsan_handle_pointer_overflow@PLT
.L84:
	movq	-168(%rbp), %rax
	addq	$24, %rax
	movq	%rax, %rdx
	shrq	$3, %rdx
	addq	$2147450880, %rdx
	movzbl	(%rdx), %edx
	testb	%dl, %dl
	je	.L85
	movq	%rax, %rdi
	call	__asan_report_load8@PLT
.L85:
	movq	-168(%rbp), %rax
	movq	24(%rax), %rax
	.loc 2 81 36
	movl	$4, %esi
	movq	%rax, %rdi
	call	calloc@PLT
	movq	%rax, %r14
	.loc 2 81 21
	movq	-168(%rbp), %rax
	cmpq	$0, -168(%rbp)
	je	.L86
	movq	%rax, %rdx
	andl	$7, %edx
	testq	%rdx, %rdx
	je	.L87
.L86:
	movq	%rax, %rsi
	leaq	.Lubsan_data657(%rip), %rax
	movq	%rax, %rdi
	call	__ubsan_handle_type_mismatch_v1@PLT
.L87:
	movq	-168(%rbp), %rax
	leaq	136(%rax), %rdx
	cmpq	$-136, %rax
	jb	.L88
	movq	-168(%rbp), %rax
	movq	%rax, %rsi
	leaq	.Lubsan_data658(%rip), %rax
	movq	%rax, %rdi
	call	__ubsan_handle_pointer_overflow@PLT
.L88:
	movq	-168(%rbp), %rax
	addq	$136, %rax
	movq	%rax, %rdx
	shrq	$3, %rdx
	addq	$2147450880, %rdx
	movzbl	(%rdx), %edx
	testb	%dl, %dl
	je	.L89
	movq	%rax, %rdi
	call	__asan_report_store8@PLT
.L89:
	movq	-168(%rbp), %rax
	movq	%r14, 136(%rax)
	.loc 2 83 9
	movl	$0, -156(%rbp)
	.loc 2 84 9
	leaq	-48(%r12), %rax
	movq	%rax, %rdx
	movq	%rdx, %rax
	shrq	$3, %rax
	addq	$2147450880, %rax
	movzbl	(%rax), %eax
	testb	%al, %al
	setne	%cl
	cmpb	$3, %al
	setle	%al
	andl	%ecx, %eax
	testb	%al, %al
	je	.L90
	movq	%rdx, %rdi
	call	__asan_report_store4@PLT
.L90:
	movl	$0, -48(%r12)
	.loc 2 85 9
	leaq	-32(%r12), %rax
	movq	%rax, %rdx
	movq	%rdx, %rax
	shrq	$3, %rax
	addq	$2147450880, %rax
	movzbl	(%rax), %eax
	testb	%al, %al
	setne	%cl
	cmpb	$3, %al
	setle	%al
	andl	%ecx, %eax
	testb	%al, %al
	je	.L91
	movq	%rdx, %rdi
	call	__asan_report_store4@PLT
.L91:
	movl	$0, -32(%r12)
.LBB2:
	.loc 2 87 18
	movq	$0, -152(%rbp)
	.loc 2 87 5
	jmp	.L92
.L120:
	.loc 2 89 21 discriminator 3
	movq	-168(%rbp), %rax
	cmpq	$0, -168(%rbp)
	je	.L93
	movq	%rax, %rdx
	andl	$7, %edx
	testq	%rdx, %rdx
	je	.L94
.L93:
	.loc 2 89 21 is_stmt 0
	movq	%rax, %rsi
	leaq	.Lubsan_data659(%rip), %rax
	movq	%rax, %rdi
	call	__ubsan_handle_type_mismatch_v1@PLT
.L94:
	.loc 2 89 21 discriminator 3
	movq	-168(%rbp), %rax
	leaq	32(%rax), %rdx
	cmpq	$-32, %rax
	jb	.L95
	.loc 2 89 21
	movq	-168(%rbp), %rax
	movq	%rax, %rsi
	leaq	.Lubsan_data660(%rip), %rax
	movq	%rax, %rdi
	call	__ubsan_handle_pointer_overflow@PLT
.L95:
	.loc 2 89 21 discriminator 3
	movq	-168(%rbp), %rax
	addq	$32, %rax
	movq	%rax, %rdx
	shrq	$3, %rdx
	addq	$2147450880, %rdx
	movzbl	(%rdx), %edx
	testb	%dl, %dl
	je	.L96
	.loc 2 89 21
	movq	%rax, %rdi
	call	__asan_report_load8@PLT
.L96:
	.loc 2 89 21 discriminator 3
	movq	-168(%rbp), %rax
	movq	32(%rax), %r14
	.loc 2 89 30 is_stmt 1 discriminator 3
	movl	-156(%rbp), %eax
	movslq	%eax, %r15
	.loc 2 89 28 discriminator 3
	movq	%r14, %rdx
	leaq	(%rdx,%r15), %rax
	movq	%r15, %rcx
	notq	%rcx
	shrq	$63, %rcx
	testb	%cl, %cl
	je	.L97
	.loc 2 89 28 is_stmt 0
	cmpq	%rdx, %rax
	jnb	.L98
.L99:
	movq	%rax, %rdx
	movq	%r14, %rsi
	leaq	.Lubsan_data661(%rip), %rax
	movq	%rax, %rdi
	call	__ubsan_handle_pointer_overflow@PLT
	jmp	.L98
.L97:
	.loc 2 89 28 discriminator 3
	cmpq	%rdx, %rax
	ja	.L99
.L98:
	leaq	(%r14,%r15), %rdi
	.loc 2 89 15 is_stmt 1 discriminator 3
	leaq	-48(%r12), %rdx
	leaq	-32(%r12), %rax
	movq	%rdx, %rcx
	movq	%rax, %rdx
	leaq	.LC6(%rip), %rax
	movq	%rax, %rsi
	movl	$0, %eax
	call	__isoc99_sscanf@PLT
	.loc 2 90 15 discriminator 3
	leaq	-48(%r12), %rax
	movq	%rax, %rdx
	movq	%rdx, %rax
	shrq	$3, %rax
	addq	$2147450880, %rax
	movzbl	(%rax), %eax
	testb	%al, %al
	setne	%cl
	cmpb	$3, %al
	setle	%al
	andl	%ecx, %eax
	testb	%al, %al
	je	.L100
	.loc 2 90 15 is_stmt 0
	movq	%rdx, %rdi
	call	__asan_report_load4@PLT
.L100:
	.loc 2 90 15 discriminator 3
	movl	-48(%r12), %eax
	movl	-156(%rbp), %edx
	addl	%eax, %edx
	movl	%edx, %r14d
	jno	.L101
	movslq	%eax, %rdx
	movl	-156(%rbp), %eax
	cltq
	movq	%rax, %rsi
	leaq	.Lubsan_data668(%rip), %rax
	movq	%rax, %rdi
	call	__ubsan_handle_add_overflow@PLT
.L101:
	movl	%r14d, -156(%rbp)
	.loc 2 92 14 is_stmt 1 discriminator 3
	movq	-168(%rbp), %rax
	cmpq	$0, -168(%rbp)
	je	.L103
	movq	%rax, %rdx
	andl	$7, %edx
	testq	%rdx, %rdx
	je	.L104
.L103:
	.loc 2 92 14 is_stmt 0
	movq	%rax, %rsi
	leaq	.Lubsan_data662(%rip), %rax
	movq	%rax, %rdi
	call	__ubsan_handle_type_mismatch_v1@PLT
.L104:
	.loc 2 92 14 discriminator 3
	movq	-168(%rbp), %rax
	leaq	136(%rax), %rdx
	cmpq	$-136, %rax
	jb	.L105
	.loc 2 92 14
	movq	-168(%rbp), %rax
	movq	%rax, %rsi
	leaq	.Lubsan_data663(%rip), %rax
	movq	%rax, %rdi
	call	__ubsan_handle_pointer_overflow@PLT
.L105:
	.loc 2 92 14 discriminator 3
	movq	-168(%rbp), %rax
	addq	$136, %rax
	movq	%rax, %rdx
	shrq	$3, %rdx
	addq	$2147450880, %rdx
	movzbl	(%rdx), %edx
	testb	%dl, %dl
	je	.L106
	.loc 2 92 14
	movq	%rax, %rdi
	call	__asan_report_load8@PLT
.L106:
	.loc 2 92 14 discriminator 3
	movq	-168(%rbp), %rax
	movq	136(%rax), %r14
	.loc 2 92 25 is_stmt 1 discriminator 3
	movq	-152(%rbp), %rax
	.loc 2 92 32 discriminator 3
	leaq	0(,%rax,4), %r15
	movq	%r14, %rdx
	leaq	(%rdx,%r15), %rax
	movq	%r15, %rcx
	notq	%rcx
	shrq	$63, %rcx
	testb	%cl, %cl
	je	.L107
	.loc 2 92 32 is_stmt 0
	cmpq	%rdx, %rax
	jnb	.L108
.L109:
	movq	%rax, %rdx
	movq	%r14, %rsi
	leaq	.Lubsan_data664(%rip), %rax
	movq	%rax, %rdi
	call	__ubsan_handle_pointer_overflow@PLT
	jmp	.L108
.L107:
	.loc 2 92 32 discriminator 3
	cmpq	%rdx, %rax
	ja	.L109
.L108:
	addq	%r15, %r14
	.loc 2 92 34 is_stmt 1 discriminator 3
	leaq	-32(%r12), %rax
	movq	%rax, %rdx
	movq	%rdx, %rax
	shrq	$3, %rax
	addq	$2147450880, %rax
	movzbl	(%rax), %eax
	testb	%al, %al
	setne	%cl
	cmpb	$3, %al
	setle	%al
	andl	%ecx, %eax
	testb	%al, %al
	je	.L110
	.loc 2 92 34 is_stmt 0
	movq	%rdx, %rdi
	call	__asan_report_load4@PLT
.L110:
	.loc 2 92 34 discriminator 3
	movl	-32(%r12), %r15d
	movq	%r14, %rax
	testq	%r14, %r14
	je	.L111
	movq	%rax, %rdx
	andl	$3, %edx
	testq	%rdx, %rdx
	je	.L112
.L111:
	.loc 2 92 34
	movq	%rax, %rsi
	leaq	.Lubsan_data665(%rip), %rax
	movq	%rax, %rdi
	call	__ubsan_handle_type_mismatch_v1@PLT
.L112:
	.loc 2 92 34 discriminator 3
	movq	%r14, %rax
	movq	%rax, %rdx
	shrq	$3, %rdx
	addq	$2147450880, %rdx
	movzbl	(%rdx), %edx
	testb	%dl, %dl
	setne	%sil
	movq	%rax, %rcx
	andl	$7, %ecx
	addl	$3, %ecx
	cmpb	%dl, %cl
	setge	%dl
	andl	%esi, %edx
	testb	%dl, %dl
	je	.L113
	.loc 2 92 34
	movq	%rax, %rdi
	call	__asan_report_store4@PLT
.L113:
	.loc 2 92 34 discriminator 3
	movl	%r15d, (%r14)
	.loc 2 87 5 is_stmt 1 discriminator 3
	movq	-152(%rbp), %rax
	addq	$1, %rax
	movq	%rax, %r14
	jno	.L114
	movq	-152(%rbp), %rax
	movl	$1, %edx
	movq	%rax, %rsi
	leaq	.Lubsan_data669(%rip), %rax
	movq	%rax, %rdi
	call	__ubsan_handle_add_overflow@PLT
.L114:
	movq	%r14, -152(%rbp)
.L92:
	.loc 2 87 46 discriminator 1
	movq	-168(%rbp), %rax
	cmpq	$0, -168(%rbp)
	je	.L116
	movq	%rax, %rdx
	andl	$7, %edx
	testq	%rdx, %rdx
	je	.L117
.L116:
	.loc 2 87 46 is_stmt 0
	movq	%rax, %rsi
	leaq	.Lubsan_data666(%rip), %rax
	movq	%rax, %rdi
	call	__ubsan_handle_type_mismatch_v1@PLT
.L117:
	.loc 2 87 46 discriminator 1
	movq	-168(%rbp), %rax
	leaq	24(%rax), %rdx
	cmpq	$-24, %rax
	jb	.L118
	.loc 2 87 46
	movq	-168(%rbp), %rax
	movq	%rax, %rsi
	leaq	.Lubsan_data667(%rip), %rax
	movq	%rax, %rdi
	call	__ubsan_handle_pointer_overflow@PLT
.L118:
	.loc 2 87 46 discriminator 1
	movq	-168(%rbp), %rax
	addq	$24, %rax
	movq	%rax, %rdx
	shrq	$3, %rdx
	addq	$2147450880, %rdx
	movzbl	(%rdx), %edx
	testb	%dl, %dl
	je	.L119
	.loc 2 87 46
	movq	%rax, %rdi
	call	__asan_report_load8@PLT
.L119:
	.loc 2 87 46 discriminator 1
	movq	-168(%rbp), %rax
	movq	24(%rax), %rax
	.loc 2 87 39 is_stmt 1 discriminator 1
	cmpq	%rax, -152(%rbp)
	jl	.L120
.LBE2:
	.loc 2 94 1
	nop
	.loc 2 80 1
	cmpq	%rbx, -176(%rbp)
	je	.L79
	movq	$1172321806, (%rbx)
	movabsq	$-723401728380766731, %rax
	movq	%rax, 2147450880(%r13)
	movl	$-168430091, 2147450888(%r13)
	movq	120(%rbx), %rax
	movb	$0, (%rax)
	jmp	.L80
.L79:
	movq	$0, 2147450880(%r13)
	movl	$0, 2147450888(%r13)
.L80:
	.loc 2 94 1
	addq	$136, %rsp
	popq	%rbx
	popq	%r12
	popq	%r13
	popq	%r14
	popq	%r15
	popq	%rbp
	.cfi_def_cfa 7, 8
	ret
	.cfi_endproc
.LFE1118:
	.size	_Z15make_num_bufferP10Cpu_struct, .-_Z15make_num_bufferP10Cpu_struct
	.globl	__asan_stack_malloc_9
	.section	.rodata
.LC18:
	.string	"1 48 16648 3 cpu"
	.globl	__asan_stack_free_9
	.align 32
.LC19:
	.string	"void do_not_bin_instructions(FILE*, const char*, FILE*)"
	.zero	40
	.align 32
.LC20:
	.string	"exec_not_bin_file_ptr != NULL"
	.zero	34
	.align 32
.LC21:
	.string	"path_to_executable_file != NULL"
	.zero	32
	.align 32
.LC22:
	.string	"file_result != NULL"
	.zero	44
	.align 32
.LC23:
	.string	"CP"
	.zero	61
	.align 32
.LC24:
	.string	"cpu.stack"
	.zero	54
	.align 32
.LC25:
	.string	"do_not_bin_instructions"
	.zero	40
	.align 32
.LC26:
	.string	"cpu.func_stack"
	.zero	49
	.text
	.globl	_Z23do_not_bin_instructionsP8_IO_FILEPKcS0_
	.type	_Z23do_not_bin_instructionsP8_IO_FILEPKcS0_, @function
_Z23do_not_bin_instructionsP8_IO_FILEPKcS0_:
.LASANPC1119:
.LFB1119:
	.loc 2 97 1
	.cfi_startproc
	endbr64
	pushq	%rbp
	.cfi_def_cfa_offset 16
	.cfi_offset 6, -16
	movq	%rsp, %rbp
	.cfi_def_cfa_register 6
	pushq	%r14
	pushq	%r13
	pushq	%r12
	pushq	%rbx
	leaq	-16384(%rsp), %r11
.LPSRL0:
	subq	$4096, %rsp
	orq	$0, (%rsp)
	cmpq	%r11, %rsp
	jne	.LPSRL0
	subq	$608, %rsp
	.cfi_offset 14, -24
	.cfi_offset 13, -32
	.cfi_offset 12, -40
	.cfi_offset 3, -48
	movq	%rdi, -17000(%rbp)
	movq	%rsi, -17008(%rbp)
	movq	%rdx, -17016(%rbp)
	leaq	-16992(%rbp), %r13
	movq	%r13, %r14
	cmpl	$0, __asan_option_detect_stack_use_after_return(%rip)
	je	.L121
	movl	$16960, %edi
	call	__asan_stack_malloc_9@PLT
	testq	%rax, %rax
	je	.L121
	movq	%rax, %r13
.L121:
	leaq	16960(%r13), %rax
	movq	%rax, %r12
	movq	$1102416563, 0(%r13)
	leaq	.LC18(%rip), %rax
	movq	%rax, 8(%r13)
	leaq	.LASANPC1119(%rip), %rax
	movq	%rax, 16(%r13)
	movq	%r13, %rbx
	shrq	$3, %rbx
	movl	$-235802127, 2147450880(%rbx)
	movl	$61937, 2147450884(%rbx)
	movl	$-218103808, 2147452964(%rbx)
	movl	$-202116109, 2147452968(%rbx)
	movl	$-202116109, 2147452972(%rbx)
	movl	$-202116109, 2147452976(%rbx)
	movl	$-202116109, 2147452980(%rbx)
	movl	$-202116109, 2147452984(%rbx)
	movl	$-202116109, 2147452988(%rbx)
	movl	$-202116109, 2147452992(%rbx)
	movl	$-202116109, 2147452996(%rbx)
	.loc 2 98 12
	cmpq	$0, -17000(%rbp)
	jne	.L125
	.loc 2 98 39 discriminator 1
	call	__asan_handle_no_return@PLT
	leaq	.LC19(%rip), %rax
	movq	%rax, %rcx
	movl	$98, %edx
	leaq	.LC0(%rip), %rax
	movq	%rax, %rsi
	leaq	.LC20(%rip), %rax
	movq	%rax, %rdi
	call	__assert_fail@PLT
.L125:
	.loc 2 99 12
	cmpq	$0, -17008(%rbp)
	jne	.L126
	.loc 2 99 39 discriminator 1
	call	__asan_handle_no_return@PLT
	leaq	.LC19(%rip), %rax
	movq	%rax, %rcx
	movl	$99, %edx
	leaq	.LC0(%rip), %rax
	movq	%rax, %rsi
	leaq	.LC21(%rip), %rax
	movq	%rax, %rdi
	call	__assert_fail@PLT
.L126:
	.loc 2 100 12
	cmpq	$0, -17016(%rbp)
	jne	.L127
	.loc 2 100 39 discriminator 1
	call	__asan_handle_no_return@PLT
	leaq	.LC19(%rip), %rax
	movq	%rax, %rcx
	movl	$100, %edx
	leaq	.LC0(%rip), %rax
	movq	%rax, %rsi
	leaq	.LC22(%rip), %rax
	movq	%rax, %rdi
	call	__assert_fail@PLT
.L127:
	.loc 2 102 23
	leaq	-16912(%r12), %rax
	movq	%rax, %rdx
	shrq	$3, %rdx
	addq	$2147450880, %rdx
	movzbl	(%rdx), %edx
	testb	%dl, %dl
	setne	%cl
	testb	%dl, %dl
	setle	%dl
	movl	%ecx, %esi
	andl	%edx, %esi
	movl	$16648, %edx
	subq	$1, %rdx
	leaq	(%rax,%rdx), %rcx
	movq	%rcx, %rdx
	shrq	$3, %rdx
	addq	$2147450880, %rdx
	movzbl	(%rdx), %edx
	testb	%dl, %dl
	setne	%dil
	andl	$7, %ecx
	cmpb	%dl, %cl
	setge	%dl
	andl	%edi, %edx
	orl	%esi, %edx
	testb	%dl, %dl
	je	.L128
	movl	$16648, %esi
	movq	%rax, %rdi
	call	__asan_report_store_n@PLT
.L128:
	leaq	-16912(%r12), %rax
	movl	$16648, %edx
	movl	$0, %esi
	movq	%rax, %rdi
	call	memset@PLT
	leaq	-16912(%r12), %rax
	movq	%rax, %rdx
	shrq	$3, %rdx
	addq	$2147450880, %rdx
	movzbl	(%rdx), %edx
	testb	%dl, %dl
	je	.L129
	movq	%rax, %rdi
	call	__asan_report_store8@PLT
.L129:
	leaq	.LC23(%rip), %rax
	movq	%rax, -16912(%r12)
	leaq	-16912(%r12), %rax
	addq	$8, %rax
	movq	%rax, %rdx
	movq	%rdx, %rax
	shrq	$3, %rax
	addq	$2147450880, %rax
	movzbl	(%rax), %eax
	testb	%al, %al
	setne	%cl
	cmpb	$3, %al
	setle	%al
	andl	%ecx, %eax
	testb	%al, %al
	je	.L130
	movq	%rdx, %rdi
	call	__asan_report_store4@PLT
.L130:
	movl	$1, -16904(%r12)
	.loc 2 104 14
	call	_Z9open_logsv@PLT
	.loc 2 105 15
	leaq	-16912(%r12), %rax
	addq	$40, %rax
	movl	$105, %r9d
	leaq	.LC24(%rip), %r8
	leaq	.LC0(%rip), %rdx
	movq	%rdx, %rcx
	leaq	.LC25(%rip), %rdx
	movl	$10, %esi
	movq	%rax, %rdi
	call	_Z10stack_ctorP5StacklPKcS2_S2_i@PLT
	.loc 2 106 15
	leaq	-16912(%r12), %rax
	addq	$16552, %rax
	movl	$106, %r9d
	leaq	.LC26(%rip), %r8
	leaq	.LC0(%rip), %rdx
	movq	%rdx, %rcx
	leaq	.LC25(%rip), %rdx
	movl	$5, %esi
	movq	%rax, %rdi
	call	_Z10stack_ctorP5StacklPKcS2_S2_i@PLT
	.loc 2 109 26
	leaq	-16912(%r12), %rdx
	movq	-17000(%rbp), %rax
	movq	%rdx, %rsi
	movq	%rax, %rdi
	call	_Z21check_executable_fileP8_IO_FILEP10Cpu_struct
	.loc 2 111 20
	movq	-17008(%rbp), %rdx
	leaq	-16912(%r12), %rcx
	movq	-17000(%rbp), %rax
	movq	%rcx, %rsi
	movq	%rax, %rdi
	call	_Z15fill_cpu_structP8_IO_FILEP10Cpu_structPKc
	.loc 2 113 21
	movq	-17016(%rbp), %rdx
	leaq	-16912(%r12), %rax
	leaq	40(%rax), %rcx
	leaq	-16912(%r12), %rax
	movq	%rcx, %rsi
	movq	%rax, %rdi
	call	_Z16execute_commandsP10Cpu_structP5StackP8_IO_FILE
	.loc 2 115 21
	leaq	-16912(%r12), %rax
	movq	%rax, %rdi
	call	_Z16dtor_exec_no_binP10Cpu_struct
	.loc 2 117 15
	call	_Z10close_logsv@PLT
	.loc 2 118 15
	leaq	-16912(%r12), %rax
	addq	$40, %rax
	movq	%rax, %rdi
	call	_Z10stack_dtorP5Stack@PLT
	.loc 2 119 15
	leaq	-16912(%r12), %rax
	addq	$16552, %rax
	movq	%rax, %rdi
	call	_Z10stack_dtorP5Stack@PLT
	.loc 2 120 1
	nop
	.loc 2 97 1
	cmpq	%r13, %r14
	je	.L122
	movq	$1172321806, 0(%r13)
	movq	%r14, %rdx
	movl	$16960, %esi
	movq	%r13, %rdi
	call	__asan_stack_free_9@PLT
	jmp	.L123
.L122:
	movq	$0, 2147450880(%rbx)
	movq	$0, 2147452964(%rbx)
	movq	$0, 2147452972(%rbx)
	movq	$0, 2147452980(%rbx)
	movq	$0, 2147452988(%rbx)
	movl	$0, 2147452996(%rbx)
.L123:
	.loc 2 120 1
	addq	$16992, %rsp
	popq	%rbx
	popq	%r12
	popq	%r13
	popq	%r14
	popq	%rbp
	.cfi_def_cfa 7, 8
	ret
	.cfi_endproc
.LFE1119:
	.size	_Z23do_not_bin_instructionsP8_IO_FILEPKcS0_, .-_Z23do_not_bin_instructionsP8_IO_FILEPKcS0_
	.section	.data.rel.local
	.align 32
	.type	.Lubsan_data670, @object
	.size	.Lubsan_data670, 32
.Lubsan_data670:
	.quad	.LC0
	.long	129
	.long	68
	.quad	.Lubsan_type6
	.byte	3
	.byte	3
	.zero	6
	.zero	32
	.align 32
	.type	.Lubsan_data671, @object
	.size	.Lubsan_data671, 16
.Lubsan_data671:
	.quad	.LC0
	.long	129
	.long	68
	.zero	48
	.align 32
	.type	.Lubsan_data672, @object
	.size	.Lubsan_data672, 16
.Lubsan_data672:
	.quad	.LC0
	.long	129
	.long	80
	.zero	48
	.align 32
	.type	.Lubsan_data673, @object
	.size	.Lubsan_data673, 32
.Lubsan_data673:
	.quad	.LC0
	.long	129
	.long	20
	.quad	.Lubsan_type7
	.byte	2
	.byte	0
	.zero	6
	.zero	32
	.align 32
	.type	.Lubsan_data674, @object
	.size	.Lubsan_data674, 32
.Lubsan_data674:
	.quad	.LC0
	.long	132
	.long	68
	.quad	.Lubsan_type6
	.byte	3
	.byte	3
	.zero	6
	.zero	32
	.align 32
	.type	.Lubsan_data675, @object
	.size	.Lubsan_data675, 16
.Lubsan_data675:
	.quad	.LC0
	.long	132
	.long	68
	.zero	48
	.align 32
	.type	.Lubsan_data676, @object
	.size	.Lubsan_data676, 16
.Lubsan_data676:
	.quad	.LC0
	.long	132
	.long	80
	.zero	48
	.align 32
	.type	.Lubsan_data677, @object
	.size	.Lubsan_data677, 32
.Lubsan_data677:
	.quad	.LC0
	.long	132
	.long	20
	.quad	.Lubsan_type7
	.byte	2
	.byte	0
	.zero	6
	.zero	32
	.align 32
	.type	.Lubsan_data678, @object
	.size	.Lubsan_data678, 32
.Lubsan_data678:
	.quad	.LC0
	.long	135
	.long	74
	.quad	.Lubsan_type6
	.byte	3
	.byte	3
	.zero	6
	.zero	32
	.align 32
	.type	.Lubsan_data679, @object
	.size	.Lubsan_data679, 16
.Lubsan_data679:
	.quad	.LC0
	.long	135
	.long	74
	.zero	48
	.align 32
	.type	.Lubsan_data680, @object
	.size	.Lubsan_data680, 16
.Lubsan_data680:
	.quad	.LC0
	.long	135
	.long	86
	.zero	48
	.align 32
	.type	.Lubsan_data681, @object
	.size	.Lubsan_data681, 32
.Lubsan_data681:
	.quad	.LC0
	.long	135
	.long	20
	.quad	.Lubsan_type7
	.byte	2
	.byte	0
	.zero	6
	.zero	32
	.align 32
	.type	.Lubsan_data682, @object
	.size	.Lubsan_data682, 32
.Lubsan_data682:
	.quad	.LC0
	.long	127
	.long	34
	.quad	.Lubsan_type6
	.byte	3
	.byte	3
	.zero	6
	.zero	32
	.align 32
	.type	.Lubsan_data683, @object
	.size	.Lubsan_data683, 16
.Lubsan_data683:
	.quad	.LC0
	.long	127
	.long	34
	.zero	48
	.data
	.align 32
	.type	.Lubsan_type8, @object
	.size	.Lubsan_type8, 14
.Lubsan_type8:
	.value	0
	.value	11
	.string	"'int [5]'"
	.zero	50
	.section	.data.rel.local
	.align 32
	.type	.Lubsan_data684, @object
	.size	.Lubsan_data684, 32
.Lubsan_data684:
	.quad	.LC0
	.long	141
	.long	71
	.quad	.Lubsan_type8
	.quad	.Lubsan_type4
	.zero	32
	.align 32
	.type	.Lubsan_data685, @object
	.size	.Lubsan_data685, 32
.Lubsan_data685:
	.quad	.LC0
	.long	141
	.long	16
	.quad	.Lubsan_type6
	.byte	3
	.byte	3
	.zero	6
	.zero	32
	.align 32
	.type	.Lubsan_data686, @object
	.size	.Lubsan_data686, 16
.Lubsan_data686:
	.quad	.LC0
	.long	141
	.long	16
	.zero	48
	.data
	.align 32
	.type	.Lubsan_type9, @object
	.size	.Lubsan_type9, 19
.Lubsan_type9:
	.value	-1
	.value	0
	.string	"'struct Stack'"
	.zero	45
	.section	.data.rel.local
	.align 32
	.type	.Lubsan_data687, @object
	.size	.Lubsan_data687, 32
.Lubsan_data687:
	.quad	.LC0
	.long	153
	.long	24
	.quad	.Lubsan_type9
	.byte	3
	.byte	3
	.zero	6
	.zero	32
	.align 32
	.type	.Lubsan_data688, @object
	.size	.Lubsan_data688, 16
.Lubsan_data688:
	.quad	.LC0
	.long	153
	.long	24
	.zero	48
	.align 32
	.type	.Lubsan_data689, @object
	.size	.Lubsan_data689, 16
.Lubsan_data689:
	.quad	.LC0
	.long	153
	.long	30
	.zero	48
	.data
	.align 32
	.type	.Lubsan_type10, @object
	.size	.Lubsan_type10, 11
.Lubsan_type10:
	.value	-1
	.value	0
	.string	"'elem'"
	.zero	53
	.section	.data.rel.local
	.align 32
	.type	.Lubsan_data690, @object
	.size	.Lubsan_data690, 32
.Lubsan_data690:
	.quad	.LC0
	.long	153
	.long	18
	.quad	.Lubsan_type10
	.byte	3
	.byte	0
	.zero	6
	.zero	32
	.align 32
	.type	.Lubsan_data691, @object
	.size	.Lubsan_data691, 32
.Lubsan_data691:
	.quad	.LC0
	.long	156
	.long	56
	.quad	.Lubsan_type9
	.byte	3
	.byte	3
	.zero	6
	.zero	32
	.align 32
	.type	.Lubsan_data692, @object
	.size	.Lubsan_data692, 16
.Lubsan_data692:
	.quad	.LC0
	.long	156
	.long	56
	.zero	48
	.align 32
	.type	.Lubsan_data693, @object
	.size	.Lubsan_data693, 16
.Lubsan_data693:
	.quad	.LC0
	.long	156
	.long	62
	.zero	48
	.align 32
	.type	.Lubsan_data694, @object
	.size	.Lubsan_data694, 32
.Lubsan_data694:
	.quad	.LC0
	.long	156
	.long	20
	.quad	.Lubsan_type10
	.byte	3
	.byte	0
	.zero	6
	.zero	32
	.align 32
	.type	.Lubsan_data695, @object
	.size	.Lubsan_data695, 32
.Lubsan_data695:
	.quad	.LC0
	.long	151
	.long	30
	.quad	.Lubsan_type9
	.byte	3
	.byte	3
	.zero	6
	.zero	32
	.align 32
	.type	.Lubsan_data696, @object
	.size	.Lubsan_data696, 16
.Lubsan_data696:
	.quad	.LC0
	.long	151
	.long	30
	.zero	48
	.align 32
	.type	.Lubsan_data697, @object
	.size	.Lubsan_data697, 32
.Lubsan_data697:
	.quad	.LC0
	.long	164
	.long	35
	.quad	.Lubsan_type6
	.byte	3
	.byte	3
	.zero	6
	.zero	32
	.align 32
	.type	.Lubsan_data698, @object
	.size	.Lubsan_data698, 16
.Lubsan_data698:
	.quad	.LC0
	.long	164
	.long	35
	.zero	48
	.align 32
	.type	.Lubsan_data699, @object
	.size	.Lubsan_data699, 16
.Lubsan_data699:
	.quad	.LC0
	.long	164
	.long	41
	.zero	48
	.align 32
	.type	.Lubsan_data700, @object
	.size	.Lubsan_data700, 32
.Lubsan_data700:
	.quad	.LC0
	.long	164
	.long	18
	.quad	.Lubsan_type10
	.byte	3
	.byte	0
	.zero	6
	.zero	32
	.align 32
	.type	.Lubsan_data701, @object
	.size	.Lubsan_data701, 32
.Lubsan_data701:
	.quad	.LC0
	.long	167
	.long	67
	.quad	.Lubsan_type6
	.byte	3
	.byte	3
	.zero	6
	.zero	32
	.align 32
	.type	.Lubsan_data702, @object
	.size	.Lubsan_data702, 16
.Lubsan_data702:
	.quad	.LC0
	.long	167
	.long	67
	.zero	48
	.align 32
	.type	.Lubsan_data703, @object
	.size	.Lubsan_data703, 16
.Lubsan_data703:
	.quad	.LC0
	.long	167
	.long	73
	.zero	48
	.align 32
	.type	.Lubsan_data704, @object
	.size	.Lubsan_data704, 32
.Lubsan_data704:
	.quad	.LC0
	.long	167
	.long	20
	.quad	.Lubsan_type10
	.byte	3
	.byte	0
	.zero	6
	.zero	32
	.align 32
	.type	.Lubsan_data705, @object
	.size	.Lubsan_data705, 32
.Lubsan_data705:
	.quad	.LC0
	.long	162
	.long	41
	.quad	.Lubsan_type6
	.byte	3
	.byte	3
	.zero	6
	.zero	32
	.align 32
	.type	.Lubsan_data706, @object
	.size	.Lubsan_data706, 16
.Lubsan_data706:
	.quad	.LC0
	.long	162
	.long	41
	.zero	48
	.data
	.align 32
	.type	.Lubsan_type11, @object
	.size	.Lubsan_type11, 17
.Lubsan_type11:
	.value	0
	.value	11
	.string	"'int [4096]'"
	.zero	47
	.section	.data.rel.local
	.align 32
	.type	.Lubsan_data707, @object
	.size	.Lubsan_data707, 32
.Lubsan_data707:
	.quad	.LC0
	.long	173
	.long	23
	.quad	.Lubsan_type11
	.quad	.Lubsan_type4
	.zero	32
	.align 32
	.type	.Lubsan_data708, @object
	.size	.Lubsan_data708, 32
.Lubsan_data708:
	.quad	.LC0
	.long	173
	.long	23
	.quad	.Lubsan_type6
	.byte	3
	.byte	3
	.zero	6
	.zero	32
	.align 32
	.type	.Lubsan_data709, @object
	.size	.Lubsan_data709, 16
.Lubsan_data709:
	.quad	.LC0
	.long	173
	.long	23
	.zero	48
	.align 32
	.type	.Lubsan_data710, @object
	.size	.Lubsan_data710, 32
.Lubsan_data710:
	.quad	.LC0
	.long	174
	.long	61
	.quad	.Lubsan_type11
	.quad	.Lubsan_type4
	.zero	32
	.align 32
	.type	.Lubsan_data711, @object
	.size	.Lubsan_data711, 32
.Lubsan_data711:
	.quad	.LC0
	.long	174
	.long	20
	.quad	.Lubsan_type6
	.byte	3
	.byte	3
	.zero	6
	.zero	32
	.align 32
	.type	.Lubsan_data712, @object
	.size	.Lubsan_data712, 16
.Lubsan_data712:
	.quad	.LC0
	.long	174
	.long	20
	.zero	48
	.section	.rodata
	.align 32
.LC27:
	.string	"\n\nDump was called from %s file, %s function, %d\n"
	.zero	47
	.align 32
.LC28:
	.string	"\nDUMP OF NUM_BUFFER\n"
	.zero	43
	.align 32
.LC29:
	.string	"         * [%3zd] = %2d\n"
	.zero	39
	.align 32
.LC30:
	.string	"           [%3zd] = %2d\n"
	.zero	39
	.align 32
.LC31:
	.string	"  ip = %zd >>[%3zd] = %2d\n"
	.zero	37
	.section	.data.rel.local
	.align 32
	.type	.Lubsan_data713, @object
	.size	.Lubsan_data713, 24
.Lubsan_data713:
	.quad	.LC0
	.long	127
	.long	5
	.quad	.Lubsan_type5
	.zero	40
	.section	.rodata
	.align 32
.LC32:
	.string	"\nDUMP OF REGISTERS\n"
	.zero	44
	.section	.data.rel.local
	.align 32
	.type	.Lubsan_data714, @object
	.size	.Lubsan_data714, 24
.Lubsan_data714:
	.quad	.LC0
	.long	141
	.long	16
	.quad	.Lubsan_type4
	.zero	40
	.section	.rodata
	.align 32
.LC33:
	.string	"r%cx = %d\n"
	.zero	53
	.section	.data.rel.local
	.align 32
	.type	.Lubsan_data715, @object
	.size	.Lubsan_data715, 24
.Lubsan_data715:
	.quad	.LC0
	.long	139
	.long	5
	.quad	.Lubsan_type4
	.zero	40
	.section	.rodata
	.align 32
.LC34:
	.string	"\nDUMP OF STACK\n"
	.zero	48
	.align 32
.LC35:
	.string	"NAN(POISON)"
	.zero	52
	.align 32
.LC36:
	.string	"   [%d] = %s\n"
	.zero	50
	.align 32
.LC37:
	.string	" * [%d] = %g\n"
	.zero	50
	.section	.data.rel.local
	.align 32
	.type	.Lubsan_data716, @object
	.size	.Lubsan_data716, 24
.Lubsan_data716:
	.quad	.LC0
	.long	151
	.long	5
	.quad	.Lubsan_type4
	.zero	40
	.section	.rodata
	.align 32
.LC38:
	.string	"\nDUMP OF FUNC STACK\n"
	.zero	43
	.section	.data.rel.local
	.align 32
	.type	.Lubsan_data717, @object
	.size	.Lubsan_data717, 24
.Lubsan_data717:
	.quad	.LC0
	.long	162
	.long	5
	.quad	.Lubsan_type4
	.zero	40
	.section	.rodata
	.align 32
.LC39:
	.string	"\nDUMP OF RAM\n"
	.zero	50
	.align 32
.LC40:
	.string	"[%3d] = %3d\n"
	.zero	51
	.section	.data.rel.local
	.align 32
	.type	.Lubsan_data718, @object
	.size	.Lubsan_data718, 24
.Lubsan_data718:
	.quad	.LC0
	.long	171
	.long	5
	.quad	.Lubsan_type4
	.zero	40
	.text
	.globl	_Z8dump_cpuP10Cpu_structlP5StackPKcS4_i
	.type	_Z8dump_cpuP10Cpu_structlP5StackPKcS4_i, @function
_Z8dump_cpuP10Cpu_structlP5StackPKcS4_i:
.LASANPC1120:
.LFB1120:
	.loc 2 123 1
	.cfi_startproc
	endbr64
	pushq	%rbp
	.cfi_def_cfa_offset 16
	.cfi_offset 6, -16
	movq	%rsp, %rbp
	.cfi_def_cfa_register 6
	pushq	%r13
	pushq	%r12
	pushq	%rbx
	subq	$88, %rsp
	.cfi_offset 13, -24
	.cfi_offset 12, -32
	.cfi_offset 3, -40
	movq	%rdi, -72(%rbp)
	movq	%rsi, -80(%rbp)
	movq	%rdx, -88(%rbp)
	movq	%rcx, -96(%rbp)
	movq	%r8, -104(%rbp)
	movl	%r9d, -108(%rbp)
	.loc 2 124 12
	leaq	cpu_logs(%rip), %rax
	movq	%rax, %rdx
	shrq	$3, %rdx
	addq	$2147450880, %rdx
	movzbl	(%rdx), %edx
	testb	%dl, %dl
	je	.L132
	movq	%rax, %rdi
	call	__asan_report_load8@PLT
.L132:
	movq	cpu_logs(%rip), %rbx
	testq	%rbx, %rbx
	jne	.L133
	leaq	.Lubsan_data598(%rip), %rax
	movq	%rax, %rdi
	call	__ubsan_handle_nonnull_arg@PLT
.L133:
	movl	-108(%rbp), %ecx
	movq	-104(%rbp), %rdx
	movq	-96(%rbp), %rax
	movl	%ecx, %r8d
	movq	%rdx, %rcx
	movq	%rax, %rdx
	leaq	.LC27(%rip), %rax
	movq	%rax, %rsi
	movq	%rbx, %rdi
	movl	$0, %eax
	call	fprintf@PLT
	.loc 2 126 10
	leaq	cpu_logs(%rip), %rax
	movq	%rax, %rdx
	shrq	$3, %rdx
	addq	$2147450880, %rdx
	movzbl	(%rdx), %edx
	testb	%dl, %dl
	je	.L134
	movq	%rax, %rdi
	call	__asan_report_load8@PLT
.L134:
	movq	cpu_logs(%rip), %rbx
	testq	%rbx, %rbx
	jne	.L135
	leaq	.Lubsan_data601(%rip), %rax
	movq	%rax, %rdi
	call	__ubsan_handle_nonnull_arg@PLT
.L135:
	movq	%rbx, %rcx
	movl	$20, %edx
	movl	$1, %esi
	leaq	.LC28(%rip), %rax
	movq	%rax, %rdi
	call	fwrite@PLT
.LBB3:
	.loc 2 127 18
	movq	$0, -40(%rbp)
	.loc 2 127 5
	jmp	.L136
.L182:
	.loc 2 128 7
	movq	-40(%rbp), %rax
	cmpq	-80(%rbp), %rax
	jge	.L137
	.loc 2 129 68
	movq	-72(%rbp), %rax
	cmpq	$0, -72(%rbp)
	je	.L138
	movq	%rax, %rdx
	andl	$7, %edx
	testq	%rdx, %rdx
	je	.L139
.L138:
	movq	%rax, %rsi
	leaq	.Lubsan_data670(%rip), %rax
	movq	%rax, %rdi
	call	__ubsan_handle_type_mismatch_v1@PLT
.L139:
	movq	-72(%rbp), %rax
	leaq	136(%rax), %rdx
	cmpq	$-136, %rax
	jb	.L140
	movq	-72(%rbp), %rax
	movq	%rax, %rsi
	leaq	.Lubsan_data671(%rip), %rax
	movq	%rax, %rdi
	call	__ubsan_handle_pointer_overflow@PLT
.L140:
	movq	-72(%rbp), %rax
	addq	$136, %rax
	movq	%rax, %rdx
	shrq	$3, %rdx
	addq	$2147450880, %rdx
	movzbl	(%rdx), %edx
	testb	%dl, %dl
	je	.L141
	movq	%rax, %rdi
	call	__asan_report_load8@PLT
.L141:
	movq	-72(%rbp), %rax
	movq	136(%rax), %rbx
	.loc 2 129 79
	movq	-40(%rbp), %rax
	.loc 2 129 80
	leaq	0(,%rax,4), %r12
	movq	%rbx, %rdx
	leaq	(%rdx,%r12), %rax
	movq	%r12, %rcx
	notq	%rcx
	shrq	$63, %rcx
	testb	%cl, %cl
	je	.L142
	cmpq	%rdx, %rax
	jnb	.L143
.L144:
	movq	%rax, %rdx
	movq	%rbx, %rsi
	leaq	.Lubsan_data672(%rip), %rax
	movq	%rax, %rdi
	call	__ubsan_handle_pointer_overflow@PLT
	jmp	.L143
.L142:
	cmpq	%rdx, %rax
	ja	.L144
.L143:
	addq	%r12, %rbx
	.loc 2 129 20
	movq	%rbx, %rax
	testq	%rbx, %rbx
	je	.L145
	movq	%rax, %rdx
	andl	$3, %edx
	testq	%rdx, %rdx
	je	.L146
.L145:
	movq	%rax, %rsi
	leaq	.Lubsan_data673(%rip), %rax
	movq	%rax, %rdi
	call	__ubsan_handle_type_mismatch_v1@PLT
.L146:
	movq	%rbx, %rax
	movq	%rax, %rdx
	shrq	$3, %rdx
	addq	$2147450880, %rdx
	movzbl	(%rdx), %edx
	testb	%dl, %dl
	setne	%sil
	movq	%rax, %rcx
	andl	$7, %ecx
	addl	$3, %ecx
	cmpb	%dl, %cl
	setge	%dl
	andl	%esi, %edx
	testb	%dl, %dl
	je	.L147
	movq	%rax, %rdi
	call	__asan_report_load4@PLT
.L147:
	movl	(%rbx), %r12d
	leaq	cpu_logs(%rip), %rax
	movq	%rax, %rdx
	shrq	$3, %rdx
	addq	$2147450880, %rdx
	movzbl	(%rdx), %edx
	testb	%dl, %dl
	je	.L148
	movq	%rax, %rdi
	call	__asan_report_load8@PLT
.L148:
	movq	cpu_logs(%rip), %rbx
	testq	%rbx, %rbx
	jne	.L149
	leaq	.Lubsan_data602(%rip), %rax
	movq	%rax, %rdi
	call	__ubsan_handle_nonnull_arg@PLT
.L149:
	movq	-40(%rbp), %rax
	movl	%r12d, %ecx
	movq	%rax, %rdx
	leaq	.LC29(%rip), %rax
	movq	%rax, %rsi
	movq	%rbx, %rdi
	movl	$0, %eax
	call	fprintf@PLT
	jmp	.L150
.L137:
	.loc 2 131 14
	movq	-40(%rbp), %rax
	cmpq	-80(%rbp), %rax
	jle	.L151
	.loc 2 132 68
	movq	-72(%rbp), %rax
	cmpq	$0, -72(%rbp)
	je	.L152
	movq	%rax, %rdx
	andl	$7, %edx
	testq	%rdx, %rdx
	je	.L153
.L152:
	movq	%rax, %rsi
	leaq	.Lubsan_data674(%rip), %rax
	movq	%rax, %rdi
	call	__ubsan_handle_type_mismatch_v1@PLT
.L153:
	movq	-72(%rbp), %rax
	leaq	136(%rax), %rdx
	cmpq	$-136, %rax
	jb	.L154
	movq	-72(%rbp), %rax
	movq	%rax, %rsi
	leaq	.Lubsan_data675(%rip), %rax
	movq	%rax, %rdi
	call	__ubsan_handle_pointer_overflow@PLT
.L154:
	movq	-72(%rbp), %rax
	addq	$136, %rax
	movq	%rax, %rdx
	shrq	$3, %rdx
	addq	$2147450880, %rdx
	movzbl	(%rdx), %edx
	testb	%dl, %dl
	je	.L155
	movq	%rax, %rdi
	call	__asan_report_load8@PLT
.L155:
	movq	-72(%rbp), %rax
	movq	136(%rax), %rbx
	.loc 2 132 79
	movq	-40(%rbp), %rax
	.loc 2 132 80
	leaq	0(,%rax,4), %r12
	movq	%rbx, %rdx
	leaq	(%rdx,%r12), %rax
	movq	%r12, %rcx
	notq	%rcx
	shrq	$63, %rcx
	testb	%cl, %cl
	je	.L156
	cmpq	%rdx, %rax
	jnb	.L157
.L158:
	movq	%rax, %rdx
	movq	%rbx, %rsi
	leaq	.Lubsan_data676(%rip), %rax
	movq	%rax, %rdi
	call	__ubsan_handle_pointer_overflow@PLT
	jmp	.L157
.L156:
	cmpq	%rdx, %rax
	ja	.L158
.L157:
	addq	%r12, %rbx
	.loc 2 132 20
	movq	%rbx, %rax
	testq	%rbx, %rbx
	je	.L159
	movq	%rax, %rdx
	andl	$3, %edx
	testq	%rdx, %rdx
	je	.L160
.L159:
	movq	%rax, %rsi
	leaq	.Lubsan_data677(%rip), %rax
	movq	%rax, %rdi
	call	__ubsan_handle_type_mismatch_v1@PLT
.L160:
	movq	%rbx, %rax
	movq	%rax, %rdx
	shrq	$3, %rdx
	addq	$2147450880, %rdx
	movzbl	(%rdx), %edx
	testb	%dl, %dl
	setne	%sil
	movq	%rax, %rcx
	andl	$7, %ecx
	addl	$3, %ecx
	cmpb	%dl, %cl
	setge	%dl
	andl	%esi, %edx
	testb	%dl, %dl
	je	.L161
	movq	%rax, %rdi
	call	__asan_report_load4@PLT
.L161:
	movl	(%rbx), %r12d
	leaq	cpu_logs(%rip), %rax
	movq	%rax, %rdx
	shrq	$3, %rdx
	addq	$2147450880, %rdx
	movzbl	(%rdx), %edx
	testb	%dl, %dl
	je	.L162
	movq	%rax, %rdi
	call	__asan_report_load8@PLT
.L162:
	movq	cpu_logs(%rip), %rbx
	testq	%rbx, %rbx
	jne	.L163
	leaq	.Lubsan_data604(%rip), %rax
	movq	%rax, %rdi
	call	__ubsan_handle_nonnull_arg@PLT
.L163:
	movq	-40(%rbp), %rax
	movl	%r12d, %ecx
	movq	%rax, %rdx
	leaq	.LC30(%rip), %rax
	movq	%rax, %rsi
	movq	%rbx, %rdi
	movl	$0, %eax
	call	fprintf@PLT
	jmp	.L150
.L151:
	.loc 2 134 14
	movq	-40(%rbp), %rax
	cmpq	-80(%rbp), %rax
	jne	.L150
	.loc 2 135 74
	movq	-72(%rbp), %rax
	cmpq	$0, -72(%rbp)
	je	.L164
	movq	%rax, %rdx
	andl	$7, %edx
	testq	%rdx, %rdx
	je	.L165
.L164:
	movq	%rax, %rsi
	leaq	.Lubsan_data678(%rip), %rax
	movq	%rax, %rdi
	call	__ubsan_handle_type_mismatch_v1@PLT
.L165:
	movq	-72(%rbp), %rax
	leaq	136(%rax), %rdx
	cmpq	$-136, %rax
	jb	.L166
	movq	-72(%rbp), %rax
	movq	%rax, %rsi
	leaq	.Lubsan_data679(%rip), %rax
	movq	%rax, %rdi
	call	__ubsan_handle_pointer_overflow@PLT
.L166:
	movq	-72(%rbp), %rax
	addq	$136, %rax
	movq	%rax, %rdx
	shrq	$3, %rdx
	addq	$2147450880, %rdx
	movzbl	(%rdx), %edx
	testb	%dl, %dl
	je	.L167
	movq	%rax, %rdi
	call	__asan_report_load8@PLT
.L167:
	movq	-72(%rbp), %rax
	movq	136(%rax), %rbx
	.loc 2 135 85
	movq	-40(%rbp), %rax
	.loc 2 135 86
	leaq	0(,%rax,4), %r12
	movq	%rbx, %rdx
	leaq	(%rdx,%r12), %rax
	movq	%r12, %rcx
	notq	%rcx
	shrq	$63, %rcx
	testb	%cl, %cl
	je	.L168
	cmpq	%rdx, %rax
	jnb	.L169
.L170:
	movq	%rax, %rdx
	movq	%rbx, %rsi
	leaq	.Lubsan_data680(%rip), %rax
	movq	%rax, %rdi
	call	__ubsan_handle_pointer_overflow@PLT
	jmp	.L169
.L168:
	cmpq	%rdx, %rax
	ja	.L170
.L169:
	addq	%r12, %rbx
	.loc 2 135 20
	movq	%rbx, %rax
	testq	%rbx, %rbx
	je	.L171
	movq	%rax, %rdx
	andl	$3, %edx
	testq	%rdx, %rdx
	je	.L172
.L171:
	movq	%rax, %rsi
	leaq	.Lubsan_data681(%rip), %rax
	movq	%rax, %rdi
	call	__ubsan_handle_type_mismatch_v1@PLT
.L172:
	movq	%rbx, %rax
	movq	%rax, %rdx
	shrq	$3, %rdx
	addq	$2147450880, %rdx
	movzbl	(%rdx), %edx
	testb	%dl, %dl
	setne	%sil
	movq	%rax, %rcx
	andl	$7, %ecx
	addl	$3, %ecx
	cmpb	%dl, %cl
	setge	%dl
	andl	%esi, %edx
	testb	%dl, %dl
	je	.L173
	movq	%rax, %rdi
	call	__asan_report_load4@PLT
.L173:
	movl	(%rbx), %r12d
	leaq	cpu_logs(%rip), %rax
	movq	%rax, %rdx
	shrq	$3, %rdx
	addq	$2147450880, %rdx
	movzbl	(%rdx), %edx
	testb	%dl, %dl
	je	.L174
	movq	%rax, %rdi
	call	__asan_report_load8@PLT
.L174:
	movq	cpu_logs(%rip), %rbx
	testq	%rbx, %rbx
	jne	.L175
	leaq	.Lubsan_data606(%rip), %rax
	movq	%rax, %rdi
	call	__ubsan_handle_nonnull_arg@PLT
.L175:
	movq	-40(%rbp), %rdx
	movq	-80(%rbp), %rax
	movl	%r12d, %r8d
	movq	%rdx, %rcx
	movq	%rax, %rdx
	leaq	.LC31(%rip), %rax
	movq	%rax, %rsi
	movq	%rbx, %rdi
	movl	$0, %eax
	call	fprintf@PLT
.L150:
	.loc 2 127 5 discriminator 2
	movq	-40(%rbp), %rax
	addq	$1, %rax
	movq	%rax, %rbx
	jno	.L176
	movq	-40(%rbp), %rax
	movl	$1, %edx
	movq	%rax, %rsi
	leaq	.Lubsan_data713(%rip), %rax
	movq	%rax, %rdi
	call	__ubsan_handle_add_overflow@PLT
.L176:
	movq	%rbx, -40(%rbp)
.L136:
	.loc 2 127 34 discriminator 1
	movq	-72(%rbp), %rax
	cmpq	$0, -72(%rbp)
	je	.L178
	movq	%rax, %rdx
	andl	$7, %edx
	testq	%rdx, %rdx
	je	.L179
.L178:
	.loc 2 127 34 is_stmt 0
	movq	%rax, %rsi
	leaq	.Lubsan_data682(%rip), %rax
	movq	%rax, %rdi
	call	__ubsan_handle_type_mismatch_v1@PLT
.L179:
	.loc 2 127 34 discriminator 1
	movq	-72(%rbp), %rax
	leaq	24(%rax), %rdx
	cmpq	$-24, %rax
	jb	.L180
	.loc 2 127 34
	movq	-72(%rbp), %rax
	movq	%rax, %rsi
	leaq	.Lubsan_data683(%rip), %rax
	movq	%rax, %rdi
	call	__ubsan_handle_pointer_overflow@PLT
.L180:
	.loc 2 127 34 discriminator 1
	movq	-72(%rbp), %rax
	addq	$24, %rax
	movq	%rax, %rdx
	shrq	$3, %rdx
	addq	$2147450880, %rdx
	movzbl	(%rdx), %edx
	testb	%dl, %dl
	je	.L181
	.loc 2 127 34
	movq	%rax, %rdi
	call	__asan_report_load8@PLT
.L181:
	.loc 2 127 34 discriminator 1
	movq	-72(%rbp), %rax
	movq	24(%rax), %rax
	.loc 2 127 27 is_stmt 1 discriminator 1
	cmpq	%rax, -40(%rbp)
	jl	.L182
.LBE3:
	.loc 2 138 10
	leaq	cpu_logs(%rip), %rax
	movq	%rax, %rdx
	shrq	$3, %rdx
	addq	$2147450880, %rdx
	movzbl	(%rdx), %edx
	testb	%dl, %dl
	je	.L183
	movq	%rax, %rdi
	call	__asan_report_load8@PLT
.L183:
	movq	cpu_logs(%rip), %rbx
	testq	%rbx, %rbx
	jne	.L184
	leaq	.Lubsan_data609(%rip), %rax
	movq	%rax, %rdi
	call	__ubsan_handle_nonnull_arg@PLT
.L184:
	movq	%rbx, %rcx
	movl	$19, %edx
	movl	$1, %esi
	leaq	.LC32(%rip), %rax
	movq	%rax, %rdi
	call	fwrite@PLT
.LBB4:
	.loc 2 139 14
	movl	$1, -56(%rbp)
	.loc 2 139 5
	jmp	.L185
.L199:
	.loc 2 141 71 discriminator 3
	movl	-56(%rbp), %ebx
	movslq	%ebx, %rax
	cmpq	$4, %rax
	jbe	.L186
	movslq	%ebx, %rax
	.loc 2 141 71 is_stmt 0
	movq	%rax, %rsi
	leaq	.Lubsan_data684(%rip), %rax
	movq	%rax, %rdi
	call	__ubsan_handle_out_of_bounds@PLT
.L186:
	.loc 2 141 16 is_stmt 1 discriminator 3
	movq	-72(%rbp), %rax
	cmpq	$0, -72(%rbp)
	je	.L187
	movq	%rax, %rdx
	andl	$7, %edx
	testq	%rdx, %rdx
	je	.L188
.L187:
	.loc 2 141 16 is_stmt 0
	movq	%rax, %rsi
	leaq	.Lubsan_data685(%rip), %rax
	movq	%rax, %rdi
	call	__ubsan_handle_type_mismatch_v1@PLT
.L188:
	movslq	%ebx, %rax
	addq	$36, %rax
	leaq	0(,%rax,4), %rcx
	.loc 2 141 16 discriminator 3
	movq	-72(%rbp), %rdx
	leaq	(%rdx,%rcx), %rax
	notq	%rcx
	shrq	$63, %rcx
	testb	%cl, %cl
	je	.L189
	.loc 2 141 16
	cmpq	%rdx, %rax
	jnb	.L190
.L191:
	movq	-72(%rbp), %rcx
	movq	%rax, %rdx
	movq	%rcx, %rsi
	leaq	.Lubsan_data686(%rip), %rax
	movq	%rax, %rdi
	call	__ubsan_handle_pointer_overflow@PLT
	jmp	.L190
.L189:
	.loc 2 141 16 discriminator 3
	cmpq	%rdx, %rax
	ja	.L191
.L190:
	movslq	%ebx, %rax
	addq	$36, %rax
	leaq	0(,%rax,4), %rdx
	movq	-72(%rbp), %rax
	addq	%rdx, %rax
	movq	%rax, %rdx
	shrq	$3, %rdx
	addq	$2147450880, %rdx
	movzbl	(%rdx), %edx
	testb	%dl, %dl
	setne	%sil
	movq	%rax, %rcx
	andl	$7, %ecx
	addl	$3, %ecx
	cmpb	%dl, %cl
	setge	%dl
	andl	%esi, %edx
	testb	%dl, %dl
	je	.L192
	.loc 2 141 16
	movq	%rax, %rdi
	call	__asan_report_load4@PLT
.L192:
	.loc 2 141 16 discriminator 3
	movq	-72(%rbp), %rax
	movslq	%ebx, %rdx
	addq	$36, %rdx
	movl	(%rax,%rdx,4), %r12d
	movl	-56(%rbp), %eax
	addl	$96, %eax
	movl	%eax, %ebx
	jno	.L193
	movl	-56(%rbp), %eax
	cltq
	movl	$96, %edx
	movq	%rax, %rsi
	leaq	.Lubsan_data714(%rip), %rax
	movq	%rax, %rdi
	call	__ubsan_handle_add_overflow@PLT
.L193:
	movl	%ebx, %r13d
	leaq	cpu_logs(%rip), %rax
	movq	%rax, %rdx
	shrq	$3, %rdx
	addq	$2147450880, %rdx
	movzbl	(%rdx), %edx
	testb	%dl, %dl
	je	.L195
	.loc 2 141 16
	movq	%rax, %rdi
	call	__asan_report_load8@PLT
.L195:
	.loc 2 141 16 discriminator 3
	movq	cpu_logs(%rip), %rbx
	testq	%rbx, %rbx
	jne	.L196
	.loc 2 141 16
	leaq	.Lubsan_data610(%rip), %rax
	movq	%rax, %rdi
	call	__ubsan_handle_nonnull_arg@PLT
.L196:
	.loc 2 141 16 discriminator 3
	movl	%r12d, %ecx
	movl	%r13d, %edx
	leaq	.LC33(%rip), %rax
	movq	%rax, %rsi
	movq	%rbx, %rdi
	movl	$0, %eax
	call	fprintf@PLT
	.loc 2 139 5 is_stmt 1 discriminator 3
	movl	-56(%rbp), %eax
	addl	$1, %eax
	movl	%eax, %ebx
	jno	.L197
	movl	-56(%rbp), %eax
	cltq
	movl	$1, %edx
	movq	%rax, %rsi
	leaq	.Lubsan_data715(%rip), %rax
	movq	%rax, %rdi
	call	__ubsan_handle_add_overflow@PLT
.L197:
	movl	%ebx, -56(%rbp)
.L185:
	.loc 2 139 23 discriminator 1
	cmpl	$4, -56(%rbp)
	jle	.L199
.LBE4:
	.loc 2 150 10
	leaq	cpu_logs(%rip), %rax
	movq	%rax, %rdx
	shrq	$3, %rdx
	addq	$2147450880, %rdx
	movzbl	(%rdx), %edx
	testb	%dl, %dl
	je	.L200
	movq	%rax, %rdi
	call	__asan_report_load8@PLT
.L200:
	movq	cpu_logs(%rip), %rbx
	testq	%rbx, %rbx
	jne	.L201
	leaq	.Lubsan_data613(%rip), %rax
	movq	%rax, %rdi
	call	__ubsan_handle_nonnull_arg@PLT
.L201:
	movq	%rbx, %rcx
	movl	$15, %edx
	movl	$1, %esi
	leaq	.LC34(%rip), %rax
	movq	%rax, %rdi
	call	fwrite@PLT
.LBB5:
	.loc 2 151 14
	movl	$0, -52(%rbp)
	.loc 2 151 5
	jmp	.L202
.L235:
	.loc 2 153 24
	movq	-88(%rbp), %rax
	cmpq	$0, -88(%rbp)
	je	.L203
	movq	%rax, %rdx
	andl	$7, %edx
	testq	%rdx, %rdx
	je	.L204
.L203:
	movq	%rax, %rsi
	leaq	.Lubsan_data687(%rip), %rax
	movq	%rax, %rdi
	call	__ubsan_handle_type_mismatch_v1@PLT
.L204:
	movq	-88(%rbp), %rax
	leaq	8(%rax), %rdx
	cmpq	$-8, %rax
	jb	.L205
	movq	-88(%rbp), %rax
	movq	%rax, %rsi
	leaq	.Lubsan_data688(%rip), %rax
	movq	%rax, %rdi
	call	__ubsan_handle_pointer_overflow@PLT
.L205:
	movq	-88(%rbp), %rax
	addq	$8, %rax
	movq	%rax, %rdx
	shrq	$3, %rdx
	addq	$2147450880, %rdx
	movzbl	(%rdx), %edx
	testb	%dl, %dl
	je	.L206
	movq	%rax, %rdi
	call	__asan_report_load8@PLT
.L206:
	movq	-88(%rbp), %rax
	movq	8(%rax), %rbx
	.loc 2 153 29
	movl	-52(%rbp), %eax
	cltq
	.loc 2 153 30
	leaq	0(,%rax,8), %r12
	movq	%rbx, %rdx
	leaq	(%rdx,%r12), %rax
	movq	%r12, %rcx
	notq	%rcx
	shrq	$63, %rcx
	testb	%cl, %cl
	je	.L207
	cmpq	%rdx, %rax
	jnb	.L208
.L209:
	movq	%rax, %rdx
	movq	%rbx, %rsi
	leaq	.Lubsan_data689(%rip), %rax
	movq	%rax, %rdi
	call	__ubsan_handle_pointer_overflow@PLT
	jmp	.L208
.L207:
	cmpq	%rdx, %rax
	ja	.L209
.L208:
	addq	%r12, %rbx
	.loc 2 153 18
	movq	%rbx, %rax
	testq	%rbx, %rbx
	je	.L210
	movq	%rax, %rdx
	andl	$7, %edx
	testq	%rdx, %rdx
	je	.L211
.L210:
	movq	%rax, %rsi
	leaq	.Lubsan_data690(%rip), %rax
	movq	%rax, %rdi
	call	__ubsan_handle_type_mismatch_v1@PLT
.L211:
	movq	%rbx, %rax
	movq	%rax, %rdx
	shrq	$3, %rdx
	addq	$2147450880, %rdx
	movzbl	(%rdx), %edx
	testb	%dl, %dl
	je	.L212
	movq	%rax, %rdi
	call	__asan_report_load8@PLT
.L212:
	movq	(%rbx), %rax
	movq	%rax, %xmm0
	call	_ZSt5isnand
	.loc 2 153 9
	testb	%al, %al
	je	.L213
	.loc 2 154 20
	leaq	cpu_logs(%rip), %rax
	movq	%rax, %rdx
	shrq	$3, %rdx
	addq	$2147450880, %rdx
	movzbl	(%rdx), %edx
	testb	%dl, %dl
	je	.L214
	movq	%rax, %rdi
	call	__asan_report_load8@PLT
.L214:
	movq	cpu_logs(%rip), %rbx
	testq	%rbx, %rbx
	jne	.L215
	leaq	.Lubsan_data614(%rip), %rax
	movq	%rax, %rdi
	call	__ubsan_handle_nonnull_arg@PLT
.L215:
	movl	-52(%rbp), %eax
	leaq	.LC35(%rip), %rdx
	movq	%rdx, %rcx
	movl	%eax, %edx
	leaq	.LC36(%rip), %rax
	movq	%rax, %rsi
	movq	%rbx, %rdi
	movl	$0, %eax
	call	fprintf@PLT
	jmp	.L216
.L213:
	.loc 2 156 56
	movq	-88(%rbp), %rax
	cmpq	$0, -88(%rbp)
	je	.L217
	movq	%rax, %rdx
	andl	$7, %edx
	testq	%rdx, %rdx
	je	.L218
.L217:
	movq	%rax, %rsi
	leaq	.Lubsan_data691(%rip), %rax
	movq	%rax, %rdi
	call	__ubsan_handle_type_mismatch_v1@PLT
.L218:
	movq	-88(%rbp), %rax
	leaq	8(%rax), %rdx
	cmpq	$-8, %rax
	jb	.L219
	movq	-88(%rbp), %rax
	movq	%rax, %rsi
	leaq	.Lubsan_data692(%rip), %rax
	movq	%rax, %rdi
	call	__ubsan_handle_pointer_overflow@PLT
.L219:
	movq	-88(%rbp), %rax
	addq	$8, %rax
	movq	%rax, %rdx
	shrq	$3, %rdx
	addq	$2147450880, %rdx
	movzbl	(%rdx), %edx
	testb	%dl, %dl
	je	.L220
	movq	%rax, %rdi
	call	__asan_report_load8@PLT
.L220:
	movq	-88(%rbp), %rax
	movq	8(%rax), %rbx
	.loc 2 156 61
	movl	-52(%rbp), %eax
	cltq
	.loc 2 156 62
	leaq	0(,%rax,8), %r12
	movq	%rbx, %rdx
	leaq	(%rdx,%r12), %rax
	movq	%r12, %rcx
	notq	%rcx
	shrq	$63, %rcx
	testb	%cl, %cl
	je	.L221
	cmpq	%rdx, %rax
	jnb	.L222
.L223:
	movq	%rax, %rdx
	movq	%rbx, %rsi
	leaq	.Lubsan_data693(%rip), %rax
	movq	%rax, %rdi
	call	__ubsan_handle_pointer_overflow@PLT
	jmp	.L222
.L221:
	cmpq	%rdx, %rax
	ja	.L223
.L222:
	addq	%r12, %rbx
	.loc 2 156 20
	movq	%rbx, %rax
	testq	%rbx, %rbx
	je	.L224
	movq	%rax, %rdx
	andl	$7, %edx
	testq	%rdx, %rdx
	je	.L225
.L224:
	movq	%rax, %rsi
	leaq	.Lubsan_data694(%rip), %rax
	movq	%rax, %rdi
	call	__ubsan_handle_type_mismatch_v1@PLT
.L225:
	movq	%rbx, %rax
	movq	%rax, %rdx
	shrq	$3, %rdx
	addq	$2147450880, %rdx
	movzbl	(%rdx), %edx
	testb	%dl, %dl
	je	.L226
	movq	%rax, %rdi
	call	__asan_report_load8@PLT
.L226:
	movq	(%rbx), %r12
	leaq	cpu_logs(%rip), %rax
	movq	%rax, %rdx
	shrq	$3, %rdx
	addq	$2147450880, %rdx
	movzbl	(%rdx), %edx
	testb	%dl, %dl
	je	.L227
	movq	%rax, %rdi
	call	__asan_report_load8@PLT
.L227:
	movq	cpu_logs(%rip), %rbx
	testq	%rbx, %rbx
	jne	.L228
	leaq	.Lubsan_data616(%rip), %rax
	movq	%rax, %rdi
	call	__ubsan_handle_nonnull_arg@PLT
.L228:
	movl	-52(%rbp), %eax
	movq	%r12, %xmm0
	movl	%eax, %edx
	leaq	.LC37(%rip), %rax
	movq	%rax, %rsi
	movq	%rbx, %rdi
	movl	$1, %eax
	call	fprintf@PLT
.L216:
	.loc 2 151 5 discriminator 2
	movl	-52(%rbp), %eax
	addl	$1, %eax
	movl	%eax, %ebx
	jno	.L229
	movl	-52(%rbp), %eax
	cltq
	movl	$1, %edx
	movq	%rax, %rsi
	leaq	.Lubsan_data716(%rip), %rax
	movq	%rax, %rdi
	call	__ubsan_handle_add_overflow@PLT
.L229:
	movl	%ebx, -52(%rbp)
.L202:
	.loc 2 151 21 discriminator 1
	movl	-52(%rbp), %eax
	movslq	%eax, %rbx
	.loc 2 151 30 discriminator 1
	movq	-88(%rbp), %rax
	cmpq	$0, -88(%rbp)
	je	.L231
	movq	%rax, %rdx
	andl	$7, %edx
	testq	%rdx, %rdx
	je	.L232
.L231:
	.loc 2 151 30 is_stmt 0
	movq	%rax, %rsi
	leaq	.Lubsan_data695(%rip), %rax
	movq	%rax, %rdi
	call	__ubsan_handle_type_mismatch_v1@PLT
.L232:
	.loc 2 151 30 discriminator 1
	movq	-88(%rbp), %rax
	leaq	24(%rax), %rdx
	cmpq	$-24, %rax
	jb	.L233
	.loc 2 151 30
	movq	-88(%rbp), %rax
	movq	%rax, %rsi
	leaq	.Lubsan_data696(%rip), %rax
	movq	%rax, %rdi
	call	__ubsan_handle_pointer_overflow@PLT
.L233:
	.loc 2 151 30 discriminator 1
	movq	-88(%rbp), %rax
	addq	$24, %rax
	movq	%rax, %rdx
	shrq	$3, %rdx
	addq	$2147450880, %rdx
	movzbl	(%rdx), %edx
	testb	%dl, %dl
	je	.L234
	.loc 2 151 30
	movq	%rax, %rdi
	call	__asan_report_load8@PLT
.L234:
	.loc 2 151 30 discriminator 1
	movq	-88(%rbp), %rax
	movq	24(%rax), %rax
	.loc 2 151 23 is_stmt 1 discriminator 1
	cmpq	%rax, %rbx
	jl	.L235
.LBE5:
	.loc 2 161 10
	leaq	cpu_logs(%rip), %rax
	movq	%rax, %rdx
	shrq	$3, %rdx
	addq	$2147450880, %rdx
	movzbl	(%rdx), %edx
	testb	%dl, %dl
	je	.L236
	movq	%rax, %rdi
	call	__asan_report_load8@PLT
.L236:
	movq	cpu_logs(%rip), %rbx
	testq	%rbx, %rbx
	jne	.L237
	leaq	.Lubsan_data619(%rip), %rax
	movq	%rax, %rdi
	call	__ubsan_handle_nonnull_arg@PLT
.L237:
	movq	%rbx, %rcx
	movl	$20, %edx
	movl	$1, %esi
	leaq	.LC38(%rip), %rax
	movq	%rax, %rdi
	call	fwrite@PLT
.LBB6:
	.loc 2 162 14
	movl	$0, -48(%rbp)
	.loc 2 162 5
	jmp	.L238
.L271:
	.loc 2 164 35
	movq	-72(%rbp), %rax
	cmpq	$0, -72(%rbp)
	je	.L239
	movq	%rax, %rdx
	andl	$7, %edx
	testq	%rdx, %rdx
	je	.L240
.L239:
	movq	%rax, %rsi
	leaq	.Lubsan_data697(%rip), %rax
	movq	%rax, %rdi
	call	__ubsan_handle_type_mismatch_v1@PLT
.L240:
	movq	-72(%rbp), %rax
	leaq	16560(%rax), %rdx
	cmpq	$-16560, %rax
	jb	.L241
	movq	-72(%rbp), %rax
	movq	%rax, %rsi
	leaq	.Lubsan_data698(%rip), %rax
	movq	%rax, %rdi
	call	__ubsan_handle_pointer_overflow@PLT
.L241:
	movq	-72(%rbp), %rax
	addq	$16560, %rax
	movq	%rax, %rdx
	shrq	$3, %rdx
	addq	$2147450880, %rdx
	movzbl	(%rdx), %edx
	testb	%dl, %dl
	je	.L242
	movq	%rax, %rdi
	call	__asan_report_load8@PLT
.L242:
	movq	-72(%rbp), %rax
	movq	16560(%rax), %rbx
	.loc 2 164 40
	movl	-48(%rbp), %eax
	cltq
	.loc 2 164 41
	leaq	0(,%rax,8), %r12
	movq	%rbx, %rdx
	leaq	(%rdx,%r12), %rax
	movq	%r12, %rcx
	notq	%rcx
	shrq	$63, %rcx
	testb	%cl, %cl
	je	.L243
	cmpq	%rdx, %rax
	jnb	.L244
.L245:
	movq	%rax, %rdx
	movq	%rbx, %rsi
	leaq	.Lubsan_data699(%rip), %rax
	movq	%rax, %rdi
	call	__ubsan_handle_pointer_overflow@PLT
	jmp	.L244
.L243:
	cmpq	%rdx, %rax
	ja	.L245
.L244:
	addq	%r12, %rbx
	.loc 2 164 18
	movq	%rbx, %rax
	testq	%rbx, %rbx
	je	.L246
	movq	%rax, %rdx
	andl	$7, %edx
	testq	%rdx, %rdx
	je	.L247
.L246:
	movq	%rax, %rsi
	leaq	.Lubsan_data700(%rip), %rax
	movq	%rax, %rdi
	call	__ubsan_handle_type_mismatch_v1@PLT
.L247:
	movq	%rbx, %rax
	movq	%rax, %rdx
	shrq	$3, %rdx
	addq	$2147450880, %rdx
	movzbl	(%rdx), %edx
	testb	%dl, %dl
	je	.L248
	movq	%rax, %rdi
	call	__asan_report_load8@PLT
.L248:
	movq	(%rbx), %rax
	movq	%rax, %xmm0
	call	_ZSt5isnand
	.loc 2 164 9
	testb	%al, %al
	je	.L249
	.loc 2 165 20
	leaq	cpu_logs(%rip), %rax
	movq	%rax, %rdx
	shrq	$3, %rdx
	addq	$2147450880, %rdx
	movzbl	(%rdx), %edx
	testb	%dl, %dl
	je	.L250
	movq	%rax, %rdi
	call	__asan_report_load8@PLT
.L250:
	movq	cpu_logs(%rip), %rbx
	testq	%rbx, %rbx
	jne	.L251
	leaq	.Lubsan_data620(%rip), %rax
	movq	%rax, %rdi
	call	__ubsan_handle_nonnull_arg@PLT
.L251:
	movl	-48(%rbp), %eax
	leaq	.LC35(%rip), %rdx
	movq	%rdx, %rcx
	movl	%eax, %edx
	leaq	.LC36(%rip), %rax
	movq	%rax, %rsi
	movq	%rbx, %rdi
	movl	$0, %eax
	call	fprintf@PLT
	jmp	.L252
.L249:
	.loc 2 167 67
	movq	-72(%rbp), %rax
	cmpq	$0, -72(%rbp)
	je	.L253
	movq	%rax, %rdx
	andl	$7, %edx
	testq	%rdx, %rdx
	je	.L254
.L253:
	movq	%rax, %rsi
	leaq	.Lubsan_data701(%rip), %rax
	movq	%rax, %rdi
	call	__ubsan_handle_type_mismatch_v1@PLT
.L254:
	movq	-72(%rbp), %rax
	leaq	16560(%rax), %rdx
	cmpq	$-16560, %rax
	jb	.L255
	movq	-72(%rbp), %rax
	movq	%rax, %rsi
	leaq	.Lubsan_data702(%rip), %rax
	movq	%rax, %rdi
	call	__ubsan_handle_pointer_overflow@PLT
.L255:
	movq	-72(%rbp), %rax
	addq	$16560, %rax
	movq	%rax, %rdx
	shrq	$3, %rdx
	addq	$2147450880, %rdx
	movzbl	(%rdx), %edx
	testb	%dl, %dl
	je	.L256
	movq	%rax, %rdi
	call	__asan_report_load8@PLT
.L256:
	movq	-72(%rbp), %rax
	movq	16560(%rax), %rbx
	.loc 2 167 72
	movl	-48(%rbp), %eax
	cltq
	.loc 2 167 73
	leaq	0(,%rax,8), %r12
	movq	%rbx, %rdx
	leaq	(%rdx,%r12), %rax
	movq	%r12, %rcx
	notq	%rcx
	shrq	$63, %rcx
	testb	%cl, %cl
	je	.L257
	cmpq	%rdx, %rax
	jnb	.L258
.L259:
	movq	%rax, %rdx
	movq	%rbx, %rsi
	leaq	.Lubsan_data703(%rip), %rax
	movq	%rax, %rdi
	call	__ubsan_handle_pointer_overflow@PLT
	jmp	.L258
.L257:
	cmpq	%rdx, %rax
	ja	.L259
.L258:
	addq	%r12, %rbx
	.loc 2 167 20
	movq	%rbx, %rax
	testq	%rbx, %rbx
	je	.L260
	movq	%rax, %rdx
	andl	$7, %edx
	testq	%rdx, %rdx
	je	.L261
.L260:
	movq	%rax, %rsi
	leaq	.Lubsan_data704(%rip), %rax
	movq	%rax, %rdi
	call	__ubsan_handle_type_mismatch_v1@PLT
.L261:
	movq	%rbx, %rax
	movq	%rax, %rdx
	shrq	$3, %rdx
	addq	$2147450880, %rdx
	movzbl	(%rdx), %edx
	testb	%dl, %dl
	je	.L262
	movq	%rax, %rdi
	call	__asan_report_load8@PLT
.L262:
	movq	(%rbx), %r12
	leaq	cpu_logs(%rip), %rax
	movq	%rax, %rdx
	shrq	$3, %rdx
	addq	$2147450880, %rdx
	movzbl	(%rdx), %edx
	testb	%dl, %dl
	je	.L263
	movq	%rax, %rdi
	call	__asan_report_load8@PLT
.L263:
	movq	cpu_logs(%rip), %rbx
	testq	%rbx, %rbx
	jne	.L264
	leaq	.Lubsan_data622(%rip), %rax
	movq	%rax, %rdi
	call	__ubsan_handle_nonnull_arg@PLT
.L264:
	movl	-48(%rbp), %eax
	movq	%r12, %xmm0
	movl	%eax, %edx
	leaq	.LC37(%rip), %rax
	movq	%rax, %rsi
	movq	%rbx, %rdi
	movl	$1, %eax
	call	fprintf@PLT
.L252:
	.loc 2 162 5 discriminator 2
	movl	-48(%rbp), %eax
	addl	$1, %eax
	movl	%eax, %ebx
	jno	.L265
	movl	-48(%rbp), %eax
	cltq
	movl	$1, %edx
	movq	%rax, %rsi
	leaq	.Lubsan_data717(%rip), %rax
	movq	%rax, %rdi
	call	__ubsan_handle_add_overflow@PLT
.L265:
	movl	%ebx, -48(%rbp)
.L238:
	.loc 2 162 21 discriminator 1
	movl	-48(%rbp), %eax
	movslq	%eax, %rbx
	.loc 2 162 41 discriminator 1
	movq	-72(%rbp), %rax
	cmpq	$0, -72(%rbp)
	je	.L267
	movq	%rax, %rdx
	andl	$7, %edx
	testq	%rdx, %rdx
	je	.L268
.L267:
	.loc 2 162 41 is_stmt 0
	movq	%rax, %rsi
	leaq	.Lubsan_data705(%rip), %rax
	movq	%rax, %rdi
	call	__ubsan_handle_type_mismatch_v1@PLT
.L268:
	.loc 2 162 41 discriminator 1
	movq	-72(%rbp), %rax
	leaq	16576(%rax), %rdx
	cmpq	$-16576, %rax
	jb	.L269
	.loc 2 162 41
	movq	-72(%rbp), %rax
	movq	%rax, %rsi
	leaq	.Lubsan_data706(%rip), %rax
	movq	%rax, %rdi
	call	__ubsan_handle_pointer_overflow@PLT
.L269:
	.loc 2 162 41 discriminator 1
	movq	-72(%rbp), %rax
	addq	$16576, %rax
	movq	%rax, %rdx
	shrq	$3, %rdx
	addq	$2147450880, %rdx
	movzbl	(%rdx), %edx
	testb	%dl, %dl
	je	.L270
	.loc 2 162 41
	movq	%rax, %rdi
	call	__asan_report_load8@PLT
.L270:
	.loc 2 162 41 discriminator 1
	movq	-72(%rbp), %rax
	movq	16576(%rax), %rax
	.loc 2 162 23 is_stmt 1 discriminator 1
	cmpq	%rax, %rbx
	jl	.L271
.LBE6:
	.loc 2 170 10
	leaq	cpu_logs(%rip), %rax
	movq	%rax, %rdx
	shrq	$3, %rdx
	addq	$2147450880, %rdx
	movzbl	(%rdx), %edx
	testb	%dl, %dl
	je	.L272
	movq	%rax, %rdi
	call	__asan_report_load8@PLT
.L272:
	movq	cpu_logs(%rip), %rbx
	testq	%rbx, %rbx
	jne	.L273
	leaq	.Lubsan_data625(%rip), %rax
	movq	%rax, %rdi
	call	__ubsan_handle_nonnull_arg@PLT
.L273:
	movq	%rbx, %rcx
	movl	$13, %edx
	movl	$1, %esi
	leaq	.LC39(%rip), %rax
	movq	%rax, %rdi
	call	fwrite@PLT
.LBB7:
	.loc 2 171 14
	movl	$0, -44(%rbp)
	.loc 2 171 5
	jmp	.L274
.L294:
	.loc 2 173 23
	movl	-44(%rbp), %ebx
	movslq	%ebx, %rax
	cmpq	$4095, %rax
	jbe	.L275
	movslq	%ebx, %rax
	movq	%rax, %rsi
	leaq	.Lubsan_data707(%rip), %rax
	movq	%rax, %rdi
	call	__ubsan_handle_out_of_bounds@PLT
.L275:
	movq	-72(%rbp), %rax
	cmpq	$0, -72(%rbp)
	je	.L276
	movq	%rax, %rdx
	andl	$7, %edx
	testq	%rdx, %rdx
	je	.L277
.L276:
	movq	%rax, %rsi
	leaq	.Lubsan_data708(%rip), %rax
	movq	%rax, %rdi
	call	__ubsan_handle_type_mismatch_v1@PLT
.L277:
	movslq	%ebx, %rax
	addq	$41, %rax
	leaq	0(,%rax,4), %rcx
	movq	-72(%rbp), %rdx
	leaq	(%rdx,%rcx), %rax
	notq	%rcx
	shrq	$63, %rcx
	testb	%cl, %cl
	je	.L278
	cmpq	%rdx, %rax
	jnb	.L279
.L280:
	movq	-72(%rbp), %rcx
	movq	%rax, %rdx
	movq	%rcx, %rsi
	leaq	.Lubsan_data709(%rip), %rax
	movq	%rax, %rdi
	call	__ubsan_handle_pointer_overflow@PLT
	jmp	.L279
.L278:
	cmpq	%rdx, %rax
	ja	.L280
.L279:
	movslq	%ebx, %rax
	addq	$40, %rax
	leaq	0(,%rax,4), %rdx
	movq	-72(%rbp), %rax
	addq	%rdx, %rax
	addq	$4, %rax
	movq	%rax, %rdx
	shrq	$3, %rdx
	addq	$2147450880, %rdx
	movzbl	(%rdx), %edx
	testb	%dl, %dl
	setne	%sil
	movq	%rax, %rcx
	andl	$7, %ecx
	addl	$3, %ecx
	cmpb	%dl, %cl
	setge	%dl
	andl	%esi, %edx
	testb	%dl, %dl
	je	.L281
	movq	%rax, %rdi
	call	__asan_report_load4@PLT
.L281:
	movq	-72(%rbp), %rax
	movslq	%ebx, %rdx
	addq	$40, %rdx
	movl	4(%rax,%rdx,4), %eax
	.loc 2 173 9
	testl	%eax, %eax
	je	.L282
	.loc 2 174 61
	movl	-44(%rbp), %ebx
	movslq	%ebx, %rax
	cmpq	$4095, %rax
	jbe	.L283
	movslq	%ebx, %rax
	movq	%rax, %rsi
	leaq	.Lubsan_data710(%rip), %rax
	movq	%rax, %rdi
	call	__ubsan_handle_out_of_bounds@PLT
.L283:
	.loc 2 174 20
	movq	-72(%rbp), %rax
	cmpq	$0, -72(%rbp)
	je	.L284
	movq	%rax, %rdx
	andl	$7, %edx
	testq	%rdx, %rdx
	je	.L285
.L284:
	movq	%rax, %rsi
	leaq	.Lubsan_data711(%rip), %rax
	movq	%rax, %rdi
	call	__ubsan_handle_type_mismatch_v1@PLT
.L285:
	movslq	%ebx, %rax
	addq	$41, %rax
	leaq	0(,%rax,4), %rcx
	movq	-72(%rbp), %rdx
	leaq	(%rdx,%rcx), %rax
	notq	%rcx
	shrq	$63, %rcx
	testb	%cl, %cl
	je	.L286
	cmpq	%rdx, %rax
	jnb	.L287
.L288:
	movq	-72(%rbp), %rcx
	movq	%rax, %rdx
	movq	%rcx, %rsi
	leaq	.Lubsan_data712(%rip), %rax
	movq	%rax, %rdi
	call	__ubsan_handle_pointer_overflow@PLT
	jmp	.L287
.L286:
	cmpq	%rdx, %rax
	ja	.L288
.L287:
	movslq	%ebx, %rax
	addq	$40, %rax
	leaq	0(,%rax,4), %rdx
	movq	-72(%rbp), %rax
	addq	%rdx, %rax
	addq	$4, %rax
	movq	%rax, %rdx
	shrq	$3, %rdx
	addq	$2147450880, %rdx
	movzbl	(%rdx), %edx
	testb	%dl, %dl
	setne	%sil
	movq	%rax, %rcx
	andl	$7, %ecx
	addl	$3, %ecx
	cmpb	%dl, %cl
	setge	%dl
	andl	%esi, %edx
	testb	%dl, %dl
	je	.L289
	movq	%rax, %rdi
	call	__asan_report_load4@PLT
.L289:
	movq	-72(%rbp), %rax
	movslq	%ebx, %rdx
	addq	$40, %rdx
	movl	4(%rax,%rdx,4), %r12d
	leaq	cpu_logs(%rip), %rax
	movq	%rax, %rdx
	shrq	$3, %rdx
	addq	$2147450880, %rdx
	movzbl	(%rdx), %edx
	testb	%dl, %dl
	je	.L290
	movq	%rax, %rdi
	call	__asan_report_load8@PLT
.L290:
	movq	cpu_logs(%rip), %rbx
	testq	%rbx, %rbx
	jne	.L291
	leaq	.Lubsan_data626(%rip), %rax
	movq	%rax, %rdi
	call	__ubsan_handle_nonnull_arg@PLT
.L291:
	movl	-44(%rbp), %eax
	movl	%r12d, %ecx
	movl	%eax, %edx
	leaq	.LC40(%rip), %rax
	movq	%rax, %rsi
	movq	%rbx, %rdi
	movl	$0, %eax
	call	fprintf@PLT
.L282:
	.loc 2 171 5 discriminator 2
	movl	-44(%rbp), %eax
	addl	$1, %eax
	movl	%eax, %ebx
	jno	.L292
	movl	-44(%rbp), %eax
	cltq
	movl	$1, %edx
	movq	%rax, %rsi
	leaq	.Lubsan_data718(%rip), %rax
	movq	%rax, %rdi
	call	__ubsan_handle_add_overflow@PLT
.L292:
	movl	%ebx, -44(%rbp)
.L274:
	.loc 2 171 23 discriminator 1
	cmpl	$4095, -44(%rbp)
	jle	.L294
.LBE7:
	.loc 2 176 1
	nop
	nop
	addq	$88, %rsp
	popq	%rbx
	popq	%r12
	popq	%r13
	popq	%rbp
	.cfi_def_cfa 7, 8
	ret
	.cfi_endproc
.LFE1120:
	.size	_Z8dump_cpuP10Cpu_structlP5StackPKcS4_i, .-_Z8dump_cpuP10Cpu_structlP5StackPKcS4_i
	.data
	.align 32
	.type	.Lubsan_type4, @object
	.size	.Lubsan_type4, 10
.Lubsan_type4:
	.value	0
	.value	11
	.string	"'int'"
	.zero	54
	.section	.data.rel.local
	.align 32
	.type	.Lubsan_data246, @object
	.size	.Lubsan_data246, 32
.Lubsan_data246:
	.quad	.LC0
	.long	240
	.long	61
	.quad	.Lubsan_type2
	.quad	.Lubsan_type4
	.zero	32
	.align 32
	.type	.Lubsan_data247, @object
	.size	.Lubsan_data247, 32
.Lubsan_data247:
	.quad	.LC0
	.long	243
	.long	55
	.quad	.Lubsan_type2
	.quad	.Lubsan_type4
	.zero	32
	.align 32
	.type	.Lubsan_data248, @object
	.size	.Lubsan_data248, 32
.Lubsan_data248:
	.quad	.LC0
	.long	247
	.long	70
	.quad	.Lubsan_type2
	.quad	.Lubsan_type4
	.zero	32
	.align 32
	.type	.Lubsan_data249, @object
	.size	.Lubsan_data249, 32
.Lubsan_data249:
	.quad	.LC0
	.long	290
	.long	29
	.quad	.Lubsan_type2
	.quad	.Lubsan_type4
	.zero	32
	.align 32
	.type	.Lubsan_data250, @object
	.size	.Lubsan_data250, 32
.Lubsan_data250:
	.quad	.LC0
	.long	290
	.long	44
	.quad	.Lubsan_type2
	.quad	.Lubsan_type4
	.zero	32
	.align 32
	.type	.Lubsan_data251, @object
	.size	.Lubsan_data251, 24
.Lubsan_data251:
	.quad	.LC0
	.long	290
	.long	35
	.quad	.Lubsan_type4
	.zero	40
	.align 32
	.type	.Lubsan_data252, @object
	.size	.Lubsan_data252, 32
.Lubsan_data252:
	.quad	.LC0
	.long	308
	.long	45
	.quad	.Lubsan_type2
	.quad	.Lubsan_type4
	.zero	32
	.align 32
	.type	.Lubsan_data253, @object
	.size	.Lubsan_data253, 32
.Lubsan_data253:
	.quad	.LC0
	.long	309
	.long	42
	.quad	.Lubsan_type2
	.quad	.Lubsan_type4
	.zero	32
	.data
	.align 32
	.type	.Lubsan_type5, @object
	.size	.Lubsan_type5, 15
.Lubsan_type5:
	.value	0
	.value	13
	.string	"'long int'"
	.zero	49
	.section	.data.rel.local
	.align 32
	.type	.Lubsan_data254, @object
	.size	.Lubsan_data254, 32
.Lubsan_data254:
	.quad	.LC0
	.long	427
	.long	28
	.quad	.Lubsan_type2
	.quad	.Lubsan_type5
	.zero	32
	.align 32
	.type	.Lubsan_data719, @object
	.size	.Lubsan_data719, 32
.Lubsan_data719:
	.quad	.LC0
	.long	189
	.long	20
	.quad	.Lubsan_type6
	.byte	3
	.byte	3
	.zero	6
	.zero	32
	.align 32
	.type	.Lubsan_data720, @object
	.size	.Lubsan_data720, 16
.Lubsan_data720:
	.quad	.LC0
	.long	189
	.long	20
	.zero	48
	.align 32
	.type	.Lubsan_data721, @object
	.size	.Lubsan_data721, 16
.Lubsan_data721:
	.quad	.LC0
	.long	189
	.long	35
	.zero	48
	.align 32
	.type	.Lubsan_data722, @object
	.size	.Lubsan_data722, 32
.Lubsan_data722:
	.quad	.LC0
	.long	189
	.long	13
	.quad	.Lubsan_type7
	.byte	2
	.byte	0
	.zero	6
	.zero	32
	.align 32
	.type	.Lubsan_data723, @object
	.size	.Lubsan_data723, 32
.Lubsan_data723:
	.quad	.LC0
	.long	210
	.long	29
	.quad	.Lubsan_type6
	.byte	3
	.byte	3
	.zero	6
	.zero	32
	.align 32
	.type	.Lubsan_data724, @object
	.size	.Lubsan_data724, 16
.Lubsan_data724:
	.quad	.LC0
	.long	210
	.long	29
	.zero	48
	.align 32
	.type	.Lubsan_data725, @object
	.size	.Lubsan_data725, 16
.Lubsan_data725:
	.quad	.LC0
	.long	210
	.long	42
	.zero	48
	.align 32
	.type	.Lubsan_data726, @object
	.size	.Lubsan_data726, 32
.Lubsan_data726:
	.quad	.LC0
	.long	210
	.long	42
	.quad	.Lubsan_type7
	.byte	2
	.byte	0
	.zero	6
	.zero	32
	.align 32
	.type	.Lubsan_data727, @object
	.size	.Lubsan_data727, 32
.Lubsan_data727:
	.quad	.LC0
	.long	213
	.long	44
	.quad	.Lubsan_type6
	.byte	3
	.byte	3
	.zero	6
	.zero	32
	.align 32
	.type	.Lubsan_data728, @object
	.size	.Lubsan_data728, 16
.Lubsan_data728:
	.quad	.LC0
	.long	213
	.long	44
	.zero	48
	.align 32
	.type	.Lubsan_data729, @object
	.size	.Lubsan_data729, 16
.Lubsan_data729:
	.quad	.LC0
	.long	213
	.long	57
	.zero	48
	.align 32
	.type	.Lubsan_data730, @object
	.size	.Lubsan_data730, 32
.Lubsan_data730:
	.quad	.LC0
	.long	213
	.long	57
	.quad	.Lubsan_type7
	.byte	2
	.byte	0
	.zero	6
	.zero	32
	.align 32
	.type	.Lubsan_data731, @object
	.size	.Lubsan_data731, 32
.Lubsan_data731:
	.quad	.LC0
	.long	213
	.long	58
	.quad	.Lubsan_type8
	.quad	.Lubsan_type4
	.zero	32
	.align 32
	.type	.Lubsan_data732, @object
	.size	.Lubsan_data732, 32
.Lubsan_data732:
	.quad	.LC0
	.long	213
	.long	58
	.quad	.Lubsan_type6
	.byte	3
	.byte	3
	.zero	6
	.zero	32
	.align 32
	.type	.Lubsan_data733, @object
	.size	.Lubsan_data733, 16
.Lubsan_data733:
	.quad	.LC0
	.long	213
	.long	58
	.zero	48
	.align 32
	.type	.Lubsan_data734, @object
	.size	.Lubsan_data734, 32
.Lubsan_data734:
	.quad	.LC0
	.long	217
	.long	38
	.quad	.Lubsan_type6
	.byte	3
	.byte	3
	.zero	6
	.zero	32
	.align 32
	.type	.Lubsan_data735, @object
	.size	.Lubsan_data735, 16
.Lubsan_data735:
	.quad	.LC0
	.long	217
	.long	38
	.zero	48
	.align 32
	.type	.Lubsan_data736, @object
	.size	.Lubsan_data736, 16
.Lubsan_data736:
	.quad	.LC0
	.long	217
	.long	51
	.zero	48
	.align 32
	.type	.Lubsan_data737, @object
	.size	.Lubsan_data737, 32
.Lubsan_data737:
	.quad	.LC0
	.long	217
	.long	51
	.quad	.Lubsan_type7
	.byte	2
	.byte	0
	.zero	6
	.zero	32
	.align 32
	.type	.Lubsan_data738, @object
	.size	.Lubsan_data738, 32
.Lubsan_data738:
	.quad	.LC0
	.long	217
	.long	52
	.quad	.Lubsan_type11
	.quad	.Lubsan_type4
	.zero	32
	.align 32
	.type	.Lubsan_data739, @object
	.size	.Lubsan_data739, 32
.Lubsan_data739:
	.quad	.LC0
	.long	217
	.long	52
	.quad	.Lubsan_type6
	.byte	3
	.byte	3
	.zero	6
	.zero	32
	.align 32
	.type	.Lubsan_data740, @object
	.size	.Lubsan_data740, 16
.Lubsan_data740:
	.quad	.LC0
	.long	217
	.long	52
	.zero	48
	.align 32
	.type	.Lubsan_data741, @object
	.size	.Lubsan_data741, 32
.Lubsan_data741:
	.quad	.LC0
	.long	222
	.long	53
	.quad	.Lubsan_type6
	.byte	3
	.byte	3
	.zero	6
	.zero	32
	.align 32
	.type	.Lubsan_data742, @object
	.size	.Lubsan_data742, 16
.Lubsan_data742:
	.quad	.LC0
	.long	222
	.long	53
	.zero	48
	.align 32
	.type	.Lubsan_data743, @object
	.size	.Lubsan_data743, 16
.Lubsan_data743:
	.quad	.LC0
	.long	222
	.long	66
	.zero	48
	.align 32
	.type	.Lubsan_data744, @object
	.size	.Lubsan_data744, 32
.Lubsan_data744:
	.quad	.LC0
	.long	222
	.long	66
	.quad	.Lubsan_type7
	.byte	2
	.byte	0
	.zero	6
	.zero	32
	.align 32
	.type	.Lubsan_data745, @object
	.size	.Lubsan_data745, 32
.Lubsan_data745:
	.quad	.LC0
	.long	222
	.long	67
	.quad	.Lubsan_type8
	.quad	.Lubsan_type4
	.zero	32
	.align 32
	.type	.Lubsan_data746, @object
	.size	.Lubsan_data746, 32
.Lubsan_data746:
	.quad	.LC0
	.long	222
	.long	67
	.quad	.Lubsan_type6
	.byte	3
	.byte	3
	.zero	6
	.zero	32
	.align 32
	.type	.Lubsan_data747, @object
	.size	.Lubsan_data747, 16
.Lubsan_data747:
	.quad	.LC0
	.long	222
	.long	67
	.zero	48
	.align 32
	.type	.Lubsan_data748, @object
	.size	.Lubsan_data748, 32
.Lubsan_data748:
	.quad	.LC0
	.long	222
	.long	68
	.quad	.Lubsan_type11
	.quad	.Lubsan_type4
	.zero	32
	.align 32
	.type	.Lubsan_data749, @object
	.size	.Lubsan_data749, 32
.Lubsan_data749:
	.quad	.LC0
	.long	222
	.long	68
	.quad	.Lubsan_type6
	.byte	3
	.byte	3
	.zero	6
	.zero	32
	.align 32
	.type	.Lubsan_data750, @object
	.size	.Lubsan_data750, 16
.Lubsan_data750:
	.quad	.LC0
	.long	222
	.long	68
	.zero	48
	.align 32
	.type	.Lubsan_data751, @object
	.size	.Lubsan_data751, 32
.Lubsan_data751:
	.quad	.LC0
	.long	240
	.long	37
	.quad	.Lubsan_type6
	.byte	3
	.byte	3
	.zero	6
	.zero	32
	.align 32
	.type	.Lubsan_data752, @object
	.size	.Lubsan_data752, 16
.Lubsan_data752:
	.quad	.LC0
	.long	240
	.long	37
	.zero	48
	.align 32
	.type	.Lubsan_data753, @object
	.size	.Lubsan_data753, 16
.Lubsan_data753:
	.quad	.LC0
	.long	240
	.long	50
	.zero	48
	.align 32
	.type	.Lubsan_data754, @object
	.size	.Lubsan_data754, 32
.Lubsan_data754:
	.quad	.LC0
	.long	240
	.long	50
	.quad	.Lubsan_type7
	.byte	2
	.byte	0
	.zero	6
	.zero	32
	.align 32
	.type	.Lubsan_data755, @object
	.size	.Lubsan_data755, 32
.Lubsan_data755:
	.quad	.LC0
	.long	240
	.long	51
	.quad	.Lubsan_type8
	.quad	.Lubsan_type4
	.zero	32
	.align 32
	.type	.Lubsan_data756, @object
	.size	.Lubsan_data756, 32
.Lubsan_data756:
	.quad	.LC0
	.long	240
	.long	53
	.quad	.Lubsan_type6
	.byte	3
	.byte	3
	.zero	6
	.zero	32
	.align 32
	.type	.Lubsan_data757, @object
	.size	.Lubsan_data757, 16
.Lubsan_data757:
	.quad	.LC0
	.long	240
	.long	53
	.zero	48
	.align 32
	.type	.Lubsan_data758, @object
	.size	.Lubsan_data758, 32
.Lubsan_data758:
	.quad	.LC0
	.long	243
	.long	31
	.quad	.Lubsan_type6
	.byte	3
	.byte	3
	.zero	6
	.zero	32
	.align 32
	.type	.Lubsan_data759, @object
	.size	.Lubsan_data759, 16
.Lubsan_data759:
	.quad	.LC0
	.long	243
	.long	31
	.zero	48
	.align 32
	.type	.Lubsan_data760, @object
	.size	.Lubsan_data760, 16
.Lubsan_data760:
	.quad	.LC0
	.long	243
	.long	44
	.zero	48
	.align 32
	.type	.Lubsan_data761, @object
	.size	.Lubsan_data761, 32
.Lubsan_data761:
	.quad	.LC0
	.long	243
	.long	44
	.quad	.Lubsan_type7
	.byte	2
	.byte	0
	.zero	6
	.zero	32
	.align 32
	.type	.Lubsan_data762, @object
	.size	.Lubsan_data762, 32
.Lubsan_data762:
	.quad	.LC0
	.long	243
	.long	45
	.quad	.Lubsan_type11
	.quad	.Lubsan_type4
	.zero	32
	.align 32
	.type	.Lubsan_data763, @object
	.size	.Lubsan_data763, 32
.Lubsan_data763:
	.quad	.LC0
	.long	243
	.long	47
	.quad	.Lubsan_type6
	.byte	3
	.byte	3
	.zero	6
	.zero	32
	.align 32
	.type	.Lubsan_data764, @object
	.size	.Lubsan_data764, 16
.Lubsan_data764:
	.quad	.LC0
	.long	243
	.long	47
	.zero	48
	.align 32
	.type	.Lubsan_data765, @object
	.size	.Lubsan_data765, 32
.Lubsan_data765:
	.quad	.LC0
	.long	247
	.long	46
	.quad	.Lubsan_type6
	.byte	3
	.byte	3
	.zero	6
	.zero	32
	.align 32
	.type	.Lubsan_data766, @object
	.size	.Lubsan_data766, 16
.Lubsan_data766:
	.quad	.LC0
	.long	247
	.long	46
	.zero	48
	.align 32
	.type	.Lubsan_data767, @object
	.size	.Lubsan_data767, 16
.Lubsan_data767:
	.quad	.LC0
	.long	247
	.long	59
	.zero	48
	.align 32
	.type	.Lubsan_data768, @object
	.size	.Lubsan_data768, 32
.Lubsan_data768:
	.quad	.LC0
	.long	247
	.long	59
	.quad	.Lubsan_type7
	.byte	2
	.byte	0
	.zero	6
	.zero	32
	.align 32
	.type	.Lubsan_data769, @object
	.size	.Lubsan_data769, 32
.Lubsan_data769:
	.quad	.LC0
	.long	247
	.long	60
	.quad	.Lubsan_type8
	.quad	.Lubsan_type4
	.zero	32
	.align 32
	.type	.Lubsan_data770, @object
	.size	.Lubsan_data770, 32
.Lubsan_data770:
	.quad	.LC0
	.long	247
	.long	60
	.quad	.Lubsan_type6
	.byte	3
	.byte	3
	.zero	6
	.zero	32
	.align 32
	.type	.Lubsan_data771, @object
	.size	.Lubsan_data771, 16
.Lubsan_data771:
	.quad	.LC0
	.long	247
	.long	60
	.zero	48
	.align 32
	.type	.Lubsan_data772, @object
	.size	.Lubsan_data772, 32
.Lubsan_data772:
	.quad	.LC0
	.long	247
	.long	61
	.quad	.Lubsan_type11
	.quad	.Lubsan_type4
	.zero	32
	.align 32
	.type	.Lubsan_data773, @object
	.size	.Lubsan_data773, 32
.Lubsan_data773:
	.quad	.LC0
	.long	247
	.long	63
	.quad	.Lubsan_type6
	.byte	3
	.byte	3
	.zero	6
	.zero	32
	.align 32
	.type	.Lubsan_data774, @object
	.size	.Lubsan_data774, 16
.Lubsan_data774:
	.quad	.LC0
	.long	247
	.long	63
	.zero	48
	.align 32
	.type	.Lubsan_data775, @object
	.size	.Lubsan_data775, 32
.Lubsan_data775:
	.quad	.LC0
	.long	320
	.long	32
	.quad	.Lubsan_type6
	.byte	3
	.byte	3
	.zero	6
	.zero	32
	.align 32
	.type	.Lubsan_data776, @object
	.size	.Lubsan_data776, 16
.Lubsan_data776:
	.quad	.LC0
	.long	320
	.long	32
	.zero	48
	.align 32
	.type	.Lubsan_data777, @object
	.size	.Lubsan_data777, 16
.Lubsan_data777:
	.quad	.LC0
	.long	320
	.long	45
	.zero	48
	.align 32
	.type	.Lubsan_data778, @object
	.size	.Lubsan_data778, 32
.Lubsan_data778:
	.quad	.LC0
	.long	320
	.long	45
	.quad	.Lubsan_type7
	.byte	2
	.byte	0
	.zero	6
	.zero	32
	.align 32
	.type	.Lubsan_data779, @object
	.size	.Lubsan_data779, 32
.Lubsan_data779:
	.quad	.LC0
	.long	332
	.long	36
	.quad	.Lubsan_type6
	.byte	3
	.byte	3
	.zero	6
	.zero	32
	.align 32
	.type	.Lubsan_data780, @object
	.size	.Lubsan_data780, 16
.Lubsan_data780:
	.quad	.LC0
	.long	332
	.long	36
	.zero	48
	.align 32
	.type	.Lubsan_data781, @object
	.size	.Lubsan_data781, 16
.Lubsan_data781:
	.quad	.LC0
	.long	332
	.long	49
	.zero	48
	.align 32
	.type	.Lubsan_data782, @object
	.size	.Lubsan_data782, 32
.Lubsan_data782:
	.quad	.LC0
	.long	332
	.long	49
	.quad	.Lubsan_type7
	.byte	2
	.byte	0
	.zero	6
	.zero	32
	.align 32
	.type	.Lubsan_data783, @object
	.size	.Lubsan_data783, 32
.Lubsan_data783:
	.quad	.LC0
	.long	347
	.long	36
	.quad	.Lubsan_type6
	.byte	3
	.byte	3
	.zero	6
	.zero	32
	.align 32
	.type	.Lubsan_data784, @object
	.size	.Lubsan_data784, 16
.Lubsan_data784:
	.quad	.LC0
	.long	347
	.long	36
	.zero	48
	.align 32
	.type	.Lubsan_data785, @object
	.size	.Lubsan_data785, 16
.Lubsan_data785:
	.quad	.LC0
	.long	347
	.long	49
	.zero	48
	.align 32
	.type	.Lubsan_data786, @object
	.size	.Lubsan_data786, 32
.Lubsan_data786:
	.quad	.LC0
	.long	347
	.long	49
	.quad	.Lubsan_type7
	.byte	2
	.byte	0
	.zero	6
	.zero	32
	.align 32
	.type	.Lubsan_data787, @object
	.size	.Lubsan_data787, 32
.Lubsan_data787:
	.quad	.LC0
	.long	362
	.long	36
	.quad	.Lubsan_type6
	.byte	3
	.byte	3
	.zero	6
	.zero	32
	.align 32
	.type	.Lubsan_data788, @object
	.size	.Lubsan_data788, 16
.Lubsan_data788:
	.quad	.LC0
	.long	362
	.long	36
	.zero	48
	.align 32
	.type	.Lubsan_data789, @object
	.size	.Lubsan_data789, 16
.Lubsan_data789:
	.quad	.LC0
	.long	362
	.long	49
	.zero	48
	.align 32
	.type	.Lubsan_data790, @object
	.size	.Lubsan_data790, 32
.Lubsan_data790:
	.quad	.LC0
	.long	362
	.long	49
	.quad	.Lubsan_type7
	.byte	2
	.byte	0
	.zero	6
	.zero	32
	.align 32
	.type	.Lubsan_data791, @object
	.size	.Lubsan_data791, 32
.Lubsan_data791:
	.quad	.LC0
	.long	377
	.long	36
	.quad	.Lubsan_type6
	.byte	3
	.byte	3
	.zero	6
	.zero	32
	.align 32
	.type	.Lubsan_data792, @object
	.size	.Lubsan_data792, 16
.Lubsan_data792:
	.quad	.LC0
	.long	377
	.long	36
	.zero	48
	.align 32
	.type	.Lubsan_data793, @object
	.size	.Lubsan_data793, 16
.Lubsan_data793:
	.quad	.LC0
	.long	377
	.long	49
	.zero	48
	.align 32
	.type	.Lubsan_data794, @object
	.size	.Lubsan_data794, 32
.Lubsan_data794:
	.quad	.LC0
	.long	377
	.long	49
	.quad	.Lubsan_type7
	.byte	2
	.byte	0
	.zero	6
	.zero	32
	.align 32
	.type	.Lubsan_data795, @object
	.size	.Lubsan_data795, 32
.Lubsan_data795:
	.quad	.LC0
	.long	392
	.long	36
	.quad	.Lubsan_type6
	.byte	3
	.byte	3
	.zero	6
	.zero	32
	.align 32
	.type	.Lubsan_data796, @object
	.size	.Lubsan_data796, 16
.Lubsan_data796:
	.quad	.LC0
	.long	392
	.long	36
	.zero	48
	.align 32
	.type	.Lubsan_data797, @object
	.size	.Lubsan_data797, 16
.Lubsan_data797:
	.quad	.LC0
	.long	392
	.long	49
	.zero	48
	.align 32
	.type	.Lubsan_data798, @object
	.size	.Lubsan_data798, 32
.Lubsan_data798:
	.quad	.LC0
	.long	392
	.long	49
	.quad	.Lubsan_type7
	.byte	2
	.byte	0
	.zero	6
	.zero	32
	.align 32
	.type	.Lubsan_data799, @object
	.size	.Lubsan_data799, 32
.Lubsan_data799:
	.quad	.LC0
	.long	407
	.long	36
	.quad	.Lubsan_type6
	.byte	3
	.byte	3
	.zero	6
	.zero	32
	.align 32
	.type	.Lubsan_data800, @object
	.size	.Lubsan_data800, 16
.Lubsan_data800:
	.quad	.LC0
	.long	407
	.long	36
	.zero	48
	.align 32
	.type	.Lubsan_data801, @object
	.size	.Lubsan_data801, 16
.Lubsan_data801:
	.quad	.LC0
	.long	407
	.long	49
	.zero	48
	.align 32
	.type	.Lubsan_data802, @object
	.size	.Lubsan_data802, 32
.Lubsan_data802:
	.quad	.LC0
	.long	407
	.long	49
	.quad	.Lubsan_type7
	.byte	2
	.byte	0
	.zero	6
	.zero	32
	.align 32
	.type	.Lubsan_data803, @object
	.size	.Lubsan_data803, 32
.Lubsan_data803:
	.quad	.LC0
	.long	416
	.long	23
	.quad	.Lubsan_type6
	.byte	3
	.byte	3
	.zero	6
	.zero	32
	.align 32
	.type	.Lubsan_data804, @object
	.size	.Lubsan_data804, 16
.Lubsan_data804:
	.quad	.LC0
	.long	416
	.long	23
	.zero	48
	.align 32
	.type	.Lubsan_data805, @object
	.size	.Lubsan_data805, 32
.Lubsan_data805:
	.quad	.LC0
	.long	418
	.long	32
	.quad	.Lubsan_type6
	.byte	3
	.byte	3
	.zero	6
	.zero	32
	.align 32
	.type	.Lubsan_data806, @object
	.size	.Lubsan_data806, 16
.Lubsan_data806:
	.quad	.LC0
	.long	418
	.long	32
	.zero	48
	.align 32
	.type	.Lubsan_data807, @object
	.size	.Lubsan_data807, 16
.Lubsan_data807:
	.quad	.LC0
	.long	418
	.long	45
	.zero	48
	.align 32
	.type	.Lubsan_data808, @object
	.size	.Lubsan_data808, 32
.Lubsan_data808:
	.quad	.LC0
	.long	418
	.long	45
	.quad	.Lubsan_type7
	.byte	2
	.byte	0
	.zero	6
	.zero	32
	.align 32
	.type	.Lubsan_data809, @object
	.size	.Lubsan_data809, 32
.Lubsan_data809:
	.quad	.LC0
	.long	425
	.long	22
	.quad	.Lubsan_type6
	.byte	3
	.byte	3
	.zero	6
	.zero	32
	.align 32
	.type	.Lubsan_data810, @object
	.size	.Lubsan_data810, 16
.Lubsan_data810:
	.quad	.LC0
	.long	425
	.long	22
	.zero	48
	.align 32
	.type	.Lubsan_data811, @object
	.size	.Lubsan_data811, 32
.Lubsan_data811:
	.quad	.LC0
	.long	444
	.long	46
	.quad	.Lubsan_type11
	.quad	.Lubsan_type4
	.zero	32
	.align 32
	.type	.Lubsan_data812, @object
	.size	.Lubsan_data812, 32
.Lubsan_data812:
	.quad	.LC0
	.long	444
	.long	23
	.quad	.Lubsan_type6
	.byte	3
	.byte	3
	.zero	6
	.zero	32
	.align 32
	.type	.Lubsan_data813, @object
	.size	.Lubsan_data813, 16
.Lubsan_data813:
	.quad	.LC0
	.long	444
	.long	23
	.zero	48
	.align 32
	.type	.Lubsan_data814, @object
	.size	.Lubsan_data814, 32
.Lubsan_data814:
	.quad	.LC0
	.long	442
	.long	37
	.quad	.Lubsan_type11
	.quad	.Lubsan_type4
	.zero	32
	.align 32
	.type	.Lubsan_data815, @object
	.size	.Lubsan_data815, 32
.Lubsan_data815:
	.quad	.LC0
	.long	442
	.long	37
	.quad	.Lubsan_type6
	.byte	3
	.byte	3
	.zero	6
	.zero	32
	.align 32
	.type	.Lubsan_data816, @object
	.size	.Lubsan_data816, 16
.Lubsan_data816:
	.quad	.LC0
	.long	442
	.long	37
	.zero	48
	.align 32
	.type	.Lubsan_data817, @object
	.size	.Lubsan_data817, 32
.Lubsan_data817:
	.quad	.LC0
	.long	187
	.long	22
	.quad	.Lubsan_type6
	.byte	3
	.byte	3
	.zero	6
	.zero	32
	.align 32
	.type	.Lubsan_data818, @object
	.size	.Lubsan_data818, 16
.Lubsan_data818:
	.quad	.LC0
	.long	187
	.long	22
	.zero	48
	.globl	__asan_stack_malloc_4
	.section	.rodata
	.align 8
.LC41:
	.ascii	"25 32 8 7 num:231 64 8 8 num1:255 96 8 8 num2:255 128 8 8 nu"
	.ascii	"m1:265 160 8 8 num2:265 192 8 8 num1:275 224 8 8 num2:275 25"
	.string	"6 8 8 num1:285 288 8 8 num2:285 320 8 10 in_num:297 352 8 7 num:306 384 8 4 num1 416 8 4 num2 448 8 4 num1 480 8 4 num2 512 8 4 num1 544 8 4 num2 576 8 4 num1 608 8 4 num2 640 8 4 num1 672 8 4 num2 704 8 4 num1 736 8 4 num2 768 8 11 func_addres 800 8 3 num"
	.align 32
.LC42:
	.string	"execute_commands"
	.zero	47
	.section	.data.rel.local
	.align 32
	.type	.Lubsan_data819, @object
	.size	.Lubsan_data819, 24
.Lubsan_data819:
	.quad	.LC0
	.long	189
	.long	33
	.quad	.Lubsan_type5
	.zero	40
	.align 32
	.type	.Lubsan_data820, @object
	.size	.Lubsan_data820, 24
.Lubsan_data820:
	.quad	.LC0
	.long	225
	.long	15
	.quad	.Lubsan_type5
	.zero	40
	.align 32
	.type	.Lubsan_data821, @object
	.size	.Lubsan_data821, 24
.Lubsan_data821:
	.quad	.LC0
	.long	250
	.long	15
	.quad	.Lubsan_type5
	.zero	40
	.section	.rodata
	.align 32
.LC46:
	.string	"%lf"
	.zero	60
	.align 32
.LC47:
	.string	"%d"
	.zero	61
	.align 32
.LC48:
	.string	"%d \n"
	.zero	59
	.section	.data.rel.local
	.align 32
	.type	.Lubsan_data822, @object
	.size	.Lubsan_data822, 24
.Lubsan_data822:
	.quad	.LC0
	.long	321
	.long	15
	.quad	.Lubsan_type5
	.zero	40
	.align 32
	.type	.Lubsan_data823, @object
	.size	.Lubsan_data823, 24
.Lubsan_data823:
	.quad	.LC0
	.long	333
	.long	19
	.quad	.Lubsan_type5
	.zero	40
	.align 32
	.type	.Lubsan_data824, @object
	.size	.Lubsan_data824, 24
.Lubsan_data824:
	.quad	.LC0
	.long	336
	.long	19
	.quad	.Lubsan_type5
	.zero	40
	.align 32
	.type	.Lubsan_data825, @object
	.size	.Lubsan_data825, 24
.Lubsan_data825:
	.quad	.LC0
	.long	348
	.long	19
	.quad	.Lubsan_type5
	.zero	40
	.align 32
	.type	.Lubsan_data826, @object
	.size	.Lubsan_data826, 24
.Lubsan_data826:
	.quad	.LC0
	.long	351
	.long	20
	.quad	.Lubsan_type5
	.zero	40
	.align 32
	.type	.Lubsan_data827, @object
	.size	.Lubsan_data827, 24
.Lubsan_data827:
	.quad	.LC0
	.long	363
	.long	19
	.quad	.Lubsan_type5
	.zero	40
	.align 32
	.type	.Lubsan_data828, @object
	.size	.Lubsan_data828, 24
.Lubsan_data828:
	.quad	.LC0
	.long	366
	.long	20
	.quad	.Lubsan_type5
	.zero	40
	.align 32
	.type	.Lubsan_data829, @object
	.size	.Lubsan_data829, 24
.Lubsan_data829:
	.quad	.LC0
	.long	378
	.long	19
	.quad	.Lubsan_type5
	.zero	40
	.align 32
	.type	.Lubsan_data830, @object
	.size	.Lubsan_data830, 24
.Lubsan_data830:
	.quad	.LC0
	.long	381
	.long	20
	.quad	.Lubsan_type5
	.zero	40
	.align 32
	.type	.Lubsan_data831, @object
	.size	.Lubsan_data831, 24
.Lubsan_data831:
	.quad	.LC0
	.long	393
	.long	19
	.quad	.Lubsan_type5
	.zero	40
	.align 32
	.type	.Lubsan_data832, @object
	.size	.Lubsan_data832, 24
.Lubsan_data832:
	.quad	.LC0
	.long	396
	.long	20
	.quad	.Lubsan_type5
	.zero	40
	.align 32
	.type	.Lubsan_data833, @object
	.size	.Lubsan_data833, 24
.Lubsan_data833:
	.quad	.LC0
	.long	408
	.long	19
	.quad	.Lubsan_type5
	.zero	40
	.align 32
	.type	.Lubsan_data834, @object
	.size	.Lubsan_data834, 24
.Lubsan_data834:
	.quad	.LC0
	.long	411
	.long	20
	.quad	.Lubsan_type5
	.zero	40
	.align 32
	.type	.Lubsan_data835, @object
	.size	.Lubsan_data835, 24
.Lubsan_data835:
	.quad	.LC0
	.long	419
	.long	15
	.quad	.Lubsan_type5
	.zero	40
	.align 32
	.type	.Lubsan_data836, @object
	.size	.Lubsan_data836, 24
.Lubsan_data836:
	.quad	.LC0
	.long	428
	.long	15
	.quad	.Lubsan_type5
	.zero	40
	.align 32
	.type	.Lubsan_data837, @object
	.size	.Lubsan_data837, 24
.Lubsan_data837:
	.quad	.LC0
	.long	445
	.long	24
	.quad	.Lubsan_type4
	.zero	40
	.text
	.globl	_Z16execute_commandsP10Cpu_structP5StackP8_IO_FILE
	.type	_Z16execute_commandsP10Cpu_structP5StackP8_IO_FILE, @function
_Z16execute_commandsP10Cpu_structP5StackP8_IO_FILE:
.LASANPC1121:
.LFB1121:
	.loc 2 179 1
	.cfi_startproc
	endbr64
	pushq	%rbp
	.cfi_def_cfa_offset 16
	.cfi_offset 6, -16
	movq	%rsp, %rbp
	.cfi_def_cfa_register 6
	pushq	%r15
	pushq	%r14
	pushq	%r13
	pushq	%r12
	pushq	%rbx
	subq	$920, %rsp
	.cfi_offset 15, -24
	.cfi_offset 14, -32
	.cfi_offset 13, -40
	.cfi_offset 12, -48
	.cfi_offset 3, -56
	movq	%rdi, -920(%rbp)
	movq	%rsi, -928(%rbp)
	movq	%rdx, -936(%rbp)
	leaq	-880(%rbp), %r13
	movq	%r13, -952(%rbp)
	cmpl	$0, __asan_option_detect_stack_use_after_return(%rip)
	je	.L295
	movl	$832, %edi
	call	__asan_stack_malloc_4@PLT
	testq	%rax, %rax
	je	.L295
	movq	%rax, %r13
.L295:
	leaq	832(%r13), %rax
	movq	%rax, %rbx
	movq	$1102416563, 0(%r13)
	leaq	.LC41(%rip), %rax
	movq	%rax, 8(%r13)
	leaq	.LASANPC1121(%rip), %rax
	movq	%rax, 16(%r13)
	movq	%r13, %r12
	shrq	$3, %r12
	movl	$-235802127, 2147450880(%r12)
	movl	$-218959360, 2147450884(%r12)
	movl	$-218959360, 2147450888(%r12)
	movl	$-218959360, 2147450892(%r12)
	movl	$-218959360, 2147450896(%r12)
	movl	$-218959360, 2147450900(%r12)
	movl	$-218959360, 2147450904(%r12)
	movl	$-218959360, 2147450908(%r12)
	movl	$-218959360, 2147450912(%r12)
	movl	$-218959360, 2147450916(%r12)
	movl	$-218959360, 2147450920(%r12)
	movl	$-218959360, 2147450924(%r12)
	movl	$-218959360, 2147450928(%r12)
	movl	$-218959360, 2147450932(%r12)
	movl	$-218959360, 2147450936(%r12)
	movl	$-218959360, 2147450940(%r12)
	movl	$-218959360, 2147450944(%r12)
	movl	$-218959360, 2147450948(%r12)
	movl	$-218959360, 2147450952(%r12)
	movl	$-218959360, 2147450956(%r12)
	movl	$-218959360, 2147450960(%r12)
	movl	$-218959360, 2147450964(%r12)
	movl	$-218959360, 2147450968(%r12)
	movl	$-218959360, 2147450972(%r12)
	movl	$-218959360, 2147450976(%r12)
	movl	$-202116352, 2147450980(%r12)
	.loc 2 180 13
	movq	$0, -896(%rbp)
	.loc 2 181 9
	movl	$0, -912(%rbp)
	.loc 2 182 9
	movl	$0, -904(%rbp)
	.loc 2 184 13
	movq	-928(%rbp), %rdx
	movq	-896(%rbp), %rsi
	movq	-920(%rbp), %rax
	movl	$184, %r9d
	leaq	.LC42(%rip), %r8
	leaq	.LC0(%rip), %rcx
	movq	%rax, %rdi
	call	_Z8dump_cpuP10Cpu_structlP5StackPKcS4_i
	.loc 2 187 5
	jmp	.L299
.L694:
.LBB8:
	.loc 2 189 20
	movq	-920(%rbp), %rax
	cmpq	$0, -920(%rbp)
	je	.L300
	movq	%rax, %rdx
	andl	$7, %edx
	testq	%rdx, %rdx
	je	.L301
.L300:
	movq	%rax, %rsi
	leaq	.Lubsan_data719(%rip), %rax
	movq	%rax, %rdi
	call	__ubsan_handle_type_mismatch_v1@PLT
.L301:
	movq	-920(%rbp), %rax
	leaq	136(%rax), %rdx
	cmpq	$-136, %rax
	jb	.L302
	movq	-920(%rbp), %rax
	movq	%rax, %rsi
	leaq	.Lubsan_data720(%rip), %rax
	movq	%rax, %rdi
	call	__ubsan_handle_pointer_overflow@PLT
.L302:
	movq	-920(%rbp), %rax
	addq	$136, %rax
	movq	%rax, %rdx
	shrq	$3, %rdx
	addq	$2147450880, %rdx
	movzbl	(%rdx), %edx
	testb	%dl, %dl
	je	.L303
	movq	%rax, %rdi
	call	__asan_report_load8@PLT
.L303:
	movq	-920(%rbp), %rax
	movq	136(%rax), %r15
	.loc 2 189 33
	movq	-896(%rbp), %r14
	movq	%r14, %rax
	addq	$1, %rax
	movq	%rax, -944(%rbp)
	jno	.L304
	movl	$1, %edx
	movq	%r14, %rsi
	leaq	.Lubsan_data819(%rip), %rax
	movq	%rax, %rdi
	call	__ubsan_handle_add_overflow@PLT
.L304:
	movq	-944(%rbp), %rax
	movq	%rax, -896(%rbp)
	movq	%r14, %rax
	.loc 2 189 35
	leaq	0(,%rax,4), %r14
	movq	%r15, %rdx
	leaq	(%rdx,%r14), %rax
	movq	%r14, %rcx
	notq	%rcx
	shrq	$63, %rcx
	testb	%cl, %cl
	je	.L306
	cmpq	%rdx, %rax
	jnb	.L307
.L308:
	movq	%rax, %rdx
	movq	%r15, %rsi
	leaq	.Lubsan_data721(%rip), %rax
	movq	%rax, %rdi
	call	__ubsan_handle_pointer_overflow@PLT
	jmp	.L307
.L306:
	cmpq	%rdx, %rax
	ja	.L308
.L307:
	addq	%r15, %r14
	.loc 2 189 13
	movq	%r14, %rax
	testq	%r14, %r14
	je	.L309
	movq	%rax, %rdx
	andl	$3, %edx
	testq	%rdx, %rdx
	je	.L310
.L309:
	movq	%rax, %rsi
	leaq	.Lubsan_data722(%rip), %rax
	movq	%rax, %rdi
	call	__ubsan_handle_type_mismatch_v1@PLT
.L310:
	movq	%r14, %rax
	movq	%rax, %rdx
	shrq	$3, %rdx
	addq	$2147450880, %rdx
	movzbl	(%rdx), %edx
	testb	%dl, %dl
	setne	%sil
	movq	%rax, %rcx
	andl	$7, %ecx
	addl	$3, %ecx
	cmpb	%dl, %cl
	setge	%dl
	andl	%esi, %edx
	testb	%dl, %dl
	je	.L311
	movq	%rax, %rdi
	call	__asan_report_load4@PLT
.L311:
	movl	(%r14), %eax
	movl	%eax, -912(%rbp)
	.loc 2 190 18
	movl	-912(%rbp), %eax
	movl	%eax, -904(%rbp)
	.loc 2 191 27
	cmpl	$-1, -912(%rbp)
	je	.L313
	.loc 2 191 35 discriminator 1
	andl	$63, -912(%rbp)
	.loc 2 191 27 discriminator 1
	cmpl	$0, -912(%rbp)
.L313:
.LBB9:
	.loc 2 198 9
	cmpl	$0, -912(%rbp)
	je	.L705
.LBB10:
.LBB11:
	.loc 2 203 14
	cmpl	$1, -912(%rbp)
	jne	.L316
.LBB12:
	.loc 2 205 18
	pxor	%xmm0, %xmm0
	movsd	%xmm0, -888(%rbp)
	.loc 2 209 25
	movl	-904(%rbp), %eax
	andl	$64, %eax
	.loc 2 209 13
	testl	%eax, %eax
	je	.L317
	.loc 2 210 29
	movq	-920(%rbp), %rax
	cmpq	$0, -920(%rbp)
	je	.L318
	movq	%rax, %rdx
	andl	$7, %edx
	testq	%rdx, %rdx
	je	.L319
.L318:
	movq	%rax, %rsi
	leaq	.Lubsan_data723(%rip), %rax
	movq	%rax, %rdi
	call	__ubsan_handle_type_mismatch_v1@PLT
.L319:
	movq	-920(%rbp), %rax
	leaq	136(%rax), %rdx
	cmpq	$-136, %rax
	jb	.L320
	movq	-920(%rbp), %rax
	movq	%rax, %rsi
	leaq	.Lubsan_data724(%rip), %rax
	movq	%rax, %rdi
	call	__ubsan_handle_pointer_overflow@PLT
.L320:
	movq	-920(%rbp), %rax
	addq	$136, %rax
	movq	%rax, %rdx
	shrq	$3, %rdx
	addq	$2147450880, %rdx
	movzbl	(%rdx), %edx
	testb	%dl, %dl
	je	.L321
	movq	%rax, %rdi
	call	__asan_report_load8@PLT
.L321:
	movq	-920(%rbp), %rax
	movq	136(%rax), %r14
	.loc 2 210 40
	movq	-896(%rbp), %rax
	.loc 2 210 42
	leaq	0(,%rax,4), %r15
	movq	%r14, %rdx
	leaq	(%rdx,%r15), %rax
	movq	%r15, %rcx
	notq	%rcx
	shrq	$63, %rcx
	testb	%cl, %cl
	je	.L322
	cmpq	%rdx, %rax
	jnb	.L323
.L324:
	movq	%rax, %rdx
	movq	%r14, %rsi
	leaq	.Lubsan_data725(%rip), %rax
	movq	%rax, %rdi
	call	__ubsan_handle_pointer_overflow@PLT
	jmp	.L323
.L322:
	cmpq	%rdx, %rax
	ja	.L324
.L323:
	addq	%r15, %r14
	movq	%r14, %rax
	testq	%r14, %r14
	je	.L325
	movq	%rax, %rdx
	andl	$3, %edx
	testq	%rdx, %rdx
	je	.L326
.L325:
	movq	%rax, %rsi
	leaq	.Lubsan_data726(%rip), %rax
	movq	%rax, %rdi
	call	__ubsan_handle_type_mismatch_v1@PLT
.L326:
	movq	%r14, %rax
	movq	%rax, %rdx
	shrq	$3, %rdx
	addq	$2147450880, %rdx
	movzbl	(%rdx), %edx
	testb	%dl, %dl
	setne	%sil
	movq	%rax, %rcx
	andl	$7, %ecx
	addl	$3, %ecx
	cmpb	%dl, %cl
	setge	%dl
	andl	%esi, %edx
	testb	%dl, %dl
	je	.L327
	movq	%rax, %rdi
	call	__asan_report_load4@PLT
.L327:
	movl	(%r14), %eax
	.loc 2 210 21
	pxor	%xmm0, %xmm0
	cvtsi2sdl	%eax, %xmm0
	movsd	-888(%rbp), %xmm1
	addsd	%xmm1, %xmm0
	movsd	%xmm0, -888(%rbp)
.L317:
	.loc 2 212 25
	movl	-904(%rbp), %eax
	andl	$128, %eax
	.loc 2 212 13
	testl	%eax, %eax
	je	.L328
	.loc 2 213 44
	movq	-920(%rbp), %rax
	cmpq	$0, -920(%rbp)
	je	.L329
	movq	%rax, %rdx
	andl	$7, %edx
	testq	%rdx, %rdx
	je	.L330
.L329:
	movq	%rax, %rsi
	leaq	.Lubsan_data727(%rip), %rax
	movq	%rax, %rdi
	call	__ubsan_handle_type_mismatch_v1@PLT
.L330:
	movq	-920(%rbp), %rax
	leaq	136(%rax), %rdx
	cmpq	$-136, %rax
	jb	.L331
	movq	-920(%rbp), %rax
	movq	%rax, %rsi
	leaq	.Lubsan_data728(%rip), %rax
	movq	%rax, %rdi
	call	__ubsan_handle_pointer_overflow@PLT
.L331:
	movq	-920(%rbp), %rax
	addq	$136, %rax
	movq	%rax, %rdx
	shrq	$3, %rdx
	addq	$2147450880, %rdx
	movzbl	(%rdx), %edx
	testb	%dl, %dl
	je	.L332
	movq	%rax, %rdi
	call	__asan_report_load8@PLT
.L332:
	movq	-920(%rbp), %rax
	movq	136(%rax), %r14
	.loc 2 213 55
	movq	-896(%rbp), %rax
	.loc 2 213 57
	leaq	0(,%rax,4), %r15
	movq	%r14, %rdx
	leaq	(%rdx,%r15), %rax
	movq	%r15, %rcx
	notq	%rcx
	shrq	$63, %rcx
	testb	%cl, %cl
	je	.L333
	cmpq	%rdx, %rax
	jnb	.L334
.L335:
	movq	%rax, %rdx
	movq	%r14, %rsi
	leaq	.Lubsan_data729(%rip), %rax
	movq	%rax, %rdi
	call	__ubsan_handle_pointer_overflow@PLT
	jmp	.L334
.L333:
	cmpq	%rdx, %rax
	ja	.L335
.L334:
	addq	%r15, %r14
	movq	%r14, %rax
	testq	%r14, %r14
	je	.L336
	movq	%rax, %rdx
	andl	$3, %edx
	testq	%rdx, %rdx
	je	.L337
.L336:
	movq	%rax, %rsi
	leaq	.Lubsan_data730(%rip), %rax
	movq	%rax, %rdi
	call	__ubsan_handle_type_mismatch_v1@PLT
.L337:
	movq	%r14, %rax
	movq	%rax, %rdx
	shrq	$3, %rdx
	addq	$2147450880, %rdx
	movzbl	(%rdx), %edx
	testb	%dl, %dl
	setne	%sil
	movq	%rax, %rcx
	andl	$7, %ecx
	addl	$3, %ecx
	cmpb	%dl, %cl
	setge	%dl
	andl	%esi, %edx
	testb	%dl, %dl
	je	.L338
	movq	%rax, %rdi
	call	__asan_report_load4@PLT
.L338:
	movl	(%r14), %r14d
	movslq	%r14d, %rax
	.loc 2 213 58
	cmpq	$4, %rax
	jbe	.L339
	movslq	%r14d, %rax
	movq	%rax, %rsi
	leaq	.Lubsan_data731(%rip), %rax
	movq	%rax, %rdi
	call	__ubsan_handle_out_of_bounds@PLT
.L339:
	movq	-920(%rbp), %rax
	cmpq	$0, -920(%rbp)
	je	.L340
	movq	%rax, %rdx
	andl	$7, %edx
	testq	%rdx, %rdx
	je	.L341
.L340:
	movq	%rax, %rsi
	leaq	.Lubsan_data732(%rip), %rax
	movq	%rax, %rdi
	call	__ubsan_handle_type_mismatch_v1@PLT
.L341:
	movslq	%r14d, %rax
	addq	$36, %rax
	leaq	0(,%rax,4), %rcx
	movq	-920(%rbp), %rdx
	leaq	(%rdx,%rcx), %rax
	notq	%rcx
	shrq	$63, %rcx
	testb	%cl, %cl
	je	.L342
	cmpq	%rdx, %rax
	jnb	.L343
.L344:
	movq	-920(%rbp), %rcx
	movq	%rax, %rdx
	movq	%rcx, %rsi
	leaq	.Lubsan_data733(%rip), %rax
	movq	%rax, %rdi
	call	__ubsan_handle_pointer_overflow@PLT
	jmp	.L343
.L342:
	cmpq	%rdx, %rax
	ja	.L344
.L343:
	movslq	%r14d, %rax
	addq	$36, %rax
	leaq	0(,%rax,4), %rdx
	movq	-920(%rbp), %rax
	addq	%rdx, %rax
	movq	%rax, %rdx
	shrq	$3, %rdx
	addq	$2147450880, %rdx
	movzbl	(%rdx), %edx
	testb	%dl, %dl
	setne	%sil
	movq	%rax, %rcx
	andl	$7, %ecx
	addl	$3, %ecx
	cmpb	%dl, %cl
	setge	%dl
	andl	%esi, %edx
	testb	%dl, %dl
	je	.L345
	movq	%rax, %rdi
	call	__asan_report_load4@PLT
.L345:
	movq	-920(%rbp), %rax
	movslq	%r14d, %rdx
	addq	$36, %rdx
	movl	(%rax,%rdx,4), %eax
	.loc 2 213 21
	pxor	%xmm0, %xmm0
	cvtsi2sdl	%eax, %xmm0
	movsd	-888(%rbp), %xmm1
	addsd	%xmm1, %xmm0
	movsd	%xmm0, -888(%rbp)
.L328:
	.loc 2 215 25
	movl	-904(%rbp), %eax
	andl	$256, %eax
	.loc 2 215 13
	testl	%eax, %eax
	je	.L346
	.loc 2 217 38
	movq	-920(%rbp), %rax
	cmpq	$0, -920(%rbp)
	je	.L347
	movq	%rax, %rdx
	andl	$7, %edx
	testq	%rdx, %rdx
	je	.L348
.L347:
	movq	%rax, %rsi
	leaq	.Lubsan_data734(%rip), %rax
	movq	%rax, %rdi
	call	__ubsan_handle_type_mismatch_v1@PLT
.L348:
	movq	-920(%rbp), %rax
	leaq	136(%rax), %rdx
	cmpq	$-136, %rax
	jb	.L349
	movq	-920(%rbp), %rax
	movq	%rax, %rsi
	leaq	.Lubsan_data735(%rip), %rax
	movq	%rax, %rdi
	call	__ubsan_handle_pointer_overflow@PLT
.L349:
	movq	-920(%rbp), %rax
	addq	$136, %rax
	movq	%rax, %rdx
	shrq	$3, %rdx
	addq	$2147450880, %rdx
	movzbl	(%rdx), %edx
	testb	%dl, %dl
	je	.L350
	movq	%rax, %rdi
	call	__asan_report_load8@PLT
.L350:
	movq	-920(%rbp), %rax
	movq	136(%rax), %r14
	.loc 2 217 49
	movq	-896(%rbp), %rax
	.loc 2 217 51
	leaq	0(,%rax,4), %r15
	movq	%r14, %rdx
	leaq	(%rdx,%r15), %rax
	movq	%r15, %rcx
	notq	%rcx
	shrq	$63, %rcx
	testb	%cl, %cl
	je	.L351
	cmpq	%rdx, %rax
	jnb	.L352
.L353:
	movq	%rax, %rdx
	movq	%r14, %rsi
	leaq	.Lubsan_data736(%rip), %rax
	movq	%rax, %rdi
	call	__ubsan_handle_pointer_overflow@PLT
	jmp	.L352
.L351:
	cmpq	%rdx, %rax
	ja	.L353
.L352:
	addq	%r15, %r14
	movq	%r14, %rax
	testq	%r14, %r14
	je	.L354
	movq	%rax, %rdx
	andl	$3, %edx
	testq	%rdx, %rdx
	je	.L355
.L354:
	movq	%rax, %rsi
	leaq	.Lubsan_data737(%rip), %rax
	movq	%rax, %rdi
	call	__ubsan_handle_type_mismatch_v1@PLT
.L355:
	movq	%r14, %rax
	movq	%rax, %rdx
	shrq	$3, %rdx
	addq	$2147450880, %rdx
	movzbl	(%rdx), %edx
	testb	%dl, %dl
	setne	%sil
	movq	%rax, %rcx
	andl	$7, %ecx
	addl	$3, %ecx
	cmpb	%dl, %cl
	setge	%dl
	andl	%esi, %edx
	testb	%dl, %dl
	je	.L356
	movq	%rax, %rdi
	call	__asan_report_load4@PLT
.L356:
	movl	(%r14), %r14d
	movslq	%r14d, %rax
	.loc 2 217 52
	cmpq	$4095, %rax
	jbe	.L357
	movslq	%r14d, %rax
	movq	%rax, %rsi
	leaq	.Lubsan_data738(%rip), %rax
	movq	%rax, %rdi
	call	__ubsan_handle_out_of_bounds@PLT
.L357:
	movq	-920(%rbp), %rax
	cmpq	$0, -920(%rbp)
	je	.L358
	movq	%rax, %rdx
	andl	$7, %edx
	testq	%rdx, %rdx
	je	.L359
.L358:
	movq	%rax, %rsi
	leaq	.Lubsan_data739(%rip), %rax
	movq	%rax, %rdi
	call	__ubsan_handle_type_mismatch_v1@PLT
.L359:
	movslq	%r14d, %rax
	addq	$41, %rax
	leaq	0(,%rax,4), %rcx
	movq	-920(%rbp), %rdx
	leaq	(%rdx,%rcx), %rax
	notq	%rcx
	shrq	$63, %rcx
	testb	%cl, %cl
	je	.L360
	cmpq	%rdx, %rax
	jnb	.L361
.L362:
	movq	-920(%rbp), %rcx
	movq	%rax, %rdx
	movq	%rcx, %rsi
	leaq	.Lubsan_data740(%rip), %rax
	movq	%rax, %rdi
	call	__ubsan_handle_pointer_overflow@PLT
	jmp	.L361
.L360:
	cmpq	%rdx, %rax
	ja	.L362
.L361:
	movslq	%r14d, %rax
	addq	$40, %rax
	leaq	0(,%rax,4), %rdx
	movq	-920(%rbp), %rax
	addq	%rdx, %rax
	addq	$4, %rax
	movq	%rax, %rdx
	shrq	$3, %rdx
	addq	$2147450880, %rdx
	movzbl	(%rdx), %edx
	testb	%dl, %dl
	setne	%sil
	movq	%rax, %rcx
	andl	$7, %ecx
	addl	$3, %ecx
	cmpb	%dl, %cl
	setge	%dl
	andl	%esi, %edx
	testb	%dl, %dl
	je	.L363
	movq	%rax, %rdi
	call	__asan_report_load4@PLT
.L363:
	movq	-920(%rbp), %rax
	movslq	%r14d, %rdx
	addq	$40, %rdx
	movl	4(%rax,%rdx,4), %eax
	.loc 2 217 21
	pxor	%xmm0, %xmm0
	cvtsi2sdl	%eax, %xmm0
	movsd	-888(%rbp), %xmm1
	addsd	%xmm1, %xmm0
	movsd	%xmm0, -888(%rbp)
.L346:
	.loc 2 220 26
	movl	-904(%rbp), %eax
	andl	$256, %eax
	.loc 2 220 13
	testl	%eax, %eax
	je	.L364
	.loc 2 220 50 discriminator 1
	movl	-904(%rbp), %eax
	andl	$128, %eax
	.loc 2 220 37 discriminator 1
	testl	%eax, %eax
	je	.L364
	.loc 2 222 53
	movq	-920(%rbp), %rax
	cmpq	$0, -920(%rbp)
	je	.L365
	movq	%rax, %rdx
	andl	$7, %edx
	testq	%rdx, %rdx
	je	.L366
.L365:
	movq	%rax, %rsi
	leaq	.Lubsan_data741(%rip), %rax
	movq	%rax, %rdi
	call	__ubsan_handle_type_mismatch_v1@PLT
.L366:
	movq	-920(%rbp), %rax
	leaq	136(%rax), %rdx
	cmpq	$-136, %rax
	jb	.L367
	movq	-920(%rbp), %rax
	movq	%rax, %rsi
	leaq	.Lubsan_data742(%rip), %rax
	movq	%rax, %rdi
	call	__ubsan_handle_pointer_overflow@PLT
.L367:
	movq	-920(%rbp), %rax
	addq	$136, %rax
	movq	%rax, %rdx
	shrq	$3, %rdx
	addq	$2147450880, %rdx
	movzbl	(%rdx), %edx
	testb	%dl, %dl
	je	.L368
	movq	%rax, %rdi
	call	__asan_report_load8@PLT
.L368:
	movq	-920(%rbp), %rax
	movq	136(%rax), %r14
	.loc 2 222 64
	movq	-896(%rbp), %rax
	.loc 2 222 66
	leaq	0(,%rax,4), %r15
	movq	%r14, %rdx
	leaq	(%rdx,%r15), %rax
	movq	%r15, %rcx
	notq	%rcx
	shrq	$63, %rcx
	testb	%cl, %cl
	je	.L369
	cmpq	%rdx, %rax
	jnb	.L370
.L371:
	movq	%rax, %rdx
	movq	%r14, %rsi
	leaq	.Lubsan_data743(%rip), %rax
	movq	%rax, %rdi
	call	__ubsan_handle_pointer_overflow@PLT
	jmp	.L370
.L369:
	cmpq	%rdx, %rax
	ja	.L371
.L370:
	addq	%r15, %r14
	movq	%r14, %rax
	testq	%r14, %r14
	je	.L372
	movq	%rax, %rdx
	andl	$3, %edx
	testq	%rdx, %rdx
	je	.L373
.L372:
	movq	%rax, %rsi
	leaq	.Lubsan_data744(%rip), %rax
	movq	%rax, %rdi
	call	__ubsan_handle_type_mismatch_v1@PLT
.L373:
	movq	%r14, %rax
	movq	%rax, %rdx
	shrq	$3, %rdx
	addq	$2147450880, %rdx
	movzbl	(%rdx), %edx
	testb	%dl, %dl
	setne	%sil
	movq	%rax, %rcx
	andl	$7, %ecx
	addl	$3, %ecx
	cmpb	%dl, %cl
	setge	%dl
	andl	%esi, %edx
	testb	%dl, %dl
	je	.L374
	movq	%rax, %rdi
	call	__asan_report_load4@PLT
.L374:
	movl	(%r14), %r14d
	movslq	%r14d, %rax
	.loc 2 222 67
	cmpq	$4, %rax
	jbe	.L375
	movslq	%r14d, %rax
	movq	%rax, %rsi
	leaq	.Lubsan_data745(%rip), %rax
	movq	%rax, %rdi
	call	__ubsan_handle_out_of_bounds@PLT
.L375:
	movq	-920(%rbp), %rax
	cmpq	$0, -920(%rbp)
	je	.L376
	movq	%rax, %rdx
	andl	$7, %edx
	testq	%rdx, %rdx
	je	.L377
.L376:
	movq	%rax, %rsi
	leaq	.Lubsan_data746(%rip), %rax
	movq	%rax, %rdi
	call	__ubsan_handle_type_mismatch_v1@PLT
.L377:
	movslq	%r14d, %rax
	addq	$36, %rax
	leaq	0(,%rax,4), %rcx
	movq	-920(%rbp), %rdx
	leaq	(%rdx,%rcx), %rax
	notq	%rcx
	shrq	$63, %rcx
	testb	%cl, %cl
	je	.L378
	cmpq	%rdx, %rax
	jnb	.L379
.L380:
	movq	-920(%rbp), %rcx
	movq	%rax, %rdx
	movq	%rcx, %rsi
	leaq	.Lubsan_data747(%rip), %rax
	movq	%rax, %rdi
	call	__ubsan_handle_pointer_overflow@PLT
	jmp	.L379
.L378:
	cmpq	%rdx, %rax
	ja	.L380
.L379:
	movslq	%r14d, %rax
	addq	$36, %rax
	leaq	0(,%rax,4), %rdx
	movq	-920(%rbp), %rax
	addq	%rdx, %rax
	movq	%rax, %rdx
	shrq	$3, %rdx
	addq	$2147450880, %rdx
	movzbl	(%rdx), %edx
	testb	%dl, %dl
	setne	%sil
	movq	%rax, %rcx
	andl	$7, %ecx
	addl	$3, %ecx
	cmpb	%dl, %cl
	setge	%dl
	andl	%esi, %edx
	testb	%dl, %dl
	je	.L381
	movq	%rax, %rdi
	call	__asan_report_load4@PLT
.L381:
	movq	-920(%rbp), %rax
	movslq	%r14d, %rdx
	addq	$36, %rdx
	movl	(%rax,%rdx,4), %r14d
	movslq	%r14d, %rax
	.loc 2 222 68
	cmpq	$4095, %rax
	jbe	.L382
	movslq	%r14d, %rax
	movq	%rax, %rsi
	leaq	.Lubsan_data748(%rip), %rax
	movq	%rax, %rdi
	call	__ubsan_handle_out_of_bounds@PLT
.L382:
	movq	-920(%rbp), %rax
	cmpq	$0, -920(%rbp)
	je	.L383
	movq	%rax, %rdx
	andl	$7, %edx
	testq	%rdx, %rdx
	je	.L384
.L383:
	movq	%rax, %rsi
	leaq	.Lubsan_data749(%rip), %rax
	movq	%rax, %rdi
	call	__ubsan_handle_type_mismatch_v1@PLT
.L384:
	movslq	%r14d, %rax
	addq	$41, %rax
	leaq	0(,%rax,4), %rcx
	movq	-920(%rbp), %rdx
	leaq	(%rdx,%rcx), %rax
	notq	%rcx
	shrq	$63, %rcx
	testb	%cl, %cl
	je	.L385
	cmpq	%rdx, %rax
	jnb	.L386
.L387:
	movq	-920(%rbp), %rcx
	movq	%rax, %rdx
	movq	%rcx, %rsi
	leaq	.Lubsan_data750(%rip), %rax
	movq	%rax, %rdi
	call	__ubsan_handle_pointer_overflow@PLT
	jmp	.L386
.L385:
	cmpq	%rdx, %rax
	ja	.L387
.L386:
	movslq	%r14d, %rax
	addq	$40, %rax
	leaq	0(,%rax,4), %rdx
	movq	-920(%rbp), %rax
	addq	%rdx, %rax
	addq	$4, %rax
	movq	%rax, %rdx
	shrq	$3, %rdx
	addq	$2147450880, %rdx
	movzbl	(%rdx), %edx
	testb	%dl, %dl
	setne	%sil
	movq	%rax, %rcx
	andl	$7, %ecx
	addl	$3, %ecx
	cmpb	%dl, %cl
	setge	%dl
	andl	%esi, %edx
	testb	%dl, %dl
	je	.L388
	movq	%rax, %rdi
	call	__asan_report_load4@PLT
.L388:
	movq	-920(%rbp), %rax
	movslq	%r14d, %rdx
	addq	$40, %rdx
	movl	4(%rax,%rdx,4), %eax
	.loc 2 222 21
	pxor	%xmm0, %xmm0
	cvtsi2sdl	%eax, %xmm0
	movsd	-888(%rbp), %xmm1
	addsd	%xmm1, %xmm0
	movsd	%xmm0, -888(%rbp)
.L364:
	.loc 2 225 15
	movq	-896(%rbp), %rax
	addq	$1, %rax
	movq	%rax, %r14
	jno	.L389
	movq	-896(%rbp), %rax
	movl	$1, %edx
	movq	%rax, %rsi
	leaq	.Lubsan_data820(%rip), %rax
	movq	%rax, %rdi
	call	__ubsan_handle_add_overflow@PLT
.L389:
	movq	%r14, -896(%rbp)
	.loc 2 226 23
	movq	-888(%rbp), %rdx
	movq	-928(%rbp), %rax
	movq	%rdx, %xmm0
	movq	%rax, %rdi
	call	_Z10stack_pushP5Stackd@PLT
.LBE12:
	jmp	.L299
.L316:
.LBB13:
.LBB14:
	.loc 2 229 14
	cmpl	$2, -912(%rbp)
	jne	.L391
.LBB15:
	.loc 2 231 18
	leaq	-800(%rbx), %rax
	shrq	$3, %rax
	addq	$2147450880, %rax
	movb	$0, (%rax)
	leaq	-800(%rbx), %rax
	movq	%rax, %rdx
	shrq	$3, %rdx
	addq	$2147450880, %rdx
	movzbl	(%rdx), %edx
	testb	%dl, %dl
	je	.L392
	movq	%rax, %rdi
	call	__asan_report_store8@PLT
.L392:
	pxor	%xmm0, %xmm0
	movsd	%xmm0, -800(%rbx)
	.loc 2 232 22
	leaq	-800(%rbx), %rdx
	movq	-928(%rbp), %rax
	movq	%rdx, %rsi
	movq	%rax, %rdi
	call	_Z9stack_popP5StackPd@PLT
	.loc 2 239 25
	movl	-904(%rbp), %eax
	andl	$128, %eax
	.loc 2 239 13
	testl	%eax, %eax
	je	.L393
	.loc 2 240 61
	leaq	-800(%rbx), %rax
	movq	%rax, %rdx
	shrq	$3, %rdx
	addq	$2147450880, %rdx
	movzbl	(%rdx), %edx
	testb	%dl, %dl
	je	.L394
	movq	%rax, %rdi
	call	__asan_report_load8@PLT
.L394:
	movsd	-800(%rbx), %xmm2
	movsd	%xmm2, -944(%rbp)
	.loc 2 240 53
	ucomisd	.LC44(%rip), %xmm2
	setbe	%dl
	movsd	.LC45(%rip), %xmm0
	ucomisd	%xmm2, %xmm0
	setbe	%al
	orl	%edx, %eax
	testb	%al, %al
	je	.L395
	.loc 2 240 61 discriminator 1
	movq	%xmm2, %rax
	movq	%rax, %rsi
	leaq	.Lubsan_data246(%rip), %rax
	movq	%rax, %rdi
	call	__ubsan_handle_float_cast_overflow@PLT
.L395:
	.loc 2 240 37 discriminator 3
	movq	-920(%rbp), %rax
	cmpq	$0, -920(%rbp)
	je	.L396
	movq	%rax, %rdx
	andl	$7, %edx
	testq	%rdx, %rdx
	je	.L397
.L396:
	.loc 2 240 37 is_stmt 0
	movq	%rax, %rsi
	leaq	.Lubsan_data751(%rip), %rax
	movq	%rax, %rdi
	call	__ubsan_handle_type_mismatch_v1@PLT
.L397:
	.loc 2 240 37 discriminator 3
	movq	-920(%rbp), %rax
	leaq	136(%rax), %rdx
	cmpq	$-136, %rax
	jb	.L398
	.loc 2 240 37
	movq	-920(%rbp), %rax
	movq	%rax, %rsi
	leaq	.Lubsan_data752(%rip), %rax
	movq	%rax, %rdi
	call	__ubsan_handle_pointer_overflow@PLT
.L398:
	.loc 2 240 37 discriminator 3
	movq	-920(%rbp), %rax
	addq	$136, %rax
	movq	%rax, %rdx
	shrq	$3, %rdx
	addq	$2147450880, %rdx
	movzbl	(%rdx), %edx
	testb	%dl, %dl
	je	.L399
	.loc 2 240 37
	movq	%rax, %rdi
	call	__asan_report_load8@PLT
.L399:
	.loc 2 240 37 discriminator 3
	movq	-920(%rbp), %rax
	movq	136(%rax), %r14
	.loc 2 240 48 is_stmt 1 discriminator 3
	movq	-896(%rbp), %rax
	.loc 2 240 50 discriminator 3
	leaq	0(,%rax,4), %r15
	movq	%r14, %rdx
	leaq	(%rdx,%r15), %rax
	movq	%r15, %rcx
	notq	%rcx
	shrq	$63, %rcx
	testb	%cl, %cl
	je	.L400
	.loc 2 240 50 is_stmt 0
	cmpq	%rdx, %rax
	jnb	.L401
.L402:
	movq	%rax, %rdx
	movq	%r14, %rsi
	leaq	.Lubsan_data753(%rip), %rax
	movq	%rax, %rdi
	call	__ubsan_handle_pointer_overflow@PLT
	jmp	.L401
.L400:
	.loc 2 240 50 discriminator 3
	cmpq	%rdx, %rax
	ja	.L402
.L401:
	addq	%r15, %r14
	movq	%r14, %rax
	testq	%r14, %r14
	je	.L403
	movq	%rax, %rdx
	andl	$3, %edx
	testq	%rdx, %rdx
	je	.L404
.L403:
	.loc 2 240 50
	movq	%rax, %rsi
	leaq	.Lubsan_data754(%rip), %rax
	movq	%rax, %rdi
	call	__ubsan_handle_type_mismatch_v1@PLT
.L404:
	.loc 2 240 50 discriminator 3
	movq	%r14, %rax
	movq	%rax, %rdx
	shrq	$3, %rdx
	addq	$2147450880, %rdx
	movzbl	(%rdx), %edx
	testb	%dl, %dl
	setne	%sil
	movq	%rax, %rcx
	andl	$7, %ecx
	addl	$3, %ecx
	cmpb	%dl, %cl
	setge	%dl
	andl	%esi, %edx
	testb	%dl, %dl
	je	.L405
	.loc 2 240 50
	movq	%rax, %rdi
	call	__asan_report_load4@PLT
.L405:
	.loc 2 240 50 discriminator 3
	movl	(%r14), %r14d
	movslq	%r14d, %rax
	.loc 2 240 51 is_stmt 1 discriminator 3
	cmpq	$4, %rax
	jbe	.L406
	movslq	%r14d, %rax
	.loc 2 240 51 is_stmt 0
	movq	%rax, %rsi
	leaq	.Lubsan_data755(%rip), %rax
	movq	%rax, %rdi
	call	__ubsan_handle_out_of_bounds@PLT
.L406:
	.loc 2 240 53 is_stmt 1 discriminator 3
	cvttsd2sil	-944(%rbp), %r15d
	movq	-920(%rbp), %rax
	cmpq	$0, -920(%rbp)
	je	.L407
	movq	%rax, %rdx
	andl	$7, %edx
	testq	%rdx, %rdx
	je	.L408
.L407:
	.loc 2 240 53 is_stmt 0
	movq	%rax, %rsi
	leaq	.Lubsan_data756(%rip), %rax
	movq	%rax, %rdi
	call	__ubsan_handle_type_mismatch_v1@PLT
.L408:
	movslq	%r14d, %rax
	addq	$36, %rax
	leaq	0(,%rax,4), %rcx
	.loc 2 240 53 discriminator 3
	movq	-920(%rbp), %rdx
	leaq	(%rdx,%rcx), %rax
	notq	%rcx
	shrq	$63, %rcx
	testb	%cl, %cl
	je	.L409
	.loc 2 240 53
	cmpq	%rdx, %rax
	jnb	.L410
.L411:
	movq	-920(%rbp), %rcx
	movq	%rax, %rdx
	movq	%rcx, %rsi
	leaq	.Lubsan_data757(%rip), %rax
	movq	%rax, %rdi
	call	__ubsan_handle_pointer_overflow@PLT
	jmp	.L410
.L409:
	.loc 2 240 53 discriminator 3
	cmpq	%rdx, %rax
	ja	.L411
.L410:
	movslq	%r14d, %rax
	addq	$36, %rax
	leaq	0(,%rax,4), %rdx
	movq	-920(%rbp), %rax
	addq	%rdx, %rax
	movq	%rax, %rdx
	shrq	$3, %rdx
	addq	$2147450880, %rdx
	movzbl	(%rdx), %edx
	testb	%dl, %dl
	setne	%sil
	movq	%rax, %rcx
	andl	$7, %ecx
	addl	$3, %ecx
	cmpb	%dl, %cl
	setge	%dl
	andl	%esi, %edx
	testb	%dl, %dl
	je	.L412
	.loc 2 240 53
	movq	%rax, %rdi
	call	__asan_report_store4@PLT
.L412:
	.loc 2 240 53 discriminator 3
	movq	-920(%rbp), %rax
	movslq	%r14d, %rdx
	addq	$36, %rdx
	movl	%r15d, (%rax,%rdx,4)
.L393:
	.loc 2 242 25 is_stmt 1
	movl	-904(%rbp), %eax
	andl	$256, %eax
	.loc 2 242 13
	testl	%eax, %eax
	je	.L413
	.loc 2 243 55
	leaq	-800(%rbx), %rax
	movq	%rax, %rdx
	shrq	$3, %rdx
	addq	$2147450880, %rdx
	movzbl	(%rdx), %edx
	testb	%dl, %dl
	je	.L414
	movq	%rax, %rdi
	call	__asan_report_load8@PLT
.L414:
	movsd	-800(%rbx), %xmm3
	movsd	%xmm3, -944(%rbp)
	.loc 2 243 47
	ucomisd	.LC44(%rip), %xmm3
	setbe	%dl
	movsd	.LC45(%rip), %xmm0
	ucomisd	%xmm3, %xmm0
	setbe	%al
	orl	%edx, %eax
	testb	%al, %al
	je	.L415
	.loc 2 243 55 discriminator 1
	movq	%xmm3, %rax
	movq	%rax, %rsi
	leaq	.Lubsan_data247(%rip), %rax
	movq	%rax, %rdi
	call	__ubsan_handle_float_cast_overflow@PLT
.L415:
	.loc 2 243 31 discriminator 3
	movq	-920(%rbp), %rax
	cmpq	$0, -920(%rbp)
	je	.L416
	movq	%rax, %rdx
	andl	$7, %edx
	testq	%rdx, %rdx
	je	.L417
.L416:
	.loc 2 243 31 is_stmt 0
	movq	%rax, %rsi
	leaq	.Lubsan_data758(%rip), %rax
	movq	%rax, %rdi
	call	__ubsan_handle_type_mismatch_v1@PLT
.L417:
	.loc 2 243 31 discriminator 3
	movq	-920(%rbp), %rax
	leaq	136(%rax), %rdx
	cmpq	$-136, %rax
	jb	.L418
	.loc 2 243 31
	movq	-920(%rbp), %rax
	movq	%rax, %rsi
	leaq	.Lubsan_data759(%rip), %rax
	movq	%rax, %rdi
	call	__ubsan_handle_pointer_overflow@PLT
.L418:
	.loc 2 243 31 discriminator 3
	movq	-920(%rbp), %rax
	addq	$136, %rax
	movq	%rax, %rdx
	shrq	$3, %rdx
	addq	$2147450880, %rdx
	movzbl	(%rdx), %edx
	testb	%dl, %dl
	je	.L419
	.loc 2 243 31
	movq	%rax, %rdi
	call	__asan_report_load8@PLT
.L419:
	.loc 2 243 31 discriminator 3
	movq	-920(%rbp), %rax
	movq	136(%rax), %r14
	.loc 2 243 42 is_stmt 1 discriminator 3
	movq	-896(%rbp), %rax
	.loc 2 243 44 discriminator 3
	leaq	0(,%rax,4), %r15
	movq	%r14, %rdx
	leaq	(%rdx,%r15), %rax
	movq	%r15, %rcx
	notq	%rcx
	shrq	$63, %rcx
	testb	%cl, %cl
	je	.L420
	.loc 2 243 44 is_stmt 0
	cmpq	%rdx, %rax
	jnb	.L421
.L422:
	movq	%rax, %rdx
	movq	%r14, %rsi
	leaq	.Lubsan_data760(%rip), %rax
	movq	%rax, %rdi
	call	__ubsan_handle_pointer_overflow@PLT
	jmp	.L421
.L420:
	.loc 2 243 44 discriminator 3
	cmpq	%rdx, %rax
	ja	.L422
.L421:
	addq	%r15, %r14
	movq	%r14, %rax
	testq	%r14, %r14
	je	.L423
	movq	%rax, %rdx
	andl	$3, %edx
	testq	%rdx, %rdx
	je	.L424
.L423:
	.loc 2 243 44
	movq	%rax, %rsi
	leaq	.Lubsan_data761(%rip), %rax
	movq	%rax, %rdi
	call	__ubsan_handle_type_mismatch_v1@PLT
.L424:
	.loc 2 243 44 discriminator 3
	movq	%r14, %rax
	movq	%rax, %rdx
	shrq	$3, %rdx
	addq	$2147450880, %rdx
	movzbl	(%rdx), %edx
	testb	%dl, %dl
	setne	%sil
	movq	%rax, %rcx
	andl	$7, %ecx
	addl	$3, %ecx
	cmpb	%dl, %cl
	setge	%dl
	andl	%esi, %edx
	testb	%dl, %dl
	je	.L425
	.loc 2 243 44
	movq	%rax, %rdi
	call	__asan_report_load4@PLT
.L425:
	.loc 2 243 44 discriminator 3
	movl	(%r14), %r14d
	movslq	%r14d, %rax
	.loc 2 243 45 is_stmt 1 discriminator 3
	cmpq	$4095, %rax
	jbe	.L426
	movslq	%r14d, %rax
	.loc 2 243 45 is_stmt 0
	movq	%rax, %rsi
	leaq	.Lubsan_data762(%rip), %rax
	movq	%rax, %rdi
	call	__ubsan_handle_out_of_bounds@PLT
.L426:
	.loc 2 243 47 is_stmt 1 discriminator 3
	cvttsd2sil	-944(%rbp), %r15d
	movq	-920(%rbp), %rax
	cmpq	$0, -920(%rbp)
	je	.L427
	movq	%rax, %rdx
	andl	$7, %edx
	testq	%rdx, %rdx
	je	.L428
.L427:
	.loc 2 243 47 is_stmt 0
	movq	%rax, %rsi
	leaq	.Lubsan_data763(%rip), %rax
	movq	%rax, %rdi
	call	__ubsan_handle_type_mismatch_v1@PLT
.L428:
	movslq	%r14d, %rax
	addq	$41, %rax
	leaq	0(,%rax,4), %rcx
	.loc 2 243 47 discriminator 3
	movq	-920(%rbp), %rdx
	leaq	(%rdx,%rcx), %rax
	notq	%rcx
	shrq	$63, %rcx
	testb	%cl, %cl
	je	.L429
	.loc 2 243 47
	cmpq	%rdx, %rax
	jnb	.L430
.L431:
	movq	-920(%rbp), %rcx
	movq	%rax, %rdx
	movq	%rcx, %rsi
	leaq	.Lubsan_data764(%rip), %rax
	movq	%rax, %rdi
	call	__ubsan_handle_pointer_overflow@PLT
	jmp	.L430
.L429:
	.loc 2 243 47 discriminator 3
	cmpq	%rdx, %rax
	ja	.L431
.L430:
	movslq	%r14d, %rax
	addq	$40, %rax
	leaq	0(,%rax,4), %rdx
	movq	-920(%rbp), %rax
	addq	%rdx, %rax
	addq	$4, %rax
	movq	%rax, %rdx
	shrq	$3, %rdx
	addq	$2147450880, %rdx
	movzbl	(%rdx), %edx
	testb	%dl, %dl
	setne	%sil
	movq	%rax, %rcx
	andl	$7, %ecx
	addl	$3, %ecx
	cmpb	%dl, %cl
	setge	%dl
	andl	%esi, %edx
	testb	%dl, %dl
	je	.L432
	.loc 2 243 47
	movq	%rax, %rdi
	call	__asan_report_store4@PLT
.L432:
	.loc 2 243 47 discriminator 3
	movq	-920(%rbp), %rax
	movslq	%r14d, %rdx
	addq	$40, %rdx
	movl	%r15d, 4(%rax,%rdx,4)
.L413:
	.loc 2 245 26 is_stmt 1
	movl	-904(%rbp), %eax
	andl	$256, %eax
	.loc 2 245 13
	testl	%eax, %eax
	je	.L433
	.loc 2 245 50 discriminator 1
	movl	-904(%rbp), %eax
	andl	$128, %eax
	.loc 2 245 37 discriminator 1
	testl	%eax, %eax
	je	.L433
	.loc 2 247 70
	leaq	-800(%rbx), %rax
	movq	%rax, %rdx
	shrq	$3, %rdx
	addq	$2147450880, %rdx
	movzbl	(%rdx), %edx
	testb	%dl, %dl
	je	.L434
	movq	%rax, %rdi
	call	__asan_report_load8@PLT
.L434:
	movsd	-800(%rbx), %xmm4
	movsd	%xmm4, -944(%rbp)
	.loc 2 247 63
	ucomisd	.LC44(%rip), %xmm4
	setbe	%dl
	movsd	.LC45(%rip), %xmm0
	ucomisd	%xmm4, %xmm0
	setbe	%al
	orl	%edx, %eax
	testb	%al, %al
	je	.L435
	.loc 2 247 70 discriminator 1
	movq	%xmm4, %rax
	movq	%rax, %rsi
	leaq	.Lubsan_data248(%rip), %rax
	movq	%rax, %rdi
	call	__ubsan_handle_float_cast_overflow@PLT
.L435:
	.loc 2 247 46 discriminator 3
	movq	-920(%rbp), %rax
	cmpq	$0, -920(%rbp)
	je	.L436
	movq	%rax, %rdx
	andl	$7, %edx
	testq	%rdx, %rdx
	je	.L437
.L436:
	.loc 2 247 46 is_stmt 0
	movq	%rax, %rsi
	leaq	.Lubsan_data765(%rip), %rax
	movq	%rax, %rdi
	call	__ubsan_handle_type_mismatch_v1@PLT
.L437:
	.loc 2 247 46 discriminator 3
	movq	-920(%rbp), %rax
	leaq	136(%rax), %rdx
	cmpq	$-136, %rax
	jb	.L438
	.loc 2 247 46
	movq	-920(%rbp), %rax
	movq	%rax, %rsi
	leaq	.Lubsan_data766(%rip), %rax
	movq	%rax, %rdi
	call	__ubsan_handle_pointer_overflow@PLT
.L438:
	.loc 2 247 46 discriminator 3
	movq	-920(%rbp), %rax
	addq	$136, %rax
	movq	%rax, %rdx
	shrq	$3, %rdx
	addq	$2147450880, %rdx
	movzbl	(%rdx), %edx
	testb	%dl, %dl
	je	.L439
	.loc 2 247 46
	movq	%rax, %rdi
	call	__asan_report_load8@PLT
.L439:
	.loc 2 247 46 discriminator 3
	movq	-920(%rbp), %rax
	movq	136(%rax), %r14
	.loc 2 247 57 is_stmt 1 discriminator 3
	movq	-896(%rbp), %rax
	.loc 2 247 59 discriminator 3
	leaq	0(,%rax,4), %r15
	movq	%r14, %rdx
	leaq	(%rdx,%r15), %rax
	movq	%r15, %rcx
	notq	%rcx
	shrq	$63, %rcx
	testb	%cl, %cl
	je	.L440
	.loc 2 247 59 is_stmt 0
	cmpq	%rdx, %rax
	jnb	.L441
.L442:
	movq	%rax, %rdx
	movq	%r14, %rsi
	leaq	.Lubsan_data767(%rip), %rax
	movq	%rax, %rdi
	call	__ubsan_handle_pointer_overflow@PLT
	jmp	.L441
.L440:
	.loc 2 247 59 discriminator 3
	cmpq	%rdx, %rax
	ja	.L442
.L441:
	addq	%r15, %r14
	movq	%r14, %rax
	testq	%r14, %r14
	je	.L443
	movq	%rax, %rdx
	andl	$3, %edx
	testq	%rdx, %rdx
	je	.L444
.L443:
	.loc 2 247 59
	movq	%rax, %rsi
	leaq	.Lubsan_data768(%rip), %rax
	movq	%rax, %rdi
	call	__ubsan_handle_type_mismatch_v1@PLT
.L444:
	.loc 2 247 59 discriminator 3
	movq	%r14, %rax
	movq	%rax, %rdx
	shrq	$3, %rdx
	addq	$2147450880, %rdx
	movzbl	(%rdx), %edx
	testb	%dl, %dl
	setne	%sil
	movq	%rax, %rcx
	andl	$7, %ecx
	addl	$3, %ecx
	cmpb	%dl, %cl
	setge	%dl
	andl	%esi, %edx
	testb	%dl, %dl
	je	.L445
	.loc 2 247 59
	movq	%rax, %rdi
	call	__asan_report_load4@PLT
.L445:
	.loc 2 247 59 discriminator 3
	movl	(%r14), %r14d
	movslq	%r14d, %rax
	.loc 2 247 60 is_stmt 1 discriminator 3
	cmpq	$4, %rax
	jbe	.L446
	movslq	%r14d, %rax
	.loc 2 247 60 is_stmt 0
	movq	%rax, %rsi
	leaq	.Lubsan_data769(%rip), %rax
	movq	%rax, %rdi
	call	__ubsan_handle_out_of_bounds@PLT
.L446:
	.loc 2 247 60 discriminator 3
	movq	-920(%rbp), %rax
	cmpq	$0, -920(%rbp)
	je	.L447
	movq	%rax, %rdx
	andl	$7, %edx
	testq	%rdx, %rdx
	je	.L448
.L447:
	.loc 2 247 60
	movq	%rax, %rsi
	leaq	.Lubsan_data770(%rip), %rax
	movq	%rax, %rdi
	call	__ubsan_handle_type_mismatch_v1@PLT
.L448:
	movslq	%r14d, %rax
	addq	$36, %rax
	leaq	0(,%rax,4), %rcx
	.loc 2 247 60 discriminator 3
	movq	-920(%rbp), %rdx
	leaq	(%rdx,%rcx), %rax
	notq	%rcx
	shrq	$63, %rcx
	testb	%cl, %cl
	je	.L449
	.loc 2 247 60
	cmpq	%rdx, %rax
	jnb	.L450
.L451:
	movq	-920(%rbp), %rcx
	movq	%rax, %rdx
	movq	%rcx, %rsi
	leaq	.Lubsan_data771(%rip), %rax
	movq	%rax, %rdi
	call	__ubsan_handle_pointer_overflow@PLT
	jmp	.L450
.L449:
	.loc 2 247 60 discriminator 3
	cmpq	%rdx, %rax
	ja	.L451
.L450:
	movslq	%r14d, %rax
	addq	$36, %rax
	leaq	0(,%rax,4), %rdx
	movq	-920(%rbp), %rax
	addq	%rdx, %rax
	movq	%rax, %rdx
	shrq	$3, %rdx
	addq	$2147450880, %rdx
	movzbl	(%rdx), %edx
	testb	%dl, %dl
	setne	%sil
	movq	%rax, %rcx
	andl	$7, %ecx
	addl	$3, %ecx
	cmpb	%dl, %cl
	setge	%dl
	andl	%esi, %edx
	testb	%dl, %dl
	je	.L452
	.loc 2 247 60
	movq	%rax, %rdi
	call	__asan_report_load4@PLT
.L452:
	.loc 2 247 60 discriminator 3
	movq	-920(%rbp), %rax
	movslq	%r14d, %rdx
	addq	$36, %rdx
	movl	(%rax,%rdx,4), %r14d
	movslq	%r14d, %rax
	.loc 2 247 61 is_stmt 1 discriminator 3
	cmpq	$4095, %rax
	jbe	.L453
	movslq	%r14d, %rax
	.loc 2 247 61 is_stmt 0
	movq	%rax, %rsi
	leaq	.Lubsan_data772(%rip), %rax
	movq	%rax, %rdi
	call	__ubsan_handle_out_of_bounds@PLT
.L453:
	.loc 2 247 63 is_stmt 1 discriminator 3
	cvttsd2sil	-944(%rbp), %r15d
	movq	-920(%rbp), %rax
	cmpq	$0, -920(%rbp)
	je	.L454
	movq	%rax, %rdx
	andl	$7, %edx
	testq	%rdx, %rdx
	je	.L455
.L454:
	.loc 2 247 63 is_stmt 0
	movq	%rax, %rsi
	leaq	.Lubsan_data773(%rip), %rax
	movq	%rax, %rdi
	call	__ubsan_handle_type_mismatch_v1@PLT
.L455:
	movslq	%r14d, %rax
	addq	$41, %rax
	leaq	0(,%rax,4), %rcx
	.loc 2 247 63 discriminator 3
	movq	-920(%rbp), %rdx
	leaq	(%rdx,%rcx), %rax
	notq	%rcx
	shrq	$63, %rcx
	testb	%cl, %cl
	je	.L456
	.loc 2 247 63
	cmpq	%rdx, %rax
	jnb	.L457
.L458:
	movq	-920(%rbp), %rcx
	movq	%rax, %rdx
	movq	%rcx, %rsi
	leaq	.Lubsan_data774(%rip), %rax
	movq	%rax, %rdi
	call	__ubsan_handle_pointer_overflow@PLT
	jmp	.L457
.L456:
	.loc 2 247 63 discriminator 3
	cmpq	%rdx, %rax
	ja	.L458
.L457:
	movslq	%r14d, %rax
	addq	$40, %rax
	leaq	0(,%rax,4), %rdx
	movq	-920(%rbp), %rax
	addq	%rdx, %rax
	addq	$4, %rax
	movq	%rax, %rdx
	shrq	$3, %rdx
	addq	$2147450880, %rdx
	movzbl	(%rdx), %edx
	testb	%dl, %dl
	setne	%sil
	movq	%rax, %rcx
	andl	$7, %ecx
	addl	$3, %ecx
	cmpb	%dl, %cl
	setge	%dl
	andl	%esi, %edx
	testb	%dl, %dl
	je	.L459
	.loc 2 247 63
	movq	%rax, %rdi
	call	__asan_report_store4@PLT
.L459:
	.loc 2 247 63 discriminator 3
	movq	-920(%rbp), %rax
	movslq	%r14d, %rdx
	addq	$40, %rdx
	movl	%r15d, 4(%rax,%rdx,4)
.L433:
	.loc 2 250 15 is_stmt 1
	movq	-896(%rbp), %rax
	addq	$1, %rax
	movq	%rax, %r14
	jno	.L460
	movq	-896(%rbp), %rax
	movl	$1, %edx
	movq	%rax, %rsi
	leaq	.Lubsan_data821(%rip), %rax
	movq	%rax, %rdi
	call	__ubsan_handle_add_overflow@PLT
.L460:
	movq	%r14, -896(%rbp)
	leaq	-800(%rbx), %rax
	shrq	$3, %rax
	addq	$2147450880, %rax
	movb	$-8, (%rax)
.LBE15:
	jmp	.L299
.L391:
.LBB16:
.LBB17:
	.loc 2 253 14
	cmpl	$3, -912(%rbp)
	jne	.L462
.LBB18:
	.loc 2 255 20
	leaq	-768(%rbx), %rax
	shrq	$3, %rax
	addq	$2147450880, %rax
	movb	$0, (%rax)
	leaq	-768(%rbx), %rax
	movq	%rax, %rdx
	shrq	$3, %rdx
	addq	$2147450880, %rdx
	movzbl	(%rdx), %edx
	testb	%dl, %dl
	je	.L463
	movq	%rax, %rdi
	call	__asan_report_store8@PLT
.L463:
	pxor	%xmm0, %xmm0
	movsd	%xmm0, -768(%rbx)
	.loc 2 255 30
	leaq	-736(%rbx), %rax
	shrq	$3, %rax
	addq	$2147450880, %rax
	movb	$0, (%rax)
	leaq	-736(%rbx), %rax
	movq	%rax, %rdx
	shrq	$3, %rdx
	addq	$2147450880, %rdx
	movzbl	(%rdx), %edx
	testb	%dl, %dl
	je	.L464
	movq	%rax, %rdi
	call	__asan_report_store8@PLT
.L464:
	pxor	%xmm0, %xmm0
	movsd	%xmm0, -736(%rbx)
	.loc 2 257 22
	leaq	-768(%rbx), %rdx
	movq	-928(%rbp), %rax
	movq	%rdx, %rsi
	movq	%rax, %rdi
	call	_Z9stack_popP5StackPd@PLT
	.loc 2 258 22
	leaq	-736(%rbx), %rdx
	movq	-928(%rbp), %rax
	movq	%rdx, %rsi
	movq	%rax, %rdi
	call	_Z9stack_popP5StackPd@PLT
	.loc 2 260 23
	leaq	-768(%rbx), %rax
	movq	%rax, %rdx
	shrq	$3, %rdx
	addq	$2147450880, %rdx
	movzbl	(%rdx), %edx
	testb	%dl, %dl
	je	.L465
	movq	%rax, %rdi
	call	__asan_report_load8@PLT
.L465:
	movsd	-768(%rbx), %xmm1
	leaq	-736(%rbx), %rax
	movq	%rax, %rdx
	shrq	$3, %rdx
	addq	$2147450880, %rdx
	movzbl	(%rdx), %edx
	testb	%dl, %dl
	je	.L466
	movq	%rax, %rdi
	call	__asan_report_load8@PLT
.L466:
	movsd	-736(%rbx), %xmm0
	addsd	%xmm0, %xmm1
	movq	%xmm1, %rdx
	movq	-928(%rbp), %rax
	movq	%rdx, %xmm0
	movq	%rax, %rdi
	call	_Z10stack_pushP5Stackd@PLT
	leaq	-768(%rbx), %rax
	shrq	$3, %rax
	addq	$2147450880, %rax
	movb	$-8, (%rax)
	leaq	-736(%rbx), %rax
	shrq	$3, %rax
	addq	$2147450880, %rax
	movb	$-8, (%rax)
.LBE18:
	jmp	.L299
.L462:
.LBB19:
.LBB20:
	.loc 2 263 14
	cmpl	$5, -912(%rbp)
	jne	.L467
.LBB21:
	.loc 2 265 20
	leaq	-704(%rbx), %rax
	shrq	$3, %rax
	addq	$2147450880, %rax
	movb	$0, (%rax)
	leaq	-704(%rbx), %rax
	movq	%rax, %rdx
	shrq	$3, %rdx
	addq	$2147450880, %rdx
	movzbl	(%rdx), %edx
	testb	%dl, %dl
	je	.L468
	movq	%rax, %rdi
	call	__asan_report_store8@PLT
.L468:
	pxor	%xmm0, %xmm0
	movsd	%xmm0, -704(%rbx)
	.loc 2 265 30
	leaq	-672(%rbx), %rax
	shrq	$3, %rax
	addq	$2147450880, %rax
	movb	$0, (%rax)
	leaq	-672(%rbx), %rax
	movq	%rax, %rdx
	shrq	$3, %rdx
	addq	$2147450880, %rdx
	movzbl	(%rdx), %edx
	testb	%dl, %dl
	je	.L469
	movq	%rax, %rdi
	call	__asan_report_store8@PLT
.L469:
	pxor	%xmm0, %xmm0
	movsd	%xmm0, -672(%rbx)
	.loc 2 267 22
	leaq	-704(%rbx), %rdx
	movq	-928(%rbp), %rax
	movq	%rdx, %rsi
	movq	%rax, %rdi
	call	_Z9stack_popP5StackPd@PLT
	.loc 2 268 22
	leaq	-672(%rbx), %rdx
	movq	-928(%rbp), %rax
	movq	%rdx, %rsi
	movq	%rax, %rdi
	call	_Z9stack_popP5StackPd@PLT
	.loc 2 270 23
	leaq	-704(%rbx), %rax
	movq	%rax, %rdx
	shrq	$3, %rdx
	addq	$2147450880, %rdx
	movzbl	(%rdx), %edx
	testb	%dl, %dl
	je	.L470
	movq	%rax, %rdi
	call	__asan_report_load8@PLT
.L470:
	movsd	-704(%rbx), %xmm1
	leaq	-672(%rbx), %rax
	movq	%rax, %rdx
	shrq	$3, %rdx
	addq	$2147450880, %rdx
	movzbl	(%rdx), %edx
	testb	%dl, %dl
	je	.L471
	movq	%rax, %rdi
	call	__asan_report_load8@PLT
.L471:
	movsd	-672(%rbx), %xmm0
	mulsd	%xmm0, %xmm1
	movq	%xmm1, %rdx
	movq	-928(%rbp), %rax
	movq	%rdx, %xmm0
	movq	%rax, %rdi
	call	_Z10stack_pushP5Stackd@PLT
	leaq	-704(%rbx), %rax
	shrq	$3, %rax
	addq	$2147450880, %rax
	movb	$-8, (%rax)
	leaq	-672(%rbx), %rax
	shrq	$3, %rax
	addq	$2147450880, %rax
	movb	$-8, (%rax)
.LBE21:
	jmp	.L299
.L467:
.LBB22:
.LBB23:
	.loc 2 273 14
	cmpl	$4, -912(%rbp)
	jne	.L472
.LBB24:
	.loc 2 275 20
	leaq	-640(%rbx), %rax
	shrq	$3, %rax
	addq	$2147450880, %rax
	movb	$0, (%rax)
	leaq	-640(%rbx), %rax
	movq	%rax, %rdx
	shrq	$3, %rdx
	addq	$2147450880, %rdx
	movzbl	(%rdx), %edx
	testb	%dl, %dl
	je	.L473
	movq	%rax, %rdi
	call	__asan_report_store8@PLT
.L473:
	pxor	%xmm0, %xmm0
	movsd	%xmm0, -640(%rbx)
	.loc 2 275 30
	leaq	-608(%rbx), %rax
	shrq	$3, %rax
	addq	$2147450880, %rax
	movb	$0, (%rax)
	leaq	-608(%rbx), %rax
	movq	%rax, %rdx
	shrq	$3, %rdx
	addq	$2147450880, %rdx
	movzbl	(%rdx), %edx
	testb	%dl, %dl
	je	.L474
	movq	%rax, %rdi
	call	__asan_report_store8@PLT
.L474:
	pxor	%xmm0, %xmm0
	movsd	%xmm0, -608(%rbx)
	.loc 2 277 22
	leaq	-640(%rbx), %rdx
	movq	-928(%rbp), %rax
	movq	%rdx, %rsi
	movq	%rax, %rdi
	call	_Z9stack_popP5StackPd@PLT
	.loc 2 278 22
	leaq	-608(%rbx), %rdx
	movq	-928(%rbp), %rax
	movq	%rdx, %rsi
	movq	%rax, %rdi
	call	_Z9stack_popP5StackPd@PLT
	.loc 2 280 23
	leaq	-608(%rbx), %rax
	movq	%rax, %rdx
	shrq	$3, %rdx
	addq	$2147450880, %rdx
	movzbl	(%rdx), %edx
	testb	%dl, %dl
	je	.L475
	movq	%rax, %rdi
	call	__asan_report_load8@PLT
.L475:
	movsd	-608(%rbx), %xmm0
	leaq	-640(%rbx), %rax
	movq	%rax, %rdx
	shrq	$3, %rdx
	addq	$2147450880, %rdx
	movzbl	(%rdx), %edx
	testb	%dl, %dl
	je	.L476
	movq	%rax, %rdi
	call	__asan_report_load8@PLT
.L476:
	movsd	-640(%rbx), %xmm1
	subsd	%xmm1, %xmm0
	movq	%xmm0, %rdx
	movq	-928(%rbp), %rax
	movq	%rdx, %xmm0
	movq	%rax, %rdi
	call	_Z10stack_pushP5Stackd@PLT
	leaq	-640(%rbx), %rax
	shrq	$3, %rax
	addq	$2147450880, %rax
	movb	$-8, (%rax)
	leaq	-608(%rbx), %rax
	shrq	$3, %rax
	addq	$2147450880, %rax
	movb	$-8, (%rax)
.LBE24:
	jmp	.L299
.L472:
.LBB25:
.LBB26:
	.loc 2 283 14
	cmpl	$6, -912(%rbp)
	jne	.L477
.LBB27:
	.loc 2 285 18
	leaq	-576(%rbx), %rax
	shrq	$3, %rax
	addq	$2147450880, %rax
	movb	$0, (%rax)
	leaq	-576(%rbx), %rax
	movq	%rax, %rdx
	shrq	$3, %rdx
	addq	$2147450880, %rdx
	movzbl	(%rdx), %edx
	testb	%dl, %dl
	je	.L478
	movq	%rax, %rdi
	call	__asan_report_store8@PLT
.L478:
	pxor	%xmm0, %xmm0
	movsd	%xmm0, -576(%rbx)
	.loc 2 285 28
	leaq	-544(%rbx), %rax
	shrq	$3, %rax
	addq	$2147450880, %rax
	movb	$0, (%rax)
	leaq	-544(%rbx), %rax
	movq	%rax, %rdx
	shrq	$3, %rdx
	addq	$2147450880, %rdx
	movzbl	(%rdx), %edx
	testb	%dl, %dl
	je	.L479
	movq	%rax, %rdi
	call	__asan_report_store8@PLT
.L479:
	pxor	%xmm0, %xmm0
	movsd	%xmm0, -544(%rbx)
	.loc 2 287 22
	leaq	-576(%rbx), %rdx
	movq	-928(%rbp), %rax
	movq	%rdx, %rsi
	movq	%rax, %rdi
	call	_Z9stack_popP5StackPd@PLT
	.loc 2 288 22
	leaq	-544(%rbx), %rdx
	movq	-928(%rbp), %rax
	movq	%rdx, %rsi
	movq	%rax, %rdi
	call	_Z9stack_popP5StackPd@PLT
	.loc 2 290 44
	leaq	-544(%rbx), %rax
	movq	%rax, %rdx
	shrq	$3, %rdx
	addq	$2147450880, %rdx
	movzbl	(%rdx), %edx
	testb	%dl, %dl
	je	.L480
	movq	%rax, %rdi
	call	__asan_report_load8@PLT
.L480:
	movsd	-544(%rbx), %xmm5
	movsd	%xmm5, -944(%rbp)
	.loc 2 290 38
	ucomisd	.LC44(%rip), %xmm5
	setbe	%dl
	movsd	.LC45(%rip), %xmm0
	ucomisd	%xmm5, %xmm0
	setbe	%al
	orl	%edx, %eax
	testb	%al, %al
	je	.L481
	.loc 2 290 44 discriminator 1
	movq	%xmm5, %rax
	movq	%rax, %rsi
	leaq	.Lubsan_data250(%rip), %rax
	movq	%rax, %rdi
	call	__ubsan_handle_float_cast_overflow@PLT
.L481:
	.loc 2 290 38 discriminator 3
	cvttsd2sil	-944(%rbp), %r14d
	.loc 2 290 29 discriminator 3
	leaq	-576(%rbx), %rax
	movq	%rax, %rdx
	shrq	$3, %rdx
	addq	$2147450880, %rdx
	movzbl	(%rdx), %edx
	testb	%dl, %dl
	je	.L482
	.loc 2 290 29 is_stmt 0
	movq	%rax, %rdi
	call	__asan_report_load8@PLT
.L482:
	.loc 2 290 29 discriminator 3
	movsd	-576(%rbx), %xmm6
	movsd	%xmm6, -944(%rbp)
	.loc 2 290 24 is_stmt 1 discriminator 3
	ucomisd	.LC44(%rip), %xmm6
	setbe	%dl
	movsd	.LC45(%rip), %xmm0
	ucomisd	%xmm6, %xmm0
	setbe	%al
	orl	%edx, %eax
	testb	%al, %al
	je	.L483
	.loc 2 290 29 discriminator 4
	movq	%xmm6, %rax
	movq	%rax, %rsi
	leaq	.Lubsan_data249(%rip), %rax
	movq	%rax, %rdi
	call	__ubsan_handle_float_cast_overflow@PLT
.L483:
	.loc 2 290 24 discriminator 6
	cvttsd2sil	-944(%rbp), %r15d
	.loc 2 290 48 discriminator 6
	testl	%r14d, %r14d
	sete	%dl
	cmpl	$-2147483648, %r15d
	sete	%cl
	cmpl	$-1, %r14d
	sete	%al
	andl	%ecx, %eax
	orl	%edx, %eax
	testb	%al, %al
	je	.L484
	.loc 2 290 35 discriminator 7
	movslq	%r14d, %rdx
	movslq	%r15d, %rax
	movq	%rax, %rsi
	leaq	.Lubsan_data251(%rip), %rax
	movq	%rax, %rdi
	call	__ubsan_handle_divrem_overflow@PLT
.L484:
	.loc 2 290 48 discriminator 9
	movl	%r15d, %eax
	cltd
	idivl	%r14d
	movl	%eax, -900(%rbp)
	.loc 2 292 23 discriminator 9
	pxor	%xmm4, %xmm4
	cvtsi2sdl	-900(%rbp), %xmm4
	movq	%xmm4, %rdx
	movq	-928(%rbp), %rax
	movq	%rdx, %xmm0
	movq	%rax, %rdi
	call	_Z10stack_pushP5Stackd@PLT
	leaq	-576(%rbx), %rax
	shrq	$3, %rax
	addq	$2147450880, %rax
	movb	$-8, (%rax)
	leaq	-544(%rbx), %rax
	shrq	$3, %rax
	addq	$2147450880, %rax
	movb	$-8, (%rax)
.LBE27:
	jmp	.L299
.L477:
.LBB28:
.LBB29:
	.loc 2 295 14
	cmpl	$7, -912(%rbp)
	jne	.L485
.LBB30:
	.loc 2 297 20
	leaq	-512(%rbx), %rax
	shrq	$3, %rax
	addq	$2147450880, %rax
	movb	$0, (%rax)
	leaq	-512(%rbx), %rax
	movq	%rax, %rdx
	shrq	$3, %rdx
	addq	$2147450880, %rdx
	movzbl	(%rdx), %edx
	testb	%dl, %dl
	je	.L486
	movq	%rax, %rdi
	call	__asan_report_store8@PLT
.L486:
	pxor	%xmm0, %xmm0
	movsd	%xmm0, -512(%rbx)
	.loc 2 299 18
	leaq	-512(%rbx), %rax
	movq	%rax, %rsi
	leaq	.LC46(%rip), %rax
	movq	%rax, %rdi
	movl	$0, %eax
	call	__isoc99_scanf@PLT
	.loc 2 301 23
	leaq	-512(%rbx), %rax
	movq	%rax, %rdx
	shrq	$3, %rdx
	addq	$2147450880, %rdx
	movzbl	(%rdx), %edx
	testb	%dl, %dl
	je	.L487
	movq	%rax, %rdi
	call	__asan_report_load8@PLT
.L487:
	movq	-512(%rbx), %rdx
	movq	-928(%rbp), %rax
	movq	%rdx, %xmm0
	movq	%rax, %rdi
	call	_Z10stack_pushP5Stackd@PLT
	leaq	-512(%rbx), %rax
	shrq	$3, %rax
	addq	$2147450880, %rax
	movb	$-8, (%rax)
.LBE30:
	jmp	.L299
.L485:
.LBB31:
.LBB32:
	.loc 2 304 14
	cmpl	$31, -912(%rbp)
	jne	.L488
.LBB33:
	.loc 2 306 20
	leaq	-480(%rbx), %rax
	shrq	$3, %rax
	addq	$2147450880, %rax
	movb	$0, (%rax)
	leaq	-480(%rbx), %rax
	movq	%rax, %rdx
	shrq	$3, %rdx
	addq	$2147450880, %rdx
	movzbl	(%rdx), %edx
	testb	%dl, %dl
	je	.L489
	movq	%rax, %rdi
	call	__asan_report_store8@PLT
.L489:
	pxor	%xmm0, %xmm0
	movsd	%xmm0, -480(%rbx)
	.loc 2 307 22
	leaq	-480(%rbx), %rdx
	movq	-928(%rbp), %rax
	movq	%rdx, %rsi
	movq	%rax, %rdi
	call	_Z9stack_popP5StackPd@PLT
	.loc 2 308 45
	leaq	-480(%rbx), %rax
	movq	%rax, %rdx
	shrq	$3, %rdx
	addq	$2147450880, %rdx
	movzbl	(%rdx), %edx
	testb	%dl, %dl
	je	.L490
	movq	%rax, %rdi
	call	__asan_report_load8@PLT
.L490:
	movsd	-480(%rbx), %xmm7
	movsd	%xmm7, -944(%rbp)
	.loc 2 308 20
	ucomisd	.LC44(%rip), %xmm7
	setbe	%dl
	movsd	.LC45(%rip), %xmm0
	ucomisd	%xmm7, %xmm0
	setbe	%al
	orl	%edx, %eax
	testb	%al, %al
	je	.L491
	.loc 2 308 45 discriminator 1
	movq	%xmm7, %rax
	movq	%rax, %rsi
	leaq	.Lubsan_data252(%rip), %rax
	movq	%rax, %rdi
	call	__ubsan_handle_float_cast_overflow@PLT
.L491:
	.loc 2 308 20 discriminator 3
	cvttsd2sil	-944(%rbp), %r14d
	cmpq	$0, -936(%rbp)
	jne	.L492
	.loc 2 308 20 is_stmt 0
	leaq	.Lubsan_data629(%rip), %rax
	movq	%rax, %rdi
	call	__ubsan_handle_nonnull_arg@PLT
.L492:
	.loc 2 308 20 discriminator 3
	movq	-936(%rbp), %rax
	movl	%r14d, %edx
	leaq	.LC47(%rip), %rcx
	movq	%rcx, %rsi
	movq	%rax, %rdi
	movl	$0, %eax
	call	fprintf@PLT
	.loc 2 309 42 is_stmt 1 discriminator 3
	leaq	-480(%rbx), %rax
	movq	%rax, %rdx
	shrq	$3, %rdx
	addq	$2147450880, %rdx
	movzbl	(%rdx), %edx
	testb	%dl, %dl
	je	.L493
	.loc 2 309 42 is_stmt 0
	movq	%rax, %rdi
	call	__asan_report_load8@PLT
.L493:
	movsd	-480(%rbx), %xmm2
	movsd	%xmm2, -944(%rbp)
	.loc 2 309 20 is_stmt 1
	ucomisd	.LC44(%rip), %xmm2
	setbe	%dl
	movsd	.LC45(%rip), %xmm0
	ucomisd	%xmm2, %xmm0
	setbe	%al
	orl	%edx, %eax
	testb	%al, %al
	je	.L494
	.loc 2 309 42 discriminator 1
	movq	%xmm2, %rax
	movq	%rax, %rsi
	leaq	.Lubsan_data253(%rip), %rax
	movq	%rax, %rdi
	call	__ubsan_handle_float_cast_overflow@PLT
.L494:
	.loc 2 309 20 discriminator 3
	cvttsd2sil	-944(%rbp), %r15d
	leaq	stdout(%rip), %rax
	movq	%rax, %rdx
	shrq	$3, %rdx
	addq	$2147450880, %rdx
	movzbl	(%rdx), %edx
	testb	%dl, %dl
	je	.L495
	.loc 2 309 20 is_stmt 0
	movq	%rax, %rdi
	call	__asan_report_load8@PLT
.L495:
	.loc 2 309 20 discriminator 3
	movq	stdout(%rip), %r14
	testq	%r14, %r14
	jne	.L496
	.loc 2 309 20
	leaq	.Lubsan_data631(%rip), %rax
	movq	%rax, %rdi
	call	__ubsan_handle_nonnull_arg@PLT
.L496:
	.loc 2 309 20 discriminator 3
	movl	%r15d, %edx
	leaq	.LC48(%rip), %rax
	movq	%rax, %rsi
	movq	%r14, %rdi
	movl	$0, %eax
	call	fprintf@PLT
	leaq	-480(%rbx), %rax
	shrq	$3, %rax
	addq	$2147450880, %rax
	movb	$-8, (%rax)
.LBE33:
	jmp	.L299
.L488:
.LBB34:
.LBB35:
	.loc 2 313 14 is_stmt 1
	cmpl	$-1, -912(%rbp)
	jne	.L497
	.loc 2 315 21
	movq	-928(%rbp), %rdx
	movq	-896(%rbp), %rsi
	movq	-920(%rbp), %rax
	movl	$315, %r9d
	leaq	.LC42(%rip), %r8
	leaq	.LC0(%rip), %rcx
	movq	%rax, %rdi
	call	_Z8dump_cpuP10Cpu_structlP5StackPKcS4_i
	jmp	.L299
.L497:
.LBB36:
.LBB37:
	.loc 2 318 14
	cmpl	$9, -912(%rbp)
	jne	.L498
	.loc 2 320 32
	movq	-920(%rbp), %rax
	cmpq	$0, -920(%rbp)
	je	.L499
	movq	%rax, %rdx
	andl	$7, %edx
	testq	%rdx, %rdx
	je	.L500
.L499:
	movq	%rax, %rsi
	leaq	.Lubsan_data775(%rip), %rax
	movq	%rax, %rdi
	call	__ubsan_handle_type_mismatch_v1@PLT
.L500:
	movq	-920(%rbp), %rax
	leaq	136(%rax), %rdx
	cmpq	$-136, %rax
	jb	.L501
	movq	-920(%rbp), %rax
	movq	%rax, %rsi
	leaq	.Lubsan_data776(%rip), %rax
	movq	%rax, %rdi
	call	__ubsan_handle_pointer_overflow@PLT
.L501:
	movq	-920(%rbp), %rax
	addq	$136, %rax
	movq	%rax, %rdx
	shrq	$3, %rdx
	addq	$2147450880, %rdx
	movzbl	(%rdx), %edx
	testb	%dl, %dl
	je	.L502
	movq	%rax, %rdi
	call	__asan_report_load8@PLT
.L502:
	movq	-920(%rbp), %rax
	movq	136(%rax), %r14
	.loc 2 320 43
	movq	-896(%rbp), %rax
	.loc 2 320 45
	leaq	0(,%rax,4), %r15
	movq	%r14, %rdx
	leaq	(%rdx,%r15), %rax
	movq	%r15, %rcx
	notq	%rcx
	shrq	$63, %rcx
	testb	%cl, %cl
	je	.L503
	cmpq	%rdx, %rax
	jnb	.L504
.L505:
	movq	%rax, %rdx
	movq	%r14, %rsi
	leaq	.Lubsan_data777(%rip), %rax
	movq	%rax, %rdi
	call	__ubsan_handle_pointer_overflow@PLT
	jmp	.L504
.L503:
	cmpq	%rdx, %rax
	ja	.L505
.L504:
	addq	%r15, %r14
	movq	%r14, %rax
	testq	%r14, %r14
	je	.L506
	movq	%rax, %rdx
	andl	$3, %edx
	testq	%rdx, %rdx
	je	.L507
.L506:
	movq	%rax, %rsi
	leaq	.Lubsan_data778(%rip), %rax
	movq	%rax, %rdi
	call	__ubsan_handle_type_mismatch_v1@PLT
.L507:
	movq	%r14, %rax
	movq	%rax, %rdx
	shrq	$3, %rdx
	addq	$2147450880, %rdx
	movzbl	(%rdx), %edx
	testb	%dl, %dl
	setne	%sil
	movq	%rax, %rcx
	andl	$7, %ecx
	addl	$3, %ecx
	cmpb	%dl, %cl
	setge	%dl
	andl	%esi, %edx
	testb	%dl, %dl
	je	.L508
	movq	%rax, %rdi
	call	__asan_report_load4@PLT
.L508:
	movl	(%r14), %eax
	.loc 2 320 16
	cltq
	movq	%rax, -896(%rbp)
	.loc 2 321 15
	movq	-896(%rbp), %rax
	addq	$1, %rax
	movq	%rax, %r14
	jno	.L509
	movq	-896(%rbp), %rax
	movl	$1, %edx
	movq	%rax, %rsi
	leaq	.Lubsan_data822(%rip), %rax
	movq	%rax, %rdi
	call	__ubsan_handle_add_overflow@PLT
.L509:
	movq	%r14, -896(%rbp)
	jmp	.L299
.L498:
.LBB38:
.LBB39:
	.loc 2 324 14
	cmpl	$11, -912(%rbp)
	jne	.L511
.LBB40:
	.loc 2 326 20
	leaq	-448(%rbx), %rax
	shrq	$3, %rax
	addq	$2147450880, %rax
	movb	$0, (%rax)
	leaq	-448(%rbx), %rax
	movq	%rax, %rdx
	shrq	$3, %rdx
	addq	$2147450880, %rdx
	movzbl	(%rdx), %edx
	testb	%dl, %dl
	je	.L512
	movq	%rax, %rdi
	call	__asan_report_store8@PLT
.L512:
	pxor	%xmm0, %xmm0
	movsd	%xmm0, -448(%rbx)
	.loc 2 326 30
	leaq	-416(%rbx), %rax
	shrq	$3, %rax
	addq	$2147450880, %rax
	movb	$0, (%rax)
	leaq	-416(%rbx), %rax
	movq	%rax, %rdx
	shrq	$3, %rdx
	addq	$2147450880, %rdx
	movzbl	(%rdx), %edx
	testb	%dl, %dl
	je	.L513
	movq	%rax, %rdi
	call	__asan_report_store8@PLT
.L513:
	pxor	%xmm0, %xmm0
	movsd	%xmm0, -416(%rbx)
	.loc 2 328 22
	leaq	-448(%rbx), %rdx
	movq	-928(%rbp), %rax
	movq	%rdx, %rsi
	movq	%rax, %rdi
	call	_Z9stack_popP5StackPd@PLT
	.loc 2 329 22
	leaq	-416(%rbx), %rdx
	movq	-928(%rbp), %rax
	movq	%rdx, %rsi
	movq	%rax, %rdi
	call	_Z9stack_popP5StackPd@PLT
	.loc 2 330 22
	leaq	-448(%rbx), %rax
	movq	%rax, %rdx
	shrq	$3, %rdx
	addq	$2147450880, %rdx
	movzbl	(%rdx), %edx
	testb	%dl, %dl
	je	.L514
	movq	%rax, %rdi
	call	__asan_report_load8@PLT
.L514:
	movsd	-448(%rbx), %xmm0
	leaq	-416(%rbx), %rax
	movq	%rax, %rdx
	shrq	$3, %rdx
	addq	$2147450880, %rdx
	movzbl	(%rdx), %edx
	testb	%dl, %dl
	je	.L515
	movq	%rax, %rdi
	call	__asan_report_load8@PLT
.L515:
	movsd	-416(%rbx), %xmm1
	.loc 2 330 13
	comisd	%xmm1, %xmm0
	jb	.L701
	.loc 2 332 36
	movq	-920(%rbp), %rax
	cmpq	$0, -920(%rbp)
	je	.L518
	movq	%rax, %rdx
	andl	$7, %edx
	testq	%rdx, %rdx
	je	.L519
.L518:
	movq	%rax, %rsi
	leaq	.Lubsan_data779(%rip), %rax
	movq	%rax, %rdi
	call	__ubsan_handle_type_mismatch_v1@PLT
.L519:
	movq	-920(%rbp), %rax
	leaq	136(%rax), %rdx
	cmpq	$-136, %rax
	jb	.L520
	movq	-920(%rbp), %rax
	movq	%rax, %rsi
	leaq	.Lubsan_data780(%rip), %rax
	movq	%rax, %rdi
	call	__ubsan_handle_pointer_overflow@PLT
.L520:
	movq	-920(%rbp), %rax
	addq	$136, %rax
	movq	%rax, %rdx
	shrq	$3, %rdx
	addq	$2147450880, %rdx
	movzbl	(%rdx), %edx
	testb	%dl, %dl
	je	.L521
	movq	%rax, %rdi
	call	__asan_report_load8@PLT
.L521:
	movq	-920(%rbp), %rax
	movq	136(%rax), %r14
	.loc 2 332 47
	movq	-896(%rbp), %rax
	.loc 2 332 49
	leaq	0(,%rax,4), %r15
	movq	%r14, %rdx
	leaq	(%rdx,%r15), %rax
	movq	%r15, %rcx
	notq	%rcx
	shrq	$63, %rcx
	testb	%cl, %cl
	je	.L522
	cmpq	%rdx, %rax
	jnb	.L523
.L524:
	movq	%rax, %rdx
	movq	%r14, %rsi
	leaq	.Lubsan_data781(%rip), %rax
	movq	%rax, %rdi
	call	__ubsan_handle_pointer_overflow@PLT
	jmp	.L523
.L522:
	cmpq	%rdx, %rax
	ja	.L524
.L523:
	addq	%r15, %r14
	movq	%r14, %rax
	testq	%r14, %r14
	je	.L525
	movq	%rax, %rdx
	andl	$3, %edx
	testq	%rdx, %rdx
	je	.L526
.L525:
	movq	%rax, %rsi
	leaq	.Lubsan_data782(%rip), %rax
	movq	%rax, %rdi
	call	__ubsan_handle_type_mismatch_v1@PLT
.L526:
	movq	%r14, %rax
	movq	%rax, %rdx
	shrq	$3, %rdx
	addq	$2147450880, %rdx
	movzbl	(%rdx), %edx
	testb	%dl, %dl
	setne	%sil
	movq	%rax, %rcx
	andl	$7, %ecx
	addl	$3, %ecx
	cmpb	%dl, %cl
	setge	%dl
	andl	%esi, %edx
	testb	%dl, %dl
	je	.L527
	movq	%rax, %rdi
	call	__asan_report_load4@PLT
.L527:
	movl	(%r14), %eax
	.loc 2 332 20
	cltq
	movq	%rax, -896(%rbp)
	.loc 2 333 19
	movq	-896(%rbp), %rax
	addq	$1, %rax
	movq	%rax, %r14
	jno	.L528
	movq	-896(%rbp), %rax
	movl	$1, %edx
	movq	%rax, %rsi
	leaq	.Lubsan_data823(%rip), %rax
	movq	%rax, %rdi
	call	__ubsan_handle_add_overflow@PLT
.L528:
	movq	%r14, -896(%rbp)
	jmp	.L530
.L701:
	.loc 2 336 19
	movq	-896(%rbp), %rax
	addq	$1, %rax
	movq	%rax, %r14
	jno	.L531
	movq	-896(%rbp), %rax
	movl	$1, %edx
	movq	%rax, %rsi
	leaq	.Lubsan_data824(%rip), %rax
	movq	%rax, %rdi
	call	__ubsan_handle_add_overflow@PLT
.L531:
	movq	%r14, -896(%rbp)
.L530:
	leaq	-448(%rbx), %rax
	shrq	$3, %rax
	addq	$2147450880, %rax
	movb	$-8, (%rax)
	leaq	-416(%rbx), %rax
	shrq	$3, %rax
	addq	$2147450880, %rax
	movb	$-8, (%rax)
.LBE40:
	jmp	.L299
.L511:
.LBB41:
.LBB42:
	.loc 2 339 14
	cmpl	$10, -912(%rbp)
	jne	.L533
.LBB43:
	.loc 2 341 20
	leaq	-384(%rbx), %rax
	shrq	$3, %rax
	addq	$2147450880, %rax
	movb	$0, (%rax)
	leaq	-384(%rbx), %rax
	movq	%rax, %rdx
	shrq	$3, %rdx
	addq	$2147450880, %rdx
	movzbl	(%rdx), %edx
	testb	%dl, %dl
	je	.L534
	movq	%rax, %rdi
	call	__asan_report_store8@PLT
.L534:
	pxor	%xmm0, %xmm0
	movsd	%xmm0, -384(%rbx)
	.loc 2 341 30
	leaq	-352(%rbx), %rax
	shrq	$3, %rax
	addq	$2147450880, %rax
	movb	$0, (%rax)
	leaq	-352(%rbx), %rax
	movq	%rax, %rdx
	shrq	$3, %rdx
	addq	$2147450880, %rdx
	movzbl	(%rdx), %edx
	testb	%dl, %dl
	je	.L535
	movq	%rax, %rdi
	call	__asan_report_store8@PLT
.L535:
	pxor	%xmm0, %xmm0
	movsd	%xmm0, -352(%rbx)
	.loc 2 343 22
	leaq	-384(%rbx), %rdx
	movq	-928(%rbp), %rax
	movq	%rdx, %rsi
	movq	%rax, %rdi
	call	_Z9stack_popP5StackPd@PLT
	.loc 2 344 22
	leaq	-352(%rbx), %rdx
	movq	-928(%rbp), %rax
	movq	%rdx, %rsi
	movq	%rax, %rdi
	call	_Z9stack_popP5StackPd@PLT
	.loc 2 345 22
	leaq	-384(%rbx), %rax
	movq	%rax, %rdx
	shrq	$3, %rdx
	addq	$2147450880, %rdx
	movzbl	(%rdx), %edx
	testb	%dl, %dl
	je	.L536
	movq	%rax, %rdi
	call	__asan_report_load8@PLT
.L536:
	movsd	-384(%rbx), %xmm0
	leaq	-352(%rbx), %rax
	movq	%rax, %rdx
	shrq	$3, %rdx
	addq	$2147450880, %rdx
	movzbl	(%rdx), %edx
	testb	%dl, %dl
	je	.L537
	movq	%rax, %rdi
	call	__asan_report_load8@PLT
.L537:
	movsd	-352(%rbx), %xmm1
	.loc 2 345 13
	comisd	%xmm1, %xmm0
	jbe	.L702
	.loc 2 347 36
	movq	-920(%rbp), %rax
	cmpq	$0, -920(%rbp)
	je	.L540
	movq	%rax, %rdx
	andl	$7, %edx
	testq	%rdx, %rdx
	je	.L541
.L540:
	movq	%rax, %rsi
	leaq	.Lubsan_data783(%rip), %rax
	movq	%rax, %rdi
	call	__ubsan_handle_type_mismatch_v1@PLT
.L541:
	movq	-920(%rbp), %rax
	leaq	136(%rax), %rdx
	cmpq	$-136, %rax
	jb	.L542
	movq	-920(%rbp), %rax
	movq	%rax, %rsi
	leaq	.Lubsan_data784(%rip), %rax
	movq	%rax, %rdi
	call	__ubsan_handle_pointer_overflow@PLT
.L542:
	movq	-920(%rbp), %rax
	addq	$136, %rax
	movq	%rax, %rdx
	shrq	$3, %rdx
	addq	$2147450880, %rdx
	movzbl	(%rdx), %edx
	testb	%dl, %dl
	je	.L543
	movq	%rax, %rdi
	call	__asan_report_load8@PLT
.L543:
	movq	-920(%rbp), %rax
	movq	136(%rax), %r14
	.loc 2 347 47
	movq	-896(%rbp), %rax
	.loc 2 347 49
	leaq	0(,%rax,4), %r15
	movq	%r14, %rdx
	leaq	(%rdx,%r15), %rax
	movq	%r15, %rcx
	notq	%rcx
	shrq	$63, %rcx
	testb	%cl, %cl
	je	.L544
	cmpq	%rdx, %rax
	jnb	.L545
.L546:
	movq	%rax, %rdx
	movq	%r14, %rsi
	leaq	.Lubsan_data785(%rip), %rax
	movq	%rax, %rdi
	call	__ubsan_handle_pointer_overflow@PLT
	jmp	.L545
.L544:
	cmpq	%rdx, %rax
	ja	.L546
.L545:
	addq	%r15, %r14
	movq	%r14, %rax
	testq	%r14, %r14
	je	.L547
	movq	%rax, %rdx
	andl	$3, %edx
	testq	%rdx, %rdx
	je	.L548
.L547:
	movq	%rax, %rsi
	leaq	.Lubsan_data786(%rip), %rax
	movq	%rax, %rdi
	call	__ubsan_handle_type_mismatch_v1@PLT
.L548:
	movq	%r14, %rax
	movq	%rax, %rdx
	shrq	$3, %rdx
	addq	$2147450880, %rdx
	movzbl	(%rdx), %edx
	testb	%dl, %dl
	setne	%sil
	movq	%rax, %rcx
	andl	$7, %ecx
	addl	$3, %ecx
	cmpb	%dl, %cl
	setge	%dl
	andl	%esi, %edx
	testb	%dl, %dl
	je	.L549
	movq	%rax, %rdi
	call	__asan_report_load4@PLT
.L549:
	movl	(%r14), %eax
	.loc 2 347 20
	cltq
	movq	%rax, -896(%rbp)
	.loc 2 348 19
	movq	-896(%rbp), %rax
	addq	$1, %rax
	movq	%rax, %r14
	jno	.L550
	movq	-896(%rbp), %rax
	movl	$1, %edx
	movq	%rax, %rsi
	leaq	.Lubsan_data825(%rip), %rax
	movq	%rax, %rdi
	call	__ubsan_handle_add_overflow@PLT
.L550:
	movq	%r14, -896(%rbp)
	jmp	.L552
.L702:
	.loc 2 351 20
	movq	-896(%rbp), %rax
	addq	$1, %rax
	movq	%rax, %r14
	jno	.L553
	movq	-896(%rbp), %rax
	movl	$1, %edx
	movq	%rax, %rsi
	leaq	.Lubsan_data826(%rip), %rax
	movq	%rax, %rdi
	call	__ubsan_handle_add_overflow@PLT
.L553:
	movq	%r14, -896(%rbp)
.L552:
	leaq	-384(%rbx), %rax
	shrq	$3, %rax
	addq	$2147450880, %rax
	movb	$-8, (%rax)
	leaq	-352(%rbx), %rax
	shrq	$3, %rax
	addq	$2147450880, %rax
	movb	$-8, (%rax)
.LBE43:
	jmp	.L299
.L533:
.LBB44:
.LBB45:
	.loc 2 354 14
	cmpl	$13, -912(%rbp)
	jne	.L555
.LBB46:
	.loc 2 356 20
	leaq	-320(%rbx), %rax
	shrq	$3, %rax
	addq	$2147450880, %rax
	movb	$0, (%rax)
	leaq	-320(%rbx), %rax
	movq	%rax, %rdx
	shrq	$3, %rdx
	addq	$2147450880, %rdx
	movzbl	(%rdx), %edx
	testb	%dl, %dl
	je	.L556
	movq	%rax, %rdi
	call	__asan_report_store8@PLT
.L556:
	pxor	%xmm0, %xmm0
	movsd	%xmm0, -320(%rbx)
	.loc 2 356 30
	leaq	-288(%rbx), %rax
	shrq	$3, %rax
	addq	$2147450880, %rax
	movb	$0, (%rax)
	leaq	-288(%rbx), %rax
	movq	%rax, %rdx
	shrq	$3, %rdx
	addq	$2147450880, %rdx
	movzbl	(%rdx), %edx
	testb	%dl, %dl
	je	.L557
	movq	%rax, %rdi
	call	__asan_report_store8@PLT
.L557:
	pxor	%xmm0, %xmm0
	movsd	%xmm0, -288(%rbx)
	.loc 2 358 22
	leaq	-320(%rbx), %rdx
	movq	-928(%rbp), %rax
	movq	%rdx, %rsi
	movq	%rax, %rdi
	call	_Z9stack_popP5StackPd@PLT
	.loc 2 359 22
	leaq	-288(%rbx), %rdx
	movq	-928(%rbp), %rax
	movq	%rdx, %rsi
	movq	%rax, %rdi
	call	_Z9stack_popP5StackPd@PLT
	.loc 2 360 22
	leaq	-320(%rbx), %rax
	movq	%rax, %rdx
	shrq	$3, %rdx
	addq	$2147450880, %rdx
	movzbl	(%rdx), %edx
	testb	%dl, %dl
	je	.L558
	movq	%rax, %rdi
	call	__asan_report_load8@PLT
.L558:
	movsd	-320(%rbx), %xmm1
	leaq	-288(%rbx), %rax
	movq	%rax, %rdx
	shrq	$3, %rdx
	addq	$2147450880, %rdx
	movzbl	(%rdx), %edx
	testb	%dl, %dl
	je	.L559
	movq	%rax, %rdi
	call	__asan_report_load8@PLT
.L559:
	movsd	-288(%rbx), %xmm0
	.loc 2 360 13
	comisd	%xmm1, %xmm0
	jb	.L703
	.loc 2 362 36
	movq	-920(%rbp), %rax
	cmpq	$0, -920(%rbp)
	je	.L562
	movq	%rax, %rdx
	andl	$7, %edx
	testq	%rdx, %rdx
	je	.L563
.L562:
	movq	%rax, %rsi
	leaq	.Lubsan_data787(%rip), %rax
	movq	%rax, %rdi
	call	__ubsan_handle_type_mismatch_v1@PLT
.L563:
	movq	-920(%rbp), %rax
	leaq	136(%rax), %rdx
	cmpq	$-136, %rax
	jb	.L564
	movq	-920(%rbp), %rax
	movq	%rax, %rsi
	leaq	.Lubsan_data788(%rip), %rax
	movq	%rax, %rdi
	call	__ubsan_handle_pointer_overflow@PLT
.L564:
	movq	-920(%rbp), %rax
	addq	$136, %rax
	movq	%rax, %rdx
	shrq	$3, %rdx
	addq	$2147450880, %rdx
	movzbl	(%rdx), %edx
	testb	%dl, %dl
	je	.L565
	movq	%rax, %rdi
	call	__asan_report_load8@PLT
.L565:
	movq	-920(%rbp), %rax
	movq	136(%rax), %r14
	.loc 2 362 47
	movq	-896(%rbp), %rax
	.loc 2 362 49
	leaq	0(,%rax,4), %r15
	movq	%r14, %rdx
	leaq	(%rdx,%r15), %rax
	movq	%r15, %rcx
	notq	%rcx
	shrq	$63, %rcx
	testb	%cl, %cl
	je	.L566
	cmpq	%rdx, %rax
	jnb	.L567
.L568:
	movq	%rax, %rdx
	movq	%r14, %rsi
	leaq	.Lubsan_data789(%rip), %rax
	movq	%rax, %rdi
	call	__ubsan_handle_pointer_overflow@PLT
	jmp	.L567
.L566:
	cmpq	%rdx, %rax
	ja	.L568
.L567:
	addq	%r15, %r14
	movq	%r14, %rax
	testq	%r14, %r14
	je	.L569
	movq	%rax, %rdx
	andl	$3, %edx
	testq	%rdx, %rdx
	je	.L570
.L569:
	movq	%rax, %rsi
	leaq	.Lubsan_data790(%rip), %rax
	movq	%rax, %rdi
	call	__ubsan_handle_type_mismatch_v1@PLT
.L570:
	movq	%r14, %rax
	movq	%rax, %rdx
	shrq	$3, %rdx
	addq	$2147450880, %rdx
	movzbl	(%rdx), %edx
	testb	%dl, %dl
	setne	%sil
	movq	%rax, %rcx
	andl	$7, %ecx
	addl	$3, %ecx
	cmpb	%dl, %cl
	setge	%dl
	andl	%esi, %edx
	testb	%dl, %dl
	je	.L571
	movq	%rax, %rdi
	call	__asan_report_load4@PLT
.L571:
	movl	(%r14), %eax
	.loc 2 362 20
	cltq
	movq	%rax, -896(%rbp)
	.loc 2 363 19
	movq	-896(%rbp), %rax
	addq	$1, %rax
	movq	%rax, %r14
	jno	.L572
	movq	-896(%rbp), %rax
	movl	$1, %edx
	movq	%rax, %rsi
	leaq	.Lubsan_data827(%rip), %rax
	movq	%rax, %rdi
	call	__ubsan_handle_add_overflow@PLT
.L572:
	movq	%r14, -896(%rbp)
	jmp	.L574
.L703:
	.loc 2 366 20
	movq	-896(%rbp), %rax
	addq	$1, %rax
	movq	%rax, %r14
	jno	.L575
	movq	-896(%rbp), %rax
	movl	$1, %edx
	movq	%rax, %rsi
	leaq	.Lubsan_data828(%rip), %rax
	movq	%rax, %rdi
	call	__ubsan_handle_add_overflow@PLT
.L575:
	movq	%r14, -896(%rbp)
.L574:
	leaq	-320(%rbx), %rax
	shrq	$3, %rax
	addq	$2147450880, %rax
	movb	$-8, (%rax)
	leaq	-288(%rbx), %rax
	shrq	$3, %rax
	addq	$2147450880, %rax
	movb	$-8, (%rax)
.LBE46:
	jmp	.L299
.L555:
.LBB47:
.LBB48:
	.loc 2 369 14
	cmpl	$14, -912(%rbp)
	jne	.L577
.LBB49:
	.loc 2 371 20
	leaq	-256(%rbx), %rax
	shrq	$3, %rax
	addq	$2147450880, %rax
	movb	$0, (%rax)
	leaq	-256(%rbx), %rax
	movq	%rax, %rdx
	shrq	$3, %rdx
	addq	$2147450880, %rdx
	movzbl	(%rdx), %edx
	testb	%dl, %dl
	je	.L578
	movq	%rax, %rdi
	call	__asan_report_store8@PLT
.L578:
	pxor	%xmm0, %xmm0
	movsd	%xmm0, -256(%rbx)
	.loc 2 371 30
	leaq	-224(%rbx), %rax
	shrq	$3, %rax
	addq	$2147450880, %rax
	movb	$0, (%rax)
	leaq	-224(%rbx), %rax
	movq	%rax, %rdx
	shrq	$3, %rdx
	addq	$2147450880, %rdx
	movzbl	(%rdx), %edx
	testb	%dl, %dl
	je	.L579
	movq	%rax, %rdi
	call	__asan_report_store8@PLT
.L579:
	pxor	%xmm0, %xmm0
	movsd	%xmm0, -224(%rbx)
	.loc 2 373 22
	leaq	-256(%rbx), %rdx
	movq	-928(%rbp), %rax
	movq	%rdx, %rsi
	movq	%rax, %rdi
	call	_Z9stack_popP5StackPd@PLT
	.loc 2 374 22
	leaq	-224(%rbx), %rdx
	movq	-928(%rbp), %rax
	movq	%rdx, %rsi
	movq	%rax, %rdi
	call	_Z9stack_popP5StackPd@PLT
	.loc 2 375 22
	leaq	-256(%rbx), %rax
	movq	%rax, %rdx
	shrq	$3, %rdx
	addq	$2147450880, %rdx
	movzbl	(%rdx), %edx
	testb	%dl, %dl
	je	.L580
	movq	%rax, %rdi
	call	__asan_report_load8@PLT
.L580:
	movsd	-256(%rbx), %xmm1
	leaq	-224(%rbx), %rax
	movq	%rax, %rdx
	shrq	$3, %rdx
	addq	$2147450880, %rdx
	movzbl	(%rdx), %edx
	testb	%dl, %dl
	je	.L581
	movq	%rax, %rdi
	call	__asan_report_load8@PLT
.L581:
	movsd	-224(%rbx), %xmm0
	.loc 2 375 13
	comisd	%xmm1, %xmm0
	jbe	.L704
	.loc 2 377 36
	movq	-920(%rbp), %rax
	cmpq	$0, -920(%rbp)
	je	.L584
	movq	%rax, %rdx
	andl	$7, %edx
	testq	%rdx, %rdx
	je	.L585
.L584:
	movq	%rax, %rsi
	leaq	.Lubsan_data791(%rip), %rax
	movq	%rax, %rdi
	call	__ubsan_handle_type_mismatch_v1@PLT
.L585:
	movq	-920(%rbp), %rax
	leaq	136(%rax), %rdx
	cmpq	$-136, %rax
	jb	.L586
	movq	-920(%rbp), %rax
	movq	%rax, %rsi
	leaq	.Lubsan_data792(%rip), %rax
	movq	%rax, %rdi
	call	__ubsan_handle_pointer_overflow@PLT
.L586:
	movq	-920(%rbp), %rax
	addq	$136, %rax
	movq	%rax, %rdx
	shrq	$3, %rdx
	addq	$2147450880, %rdx
	movzbl	(%rdx), %edx
	testb	%dl, %dl
	je	.L587
	movq	%rax, %rdi
	call	__asan_report_load8@PLT
.L587:
	movq	-920(%rbp), %rax
	movq	136(%rax), %r14
	.loc 2 377 47
	movq	-896(%rbp), %rax
	.loc 2 377 49
	leaq	0(,%rax,4), %r15
	movq	%r14, %rdx
	leaq	(%rdx,%r15), %rax
	movq	%r15, %rcx
	notq	%rcx
	shrq	$63, %rcx
	testb	%cl, %cl
	je	.L588
	cmpq	%rdx, %rax
	jnb	.L589
.L590:
	movq	%rax, %rdx
	movq	%r14, %rsi
	leaq	.Lubsan_data793(%rip), %rax
	movq	%rax, %rdi
	call	__ubsan_handle_pointer_overflow@PLT
	jmp	.L589
.L588:
	cmpq	%rdx, %rax
	ja	.L590
.L589:
	addq	%r15, %r14
	movq	%r14, %rax
	testq	%r14, %r14
	je	.L591
	movq	%rax, %rdx
	andl	$3, %edx
	testq	%rdx, %rdx
	je	.L592
.L591:
	movq	%rax, %rsi
	leaq	.Lubsan_data794(%rip), %rax
	movq	%rax, %rdi
	call	__ubsan_handle_type_mismatch_v1@PLT
.L592:
	movq	%r14, %rax
	movq	%rax, %rdx
	shrq	$3, %rdx
	addq	$2147450880, %rdx
	movzbl	(%rdx), %edx
	testb	%dl, %dl
	setne	%sil
	movq	%rax, %rcx
	andl	$7, %ecx
	addl	$3, %ecx
	cmpb	%dl, %cl
	setge	%dl
	andl	%esi, %edx
	testb	%dl, %dl
	je	.L593
	movq	%rax, %rdi
	call	__asan_report_load4@PLT
.L593:
	movl	(%r14), %eax
	.loc 2 377 20
	cltq
	movq	%rax, -896(%rbp)
	.loc 2 378 19
	movq	-896(%rbp), %rax
	addq	$1, %rax
	movq	%rax, %r14
	jno	.L594
	movq	-896(%rbp), %rax
	movl	$1, %edx
	movq	%rax, %rsi
	leaq	.Lubsan_data829(%rip), %rax
	movq	%rax, %rdi
	call	__ubsan_handle_add_overflow@PLT
.L594:
	movq	%r14, -896(%rbp)
	jmp	.L596
.L704:
	.loc 2 381 20
	movq	-896(%rbp), %rax
	addq	$1, %rax
	movq	%rax, %r14
	jno	.L597
	movq	-896(%rbp), %rax
	movl	$1, %edx
	movq	%rax, %rsi
	leaq	.Lubsan_data830(%rip), %rax
	movq	%rax, %rdi
	call	__ubsan_handle_add_overflow@PLT
.L597:
	movq	%r14, -896(%rbp)
.L596:
	leaq	-256(%rbx), %rax
	shrq	$3, %rax
	addq	$2147450880, %rax
	movb	$-8, (%rax)
	leaq	-224(%rbx), %rax
	shrq	$3, %rax
	addq	$2147450880, %rax
	movb	$-8, (%rax)
.LBE49:
	jmp	.L299
.L577:
.LBB50:
.LBB51:
	.loc 2 384 14
	cmpl	$12, -912(%rbp)
	jne	.L599
.LBB52:
	.loc 2 386 20
	leaq	-192(%rbx), %rax
	shrq	$3, %rax
	addq	$2147450880, %rax
	movb	$0, (%rax)
	leaq	-192(%rbx), %rax
	movq	%rax, %rdx
	shrq	$3, %rdx
	addq	$2147450880, %rdx
	movzbl	(%rdx), %edx
	testb	%dl, %dl
	je	.L600
	movq	%rax, %rdi
	call	__asan_report_store8@PLT
.L600:
	pxor	%xmm0, %xmm0
	movsd	%xmm0, -192(%rbx)
	.loc 2 386 30
	leaq	-160(%rbx), %rax
	shrq	$3, %rax
	addq	$2147450880, %rax
	movb	$0, (%rax)
	leaq	-160(%rbx), %rax
	movq	%rax, %rdx
	shrq	$3, %rdx
	addq	$2147450880, %rdx
	movzbl	(%rdx), %edx
	testb	%dl, %dl
	je	.L601
	movq	%rax, %rdi
	call	__asan_report_store8@PLT
.L601:
	pxor	%xmm0, %xmm0
	movsd	%xmm0, -160(%rbx)
	.loc 2 388 22
	leaq	-192(%rbx), %rdx
	movq	-928(%rbp), %rax
	movq	%rdx, %rsi
	movq	%rax, %rdi
	call	_Z9stack_popP5StackPd@PLT
	.loc 2 389 22
	leaq	-160(%rbx), %rdx
	movq	-928(%rbp), %rax
	movq	%rdx, %rsi
	movq	%rax, %rdi
	call	_Z9stack_popP5StackPd@PLT
	.loc 2 390 22
	leaq	-192(%rbx), %rax
	movq	%rax, %rdx
	shrq	$3, %rdx
	addq	$2147450880, %rdx
	movzbl	(%rdx), %edx
	testb	%dl, %dl
	je	.L602
	movq	%rax, %rdi
	call	__asan_report_load8@PLT
.L602:
	movsd	-192(%rbx), %xmm0
	leaq	-160(%rbx), %rax
	movq	%rax, %rdx
	shrq	$3, %rdx
	addq	$2147450880, %rdx
	movzbl	(%rdx), %edx
	testb	%dl, %dl
	je	.L603
	movq	%rax, %rdi
	call	__asan_report_load8@PLT
.L603:
	movsd	-160(%rbx), %xmm1
	.loc 2 390 13
	ucomisd	%xmm1, %xmm0
	jp	.L604
	ucomisd	%xmm1, %xmm0
	jne	.L604
	.loc 2 392 36
	movq	-920(%rbp), %rax
	cmpq	$0, -920(%rbp)
	je	.L606
	movq	%rax, %rdx
	andl	$7, %edx
	testq	%rdx, %rdx
	je	.L607
.L606:
	movq	%rax, %rsi
	leaq	.Lubsan_data795(%rip), %rax
	movq	%rax, %rdi
	call	__ubsan_handle_type_mismatch_v1@PLT
.L607:
	movq	-920(%rbp), %rax
	leaq	136(%rax), %rdx
	cmpq	$-136, %rax
	jb	.L608
	movq	-920(%rbp), %rax
	movq	%rax, %rsi
	leaq	.Lubsan_data796(%rip), %rax
	movq	%rax, %rdi
	call	__ubsan_handle_pointer_overflow@PLT
.L608:
	movq	-920(%rbp), %rax
	addq	$136, %rax
	movq	%rax, %rdx
	shrq	$3, %rdx
	addq	$2147450880, %rdx
	movzbl	(%rdx), %edx
	testb	%dl, %dl
	je	.L609
	movq	%rax, %rdi
	call	__asan_report_load8@PLT
.L609:
	movq	-920(%rbp), %rax
	movq	136(%rax), %r14
	.loc 2 392 47
	movq	-896(%rbp), %rax
	.loc 2 392 49
	leaq	0(,%rax,4), %r15
	movq	%r14, %rdx
	leaq	(%rdx,%r15), %rax
	movq	%r15, %rcx
	notq	%rcx
	shrq	$63, %rcx
	testb	%cl, %cl
	je	.L610
	cmpq	%rdx, %rax
	jnb	.L611
.L612:
	movq	%rax, %rdx
	movq	%r14, %rsi
	leaq	.Lubsan_data797(%rip), %rax
	movq	%rax, %rdi
	call	__ubsan_handle_pointer_overflow@PLT
	jmp	.L611
.L610:
	cmpq	%rdx, %rax
	ja	.L612
.L611:
	addq	%r15, %r14
	movq	%r14, %rax
	testq	%r14, %r14
	je	.L613
	movq	%rax, %rdx
	andl	$3, %edx
	testq	%rdx, %rdx
	je	.L614
.L613:
	movq	%rax, %rsi
	leaq	.Lubsan_data798(%rip), %rax
	movq	%rax, %rdi
	call	__ubsan_handle_type_mismatch_v1@PLT
.L614:
	movq	%r14, %rax
	movq	%rax, %rdx
	shrq	$3, %rdx
	addq	$2147450880, %rdx
	movzbl	(%rdx), %edx
	testb	%dl, %dl
	setne	%sil
	movq	%rax, %rcx
	andl	$7, %ecx
	addl	$3, %ecx
	cmpb	%dl, %cl
	setge	%dl
	andl	%esi, %edx
	testb	%dl, %dl
	je	.L615
	movq	%rax, %rdi
	call	__asan_report_load4@PLT
.L615:
	movl	(%r14), %eax
	.loc 2 392 20
	cltq
	movq	%rax, -896(%rbp)
	.loc 2 393 19
	movq	-896(%rbp), %rax
	addq	$1, %rax
	movq	%rax, %r14
	jno	.L616
	movq	-896(%rbp), %rax
	movl	$1, %edx
	movq	%rax, %rsi
	leaq	.Lubsan_data831(%rip), %rax
	movq	%rax, %rdi
	call	__ubsan_handle_add_overflow@PLT
.L616:
	movq	%r14, -896(%rbp)
	jmp	.L618
.L604:
	.loc 2 396 20
	movq	-896(%rbp), %rax
	addq	$1, %rax
	movq	%rax, %r14
	jno	.L619
	movq	-896(%rbp), %rax
	movl	$1, %edx
	movq	%rax, %rsi
	leaq	.Lubsan_data832(%rip), %rax
	movq	%rax, %rdi
	call	__ubsan_handle_add_overflow@PLT
.L619:
	movq	%r14, -896(%rbp)
.L618:
	leaq	-192(%rbx), %rax
	shrq	$3, %rax
	addq	$2147450880, %rax
	movb	$-8, (%rax)
	leaq	-160(%rbx), %rax
	shrq	$3, %rax
	addq	$2147450880, %rax
	movb	$-8, (%rax)
.LBE52:
	jmp	.L299
.L599:
.LBB53:
.LBB54:
	.loc 2 399 14
	cmpl	$15, -912(%rbp)
	jne	.L621
.LBB55:
	.loc 2 401 20
	leaq	-128(%rbx), %rax
	shrq	$3, %rax
	addq	$2147450880, %rax
	movb	$0, (%rax)
	leaq	-128(%rbx), %rax
	movq	%rax, %rdx
	shrq	$3, %rdx
	addq	$2147450880, %rdx
	movzbl	(%rdx), %edx
	testb	%dl, %dl
	je	.L622
	movq	%rax, %rdi
	call	__asan_report_store8@PLT
.L622:
	pxor	%xmm0, %xmm0
	movsd	%xmm0, -128(%rbx)
	.loc 2 401 30
	leaq	-96(%rbx), %rax
	shrq	$3, %rax
	addq	$2147450880, %rax
	movb	$0, (%rax)
	leaq	-96(%rbx), %rax
	movq	%rax, %rdx
	shrq	$3, %rdx
	addq	$2147450880, %rdx
	movzbl	(%rdx), %edx
	testb	%dl, %dl
	je	.L623
	movq	%rax, %rdi
	call	__asan_report_store8@PLT
.L623:
	pxor	%xmm0, %xmm0
	movsd	%xmm0, -96(%rbx)
	.loc 2 403 22
	leaq	-128(%rbx), %rdx
	movq	-928(%rbp), %rax
	movq	%rdx, %rsi
	movq	%rax, %rdi
	call	_Z9stack_popP5StackPd@PLT
	.loc 2 404 22
	leaq	-96(%rbx), %rdx
	movq	-928(%rbp), %rax
	movq	%rdx, %rsi
	movq	%rax, %rdi
	call	_Z9stack_popP5StackPd@PLT
	.loc 2 405 22
	leaq	-128(%rbx), %rax
	movq	%rax, %rdx
	shrq	$3, %rdx
	addq	$2147450880, %rdx
	movzbl	(%rdx), %edx
	testb	%dl, %dl
	je	.L624
	movq	%rax, %rdi
	call	__asan_report_load8@PLT
.L624:
	movsd	-128(%rbx), %xmm0
	leaq	-96(%rbx), %rax
	movq	%rax, %rdx
	shrq	$3, %rdx
	addq	$2147450880, %rdx
	movzbl	(%rdx), %edx
	testb	%dl, %dl
	je	.L625
	movq	%rax, %rdi
	call	__asan_report_load8@PLT
.L625:
	movsd	-96(%rbx), %xmm1
	.loc 2 405 13
	ucomisd	%xmm1, %xmm0
	jp	.L700
	ucomisd	%xmm1, %xmm0
	je	.L626
.L700:
	.loc 2 407 36
	movq	-920(%rbp), %rax
	cmpq	$0, -920(%rbp)
	je	.L628
	movq	%rax, %rdx
	andl	$7, %edx
	testq	%rdx, %rdx
	je	.L629
.L628:
	movq	%rax, %rsi
	leaq	.Lubsan_data799(%rip), %rax
	movq	%rax, %rdi
	call	__ubsan_handle_type_mismatch_v1@PLT
.L629:
	movq	-920(%rbp), %rax
	leaq	136(%rax), %rdx
	cmpq	$-136, %rax
	jb	.L630
	movq	-920(%rbp), %rax
	movq	%rax, %rsi
	leaq	.Lubsan_data800(%rip), %rax
	movq	%rax, %rdi
	call	__ubsan_handle_pointer_overflow@PLT
.L630:
	movq	-920(%rbp), %rax
	addq	$136, %rax
	movq	%rax, %rdx
	shrq	$3, %rdx
	addq	$2147450880, %rdx
	movzbl	(%rdx), %edx
	testb	%dl, %dl
	je	.L631
	movq	%rax, %rdi
	call	__asan_report_load8@PLT
.L631:
	movq	-920(%rbp), %rax
	movq	136(%rax), %r14
	.loc 2 407 47
	movq	-896(%rbp), %rax
	.loc 2 407 49
	leaq	0(,%rax,4), %r15
	movq	%r14, %rdx
	leaq	(%rdx,%r15), %rax
	movq	%r15, %rcx
	notq	%rcx
	shrq	$63, %rcx
	testb	%cl, %cl
	je	.L632
	cmpq	%rdx, %rax
	jnb	.L633
.L634:
	movq	%rax, %rdx
	movq	%r14, %rsi
	leaq	.Lubsan_data801(%rip), %rax
	movq	%rax, %rdi
	call	__ubsan_handle_pointer_overflow@PLT
	jmp	.L633
.L632:
	cmpq	%rdx, %rax
	ja	.L634
.L633:
	addq	%r15, %r14
	movq	%r14, %rax
	testq	%r14, %r14
	je	.L635
	movq	%rax, %rdx
	andl	$3, %edx
	testq	%rdx, %rdx
	je	.L636
.L635:
	movq	%rax, %rsi
	leaq	.Lubsan_data802(%rip), %rax
	movq	%rax, %rdi
	call	__ubsan_handle_type_mismatch_v1@PLT
.L636:
	movq	%r14, %rax
	movq	%rax, %rdx
	shrq	$3, %rdx
	addq	$2147450880, %rdx
	movzbl	(%rdx), %edx
	testb	%dl, %dl
	setne	%sil
	movq	%rax, %rcx
	andl	$7, %ecx
	addl	$3, %ecx
	cmpb	%dl, %cl
	setge	%dl
	andl	%esi, %edx
	testb	%dl, %dl
	je	.L637
	movq	%rax, %rdi
	call	__asan_report_load4@PLT
.L637:
	movl	(%r14), %eax
	.loc 2 407 20
	cltq
	movq	%rax, -896(%rbp)
	.loc 2 408 19
	movq	-896(%rbp), %rax
	addq	$1, %rax
	movq	%rax, %r14
	jno	.L638
	movq	-896(%rbp), %rax
	movl	$1, %edx
	movq	%rax, %rsi
	leaq	.Lubsan_data833(%rip), %rax
	movq	%rax, %rdi
	call	__ubsan_handle_add_overflow@PLT
.L638:
	movq	%r14, -896(%rbp)
	jmp	.L640
.L626:
	.loc 2 411 20
	movq	-896(%rbp), %rax
	addq	$1, %rax
	movq	%rax, %r14
	jno	.L641
	movq	-896(%rbp), %rax
	movl	$1, %edx
	movq	%rax, %rsi
	leaq	.Lubsan_data834(%rip), %rax
	movq	%rax, %rdi
	call	__ubsan_handle_add_overflow@PLT
.L641:
	movq	%r14, -896(%rbp)
.L640:
	leaq	-128(%rbx), %rax
	shrq	$3, %rax
	addq	$2147450880, %rax
	movb	$-8, (%rax)
	leaq	-96(%rbx), %rax
	shrq	$3, %rax
	addq	$2147450880, %rax
	movb	$-8, (%rax)
.LBE55:
	jmp	.L299
.L621:
.LBB56:
.LBB57:
	.loc 2 414 14
	cmpl	$16, -912(%rbp)
	jne	.L643
	.loc 2 416 23
	pxor	%xmm5, %xmm5
	cvtsi2sdq	-896(%rbp), %xmm5
	movq	%xmm5, %r14
	movq	-920(%rbp), %rax
	cmpq	$0, -920(%rbp)
	je	.L644
	movq	%rax, %rdx
	andl	$7, %edx
	testq	%rdx, %rdx
	je	.L645
.L644:
	movq	%rax, %rsi
	leaq	.Lubsan_data803(%rip), %rax
	movq	%rax, %rdi
	call	__ubsan_handle_type_mismatch_v1@PLT
.L645:
	movq	-920(%rbp), %rax
	leaq	16552(%rax), %rdx
	cmpq	$-16552, %rax
	jb	.L646
	movq	-920(%rbp), %rax
	movq	%rax, %rsi
	leaq	.Lubsan_data804(%rip), %rax
	movq	%rax, %rdi
	call	__ubsan_handle_pointer_overflow@PLT
.L646:
	movq	-920(%rbp), %rax
	addq	$16552, %rax
	movq	%r14, %xmm0
	movq	%rax, %rdi
	call	_Z10stack_pushP5Stackd@PLT
	.loc 2 418 32
	movq	-920(%rbp), %rax
	cmpq	$0, -920(%rbp)
	je	.L647
	movq	%rax, %rdx
	andl	$7, %edx
	testq	%rdx, %rdx
	je	.L648
.L647:
	movq	%rax, %rsi
	leaq	.Lubsan_data805(%rip), %rax
	movq	%rax, %rdi
	call	__ubsan_handle_type_mismatch_v1@PLT
.L648:
	movq	-920(%rbp), %rax
	leaq	136(%rax), %rdx
	cmpq	$-136, %rax
	jb	.L649
	movq	-920(%rbp), %rax
	movq	%rax, %rsi
	leaq	.Lubsan_data806(%rip), %rax
	movq	%rax, %rdi
	call	__ubsan_handle_pointer_overflow@PLT
.L649:
	movq	-920(%rbp), %rax
	addq	$136, %rax
	movq	%rax, %rdx
	shrq	$3, %rdx
	addq	$2147450880, %rdx
	movzbl	(%rdx), %edx
	testb	%dl, %dl
	je	.L650
	movq	%rax, %rdi
	call	__asan_report_load8@PLT
.L650:
	movq	-920(%rbp), %rax
	movq	136(%rax), %r14
	.loc 2 418 43
	movq	-896(%rbp), %rax
	.loc 2 418 45
	leaq	0(,%rax,4), %r15
	movq	%r14, %rdx
	leaq	(%rdx,%r15), %rax
	movq	%r15, %rcx
	notq	%rcx
	shrq	$63, %rcx
	testb	%cl, %cl
	je	.L651
	cmpq	%rdx, %rax
	jnb	.L652
.L653:
	movq	%rax, %rdx
	movq	%r14, %rsi
	leaq	.Lubsan_data807(%rip), %rax
	movq	%rax, %rdi
	call	__ubsan_handle_pointer_overflow@PLT
	jmp	.L652
.L651:
	cmpq	%rdx, %rax
	ja	.L653
.L652:
	addq	%r15, %r14
	movq	%r14, %rax
	testq	%r14, %r14
	je	.L654
	movq	%rax, %rdx
	andl	$3, %edx
	testq	%rdx, %rdx
	je	.L655
.L654:
	movq	%rax, %rsi
	leaq	.Lubsan_data808(%rip), %rax
	movq	%rax, %rdi
	call	__ubsan_handle_type_mismatch_v1@PLT
.L655:
	movq	%r14, %rax
	movq	%rax, %rdx
	shrq	$3, %rdx
	addq	$2147450880, %rdx
	movzbl	(%rdx), %edx
	testb	%dl, %dl
	setne	%sil
	movq	%rax, %rcx
	andl	$7, %ecx
	addl	$3, %ecx
	cmpb	%dl, %cl
	setge	%dl
	andl	%esi, %edx
	testb	%dl, %dl
	je	.L656
	movq	%rax, %rdi
	call	__asan_report_load4@PLT
.L656:
	movl	(%r14), %eax
	.loc 2 418 16
	cltq
	movq	%rax, -896(%rbp)
	.loc 2 419 15
	movq	-896(%rbp), %rax
	addq	$1, %rax
	movq	%rax, %r14
	jno	.L657
	movq	-896(%rbp), %rax
	movl	$1, %edx
	movq	%rax, %rsi
	leaq	.Lubsan_data835(%rip), %rax
	movq	%rax, %rdi
	call	__ubsan_handle_add_overflow@PLT
.L657:
	movq	%r14, -896(%rbp)
	jmp	.L299
.L643:
.LBB58:
.LBB59:
	.loc 2 422 14
	cmpl	$17, -912(%rbp)
	jne	.L659
.LBB60:
	.loc 2 424 18
	leaq	-64(%rbx), %rax
	shrq	$3, %rax
	addq	$2147450880, %rax
	movb	$0, (%rax)
	leaq	-64(%rbx), %rax
	movq	%rax, %rdx
	shrq	$3, %rdx
	addq	$2147450880, %rdx
	movzbl	(%rdx), %edx
	testb	%dl, %dl
	je	.L660
	movq	%rax, %rdi
	call	__asan_report_store8@PLT
.L660:
	pxor	%xmm0, %xmm0
	movsd	%xmm0, -64(%rbx)
	.loc 2 425 22
	movq	-920(%rbp), %rax
	cmpq	$0, -920(%rbp)
	je	.L661
	movq	%rax, %rdx
	andl	$7, %edx
	testq	%rdx, %rdx
	je	.L662
.L661:
	movq	%rax, %rsi
	leaq	.Lubsan_data809(%rip), %rax
	movq	%rax, %rdi
	call	__ubsan_handle_type_mismatch_v1@PLT
.L662:
	movq	-920(%rbp), %rax
	leaq	16552(%rax), %rdx
	cmpq	$-16552, %rax
	jb	.L663
	movq	-920(%rbp), %rax
	movq	%rax, %rsi
	leaq	.Lubsan_data810(%rip), %rax
	movq	%rax, %rdi
	call	__ubsan_handle_pointer_overflow@PLT
.L663:
	movq	-920(%rbp), %rax
	leaq	16552(%rax), %rdx
	leaq	-64(%rbx), %rax
	movq	%rax, %rsi
	movq	%rdx, %rdi
	call	_Z9stack_popP5StackPd@PLT
	.loc 2 427 28
	leaq	-64(%rbx), %rax
	movq	%rax, %rdx
	shrq	$3, %rdx
	addq	$2147450880, %rdx
	movzbl	(%rdx), %edx
	testb	%dl, %dl
	je	.L664
	movq	%rax, %rdi
	call	__asan_report_load8@PLT
.L664:
	movsd	-64(%rbx), %xmm3
	movsd	%xmm3, -944(%rbp)
	.loc 2 427 16
	ucomisd	.LC49(%rip), %xmm3
	setbe	%dl
	movsd	.LC50(%rip), %xmm0
	ucomisd	%xmm3, %xmm0
	setbe	%al
	orl	%edx, %eax
	testb	%al, %al
	je	.L665
	.loc 2 427 28 discriminator 1
	movq	%xmm3, %rax
	movq	%rax, %rsi
	leaq	.Lubsan_data254(%rip), %rax
	movq	%rax, %rdi
	call	__ubsan_handle_float_cast_overflow@PLT
.L665:
	.loc 2 427 16 discriminator 3
	cvttsd2siq	-944(%rbp), %rax
	movq	%rax, -896(%rbp)
	.loc 2 428 15 discriminator 3
	movq	-896(%rbp), %rax
	addq	$1, %rax
	movq	%rax, %r14
	jno	.L666
	movq	-896(%rbp), %rax
	movl	$1, %edx
	movq	%rax, %rsi
	leaq	.Lubsan_data836(%rip), %rax
	movq	%rax, %rdi
	call	__ubsan_handle_add_overflow@PLT
.L666:
	movq	%r14, -896(%rbp)
	leaq	-64(%rbx), %rax
	shrq	$3, %rax
	addq	$2147450880, %rax
	movb	$-8, (%rax)
.LBE60:
	jmp	.L299
.L659:
.LBB61:
.LBB62:
	.loc 2 431 14
	cmpl	$8, -912(%rbp)
	jne	.L668
.LBB63:
	.loc 2 433 20
	leaq	-32(%rbx), %rax
	shrq	$3, %rax
	addq	$2147450880, %rax
	movb	$0, (%rax)
	leaq	-32(%rbx), %rax
	movq	%rax, %rdx
	shrq	$3, %rdx
	addq	$2147450880, %rdx
	movzbl	(%rdx), %edx
	testb	%dl, %dl
	je	.L669
	movq	%rax, %rdi
	call	__asan_report_store8@PLT
.L669:
	pxor	%xmm0, %xmm0
	movsd	%xmm0, -32(%rbx)
	.loc 2 435 22
	leaq	-32(%rbx), %rdx
	movq	-928(%rbp), %rax
	movq	%rdx, %rsi
	movq	%rax, %rdi
	call	_Z9stack_popP5StackPd@PLT
	.loc 2 436 23
	leaq	-32(%rbx), %rax
	movq	%rax, %rdx
	shrq	$3, %rdx
	addq	$2147450880, %rdx
	movzbl	(%rdx), %edx
	testb	%dl, %dl
	je	.L670
	movq	%rax, %rdi
	call	__asan_report_load8@PLT
.L670:
	movq	-32(%rbx), %rdx
	movq	-928(%rbp), %rax
	movq	%rdx, %xmm0
	movq	%rax, %rdi
	call	_Z10stack_pushP5Stackd@PLT
	.loc 2 437 23
	leaq	-32(%rbx), %rax
	movq	%rax, %rdx
	shrq	$3, %rdx
	addq	$2147450880, %rdx
	movzbl	(%rdx), %edx
	testb	%dl, %dl
	je	.L671
	movq	%rax, %rdi
	call	__asan_report_load8@PLT
.L671:
	movq	-32(%rbx), %rdx
	movq	-928(%rbp), %rax
	movq	%rdx, %xmm0
	movq	%rax, %rdi
	call	_Z10stack_pushP5Stackd@PLT
	leaq	-32(%rbx), %rax
	shrq	$3, %rax
	addq	$2147450880, %rax
	movb	$-8, (%rax)
.LBE63:
	jmp	.L299
.L668:
.LBB64:
.LBB65:
	.loc 2 439 14
	cmpl	$18, -912(%rbp)
	jne	.L299
.LBB66:
	.loc 2 441 17
	movl	$0, -908(%rbp)
	.loc 2 442 13
	jmp	.L672
.L689:
	.loc 2 444 46
	movl	-908(%rbp), %r14d
	movslq	%r14d, %rax
	cmpq	$4095, %rax
	jbe	.L673
	movslq	%r14d, %rax
	movq	%rax, %rsi
	leaq	.Lubsan_data811(%rip), %rax
	movq	%rax, %rdi
	call	__ubsan_handle_out_of_bounds@PLT
.L673:
	.loc 2 444 23
	movq	-920(%rbp), %rax
	cmpq	$0, -920(%rbp)
	je	.L674
	movq	%rax, %rdx
	andl	$7, %edx
	testq	%rdx, %rdx
	je	.L675
.L674:
	movq	%rax, %rsi
	leaq	.Lubsan_data812(%rip), %rax
	movq	%rax, %rdi
	call	__ubsan_handle_type_mismatch_v1@PLT
.L675:
	movslq	%r14d, %rax
	addq	$41, %rax
	leaq	0(,%rax,4), %rcx
	movq	-920(%rbp), %rdx
	leaq	(%rdx,%rcx), %rax
	notq	%rcx
	shrq	$63, %rcx
	testb	%cl, %cl
	je	.L676
	cmpq	%rdx, %rax
	jnb	.L677
.L678:
	movq	-920(%rbp), %rcx
	movq	%rax, %rdx
	movq	%rcx, %rsi
	leaq	.Lubsan_data813(%rip), %rax
	movq	%rax, %rdi
	call	__ubsan_handle_pointer_overflow@PLT
	jmp	.L677
.L676:
	cmpq	%rdx, %rax
	ja	.L678
.L677:
	movslq	%r14d, %rax
	addq	$40, %rax
	leaq	0(,%rax,4), %rdx
	movq	-920(%rbp), %rax
	addq	%rdx, %rax
	addq	$4, %rax
	movq	%rax, %rdx
	shrq	$3, %rdx
	addq	$2147450880, %rdx
	movzbl	(%rdx), %edx
	testb	%dl, %dl
	setne	%sil
	movq	%rax, %rcx
	andl	$7, %ecx
	addl	$3, %ecx
	cmpb	%dl, %cl
	setge	%dl
	andl	%esi, %edx
	testb	%dl, %dl
	je	.L679
	movq	%rax, %rdi
	call	__asan_report_load4@PLT
.L679:
	movq	-920(%rbp), %rax
	movslq	%r14d, %rdx
	addq	$40, %rdx
	movl	4(%rax,%rdx,4), %eax
	movl	%eax, %edi
	call	putchar@PLT
	.loc 2 445 24
	movl	-908(%rbp), %eax
	addl	$1, %eax
	movl	%eax, %r14d
	jno	.L680
	movl	-908(%rbp), %eax
	cltq
	movl	$1, %edx
	movq	%rax, %rsi
	leaq	.Lubsan_data837(%rip), %rax
	movq	%rax, %rdi
	call	__ubsan_handle_add_overflow@PLT
.L680:
	movl	%r14d, -908(%rbp)
.L672:
	.loc 2 442 37
	movl	-908(%rbp), %r14d
	movslq	%r14d, %rax
	cmpq	$4095, %rax
	jbe	.L682
	movslq	%r14d, %rax
	movq	%rax, %rsi
	leaq	.Lubsan_data814(%rip), %rax
	movq	%rax, %rdi
	call	__ubsan_handle_out_of_bounds@PLT
.L682:
	movq	-920(%rbp), %rax
	cmpq	$0, -920(%rbp)
	je	.L683
	movq	%rax, %rdx
	andl	$7, %edx
	testq	%rdx, %rdx
	je	.L684
.L683:
	movq	%rax, %rsi
	leaq	.Lubsan_data815(%rip), %rax
	movq	%rax, %rdi
	call	__ubsan_handle_type_mismatch_v1@PLT
.L684:
	movslq	%r14d, %rax
	addq	$41, %rax
	leaq	0(,%rax,4), %rcx
	movq	-920(%rbp), %rdx
	leaq	(%rdx,%rcx), %rax
	notq	%rcx
	shrq	$63, %rcx
	testb	%cl, %cl
	je	.L685
	cmpq	%rdx, %rax
	jnb	.L686
.L687:
	movq	-920(%rbp), %rcx
	movq	%rax, %rdx
	movq	%rcx, %rsi
	leaq	.Lubsan_data816(%rip), %rax
	movq	%rax, %rdi
	call	__ubsan_handle_pointer_overflow@PLT
	jmp	.L686
.L685:
	cmpq	%rdx, %rax
	ja	.L687
.L686:
	movslq	%r14d, %rax
	addq	$40, %rax
	leaq	0(,%rax,4), %rdx
	movq	-920(%rbp), %rax
	addq	%rdx, %rax
	addq	$4, %rax
	movq	%rax, %rdx
	shrq	$3, %rdx
	addq	$2147450880, %rdx
	movzbl	(%rdx), %edx
	testb	%dl, %dl
	setne	%sil
	movq	%rax, %rcx
	andl	$7, %ecx
	addl	$3, %ecx
	cmpb	%dl, %cl
	setge	%dl
	andl	%esi, %edx
	testb	%dl, %dl
	je	.L688
	movq	%rax, %rdi
	call	__asan_report_load4@PLT
.L688:
	movq	-920(%rbp), %rax
	movslq	%r14d, %rdx
	addq	$40, %rdx
	movl	4(%rax,%rdx,4), %eax
	.loc 2 442 48
	testl	%eax, %eax
	je	.L299
	.loc 2 442 48 is_stmt 0 discriminator 1
	cmpl	$4095, -908(%rbp)
	jle	.L689
.L299:
.LBE66:
.LBE65:
.LBE64:
.LBE62:
.LBE61:
.LBE59:
.LBE58:
.LBE57:
.LBE56:
.LBE54:
.LBE53:
.LBE51:
.LBE50:
.LBE48:
.LBE47:
.LBE45:
.LBE44:
.LBE42:
.LBE41:
.LBE39:
.LBE38:
.LBE37:
.LBE36:
.LBE35:
.LBE34:
.LBE32:
.LBE31:
.LBE29:
.LBE28:
.LBE26:
.LBE25:
.LBE23:
.LBE22:
.LBE20:
.LBE19:
.LBE17:
.LBE16:
.LBE14:
.LBE13:
.LBE11:
.LBE10:
.LBE9:
.LBE8:
	.loc 2 187 22 is_stmt 1
	movq	-920(%rbp), %rax
	cmpq	$0, -920(%rbp)
	je	.L690
	movq	%rax, %rdx
	andl	$7, %edx
	testq	%rdx, %rdx
	je	.L691
.L690:
	movq	%rax, %rsi
	leaq	.Lubsan_data817(%rip), %rax
	movq	%rax, %rdi
	call	__ubsan_handle_type_mismatch_v1@PLT
.L691:
	movq	-920(%rbp), %rax
	leaq	24(%rax), %rdx
	cmpq	$-24, %rax
	jb	.L692
	movq	-920(%rbp), %rax
	movq	%rax, %rsi
	leaq	.Lubsan_data818(%rip), %rax
	movq	%rax, %rdi
	call	__ubsan_handle_pointer_overflow@PLT
.L692:
	movq	-920(%rbp), %rax
	addq	$24, %rax
	movq	%rax, %rdx
	shrq	$3, %rdx
	addq	$2147450880, %rdx
	movzbl	(%rdx), %edx
	testb	%dl, %dl
	je	.L693
	movq	%rax, %rdi
	call	__asan_report_load8@PLT
.L693:
	movq	-920(%rbp), %rax
	movq	24(%rax), %rax
	.loc 2 187 15
	cmpq	%rax, -896(%rbp)
	jl	.L694
	.loc 2 449 1
	jmp	.L315
.L705:
.LBB68:
.LBB67:
	.loc 2 200 13
	nop
.L315:
.LBE67:
.LBE68:
	.loc 2 449 1
	nop
	.loc 2 179 1
	cmpq	%r13, -952(%rbp)
	je	.L296
	movq	$1172321806, 0(%r13)
	movabsq	$-723401728380766731, %rax
	movabsq	$-723401728380766731, %rdx
	movq	%rax, 2147450880(%r12)
	movq	%rdx, 2147450888(%r12)
	movq	%rax, 2147450896(%r12)
	movq	%rdx, 2147450904(%r12)
	movq	%rax, 2147450912(%r12)
	movq	%rdx, 2147450920(%r12)
	movq	%rax, 2147450928(%r12)
	movq	%rdx, 2147450936(%r12)
	movq	%rax, 2147450944(%r12)
	movq	%rdx, 2147450952(%r12)
	movq	%rax, 2147450960(%r12)
	movq	%rdx, 2147450968(%r12)
	movabsq	$-723401728380766731, %rax
	movq	%rax, 2147450976(%r12)
	movq	1016(%r13), %rax
	movb	$0, (%rax)
	jmp	.L297
.L296:
	leaq	2147450880(%r12), %rax
	movl	$104, %ecx
	movl	$0, %esi
	movq	%rsi, (%rax)
	movl	%ecx, %edx
	addq	%rax, %rdx
	addq	$8, %rdx
	movq	%rsi, -16(%rdx)
	leaq	8(%rax), %rdx
	andq	$-8, %rdx
	subq	%rdx, %rax
	addl	%eax, %ecx
	andl	$-8, %ecx
	movl	%ecx, %eax
	shrl	$3, %eax
	movl	%eax, %ecx
	movq	%rdx, %rdi
	movq	%rsi, %rax
	rep stosq
.L297:
	.loc 2 449 1
	addq	$920, %rsp
	popq	%rbx
	popq	%r12
	popq	%r13
	popq	%r14
	popq	%r15
	popq	%rbp
	.cfi_def_cfa 7, 8
	ret
	.cfi_endproc
.LFE1121:
	.size	_Z16execute_commandsP10Cpu_structP5StackP8_IO_FILE, .-_Z16execute_commandsP10Cpu_structP5StackP8_IO_FILE
	.section	.rodata
	.align 8
.LC51:
	.string	"2 48 96 5 stack 176 16648 3 cpu"
	.align 32
.LC52:
	.string	"void do_bin_instructions(FILE*, const char*, FILE*)"
	.zero	44
	.align 32
.LC53:
	.string	"exec_bin_file_ptr != NULL"
	.zero	38
	.align 32
.LC54:
	.string	"path_to_executable_file_bin != NULL"
	.zero	60
	.align 32
.LC55:
	.string	"stack"
	.zero	58
	.align 32
.LC56:
	.string	"do_bin_instructions"
	.zero	44
	.text
	.globl	_Z19do_bin_instructionsP8_IO_FILEPKcS0_
	.type	_Z19do_bin_instructionsP8_IO_FILEPKcS0_, @function
_Z19do_bin_instructionsP8_IO_FILEPKcS0_:
.LASANPC1122:
.LFB1122:
	.loc 2 452 1
	.cfi_startproc
	endbr64
	pushq	%rbp
	.cfi_def_cfa_offset 16
	.cfi_offset 6, -16
	movq	%rsp, %rbp
	.cfi_def_cfa_register 6
	pushq	%r14
	pushq	%r13
	pushq	%r12
	pushq	%rbx
	leaq	-16384(%rsp), %r11
.LPSRL1:
	subq	$4096, %rsp
	orq	$0, (%rsp)
	cmpq	%r11, %rsp
	jne	.LPSRL1
	subq	$736, %rsp
	.cfi_offset 14, -24
	.cfi_offset 13, -32
	.cfi_offset 12, -40
	.cfi_offset 3, -48
	movq	%rdi, -17128(%rbp)
	movq	%rsi, -17136(%rbp)
	movq	%rdx, -17144(%rbp)
	leaq	-17120(%rbp), %r13
	movq	%r13, %r14
	cmpl	$0, __asan_option_detect_stack_use_after_return(%rip)
	je	.L706
	movl	$17088, %edi
	call	__asan_stack_malloc_9@PLT
	testq	%rax, %rax
	je	.L706
	movq	%rax, %r13
.L706:
	leaq	17088(%r13), %rax
	movq	%rax, %r12
	movq	$1102416563, 0(%r13)
	leaq	.LC51(%rip), %rax
	movq	%rax, 8(%r13)
	leaq	.LASANPC1122(%rip), %rax
	movq	%rax, 16(%r13)
	movq	%r13, %rbx
	shrq	$3, %rbx
	movl	$-235802127, 2147450880(%rbx)
	movl	$61937, 2147450884(%rbx)
	movl	$-219021312, 2147450896(%rbx)
	movl	$62194, 2147450900(%rbx)
	movl	$-218103808, 2147452980(%rbx)
	movl	$-202116109, 2147452984(%rbx)
	movl	$-202116109, 2147452988(%rbx)
	movl	$-202116109, 2147452992(%rbx)
	movl	$-202116109, 2147452996(%rbx)
	movl	$-202116109, 2147453000(%rbx)
	movl	$-202116109, 2147453004(%rbx)
	movl	$-202116109, 2147453008(%rbx)
	movl	$-202116109, 2147453012(%rbx)
	.loc 2 453 12
	cmpq	$0, -17128(%rbp)
	jne	.L710
	.loc 2 453 39 discriminator 1
	call	__asan_handle_no_return@PLT
	leaq	.LC52(%rip), %rax
	movq	%rax, %rcx
	movl	$453, %edx
	leaq	.LC0(%rip), %rax
	movq	%rax, %rsi
	leaq	.LC53(%rip), %rax
	movq	%rax, %rdi
	call	__assert_fail@PLT
.L710:
	.loc 2 454 12
	cmpq	$0, -17136(%rbp)
	jne	.L711
	.loc 2 454 39 discriminator 1
	call	__asan_handle_no_return@PLT
	leaq	.LC52(%rip), %rax
	movq	%rax, %rcx
	movl	$454, %edx
	leaq	.LC0(%rip), %rax
	movq	%rax, %rsi
	leaq	.LC54(%rip), %rax
	movq	%rax, %rdi
	call	__assert_fail@PLT
.L711:
	.loc 2 455 12
	cmpq	$0, -17144(%rbp)
	jne	.L712
	.loc 2 455 39 discriminator 1
	call	__asan_handle_no_return@PLT
	leaq	.LC52(%rip), %rax
	movq	%rax, %rcx
	movl	$455, %edx
	leaq	.LC0(%rip), %rax
	movq	%rax, %rsi
	leaq	.LC22(%rip), %rax
	movq	%rax, %rdi
	call	__assert_fail@PLT
.L712:
	.loc 2 458 11
	leaq	-17040(%r12), %rax
	movq	%rax, %rdx
	shrq	$3, %rdx
	addq	$2147450880, %rdx
	movzbl	(%rdx), %edx
	testb	%dl, %dl
	setne	%cl
	testb	%dl, %dl
	setle	%dl
	movl	%ecx, %esi
	andl	%edx, %esi
	movl	$96, %edx
	subq	$1, %rdx
	leaq	(%rax,%rdx), %rcx
	movq	%rcx, %rdx
	shrq	$3, %rdx
	addq	$2147450880, %rdx
	movzbl	(%rdx), %edx
	testb	%dl, %dl
	setne	%dil
	andl	$7, %ecx
	cmpb	%dl, %cl
	setge	%dl
	andl	%edi, %edx
	orl	%esi, %edx
	testb	%dl, %dl
	je	.L713
	movl	$96, %esi
	movq	%rax, %rdi
	call	__asan_report_store_n@PLT
.L713:
	leaq	-17040(%r12), %rdx
	movl	$0, %eax
	movl	$12, %ecx
	movq	%rdx, %rdi
	rep stosq
	.loc 2 459 14
	call	_Z9open_logsv@PLT
	.loc 2 460 15
	leaq	-17040(%r12), %rax
	movl	$460, %r9d
	leaq	.LC55(%rip), %r8
	leaq	.LC0(%rip), %rdx
	movq	%rdx, %rcx
	leaq	.LC56(%rip), %rdx
	movl	$10, %esi
	movq	%rax, %rdi
	call	_Z10stack_ctorP5StacklPKcS2_S2_i@PLT
	.loc 2 462 23
	leaq	-16912(%r12), %rax
	movq	%rax, %rdx
	shrq	$3, %rdx
	addq	$2147450880, %rdx
	movzbl	(%rdx), %edx
	testb	%dl, %dl
	setne	%cl
	testb	%dl, %dl
	setle	%dl
	movl	%ecx, %esi
	andl	%edx, %esi
	movl	$16648, %edx
	subq	$1, %rdx
	leaq	(%rax,%rdx), %rcx
	movq	%rcx, %rdx
	shrq	$3, %rdx
	addq	$2147450880, %rdx
	movzbl	(%rdx), %edx
	testb	%dl, %dl
	setne	%dil
	andl	$7, %ecx
	cmpb	%dl, %cl
	setge	%dl
	andl	%edi, %edx
	orl	%esi, %edx
	testb	%dl, %dl
	je	.L714
	movl	$16648, %esi
	movq	%rax, %rdi
	call	__asan_report_store_n@PLT
.L714:
	leaq	-16912(%r12), %rax
	movl	$16648, %edx
	movl	$0, %esi
	movq	%rax, %rdi
	call	memset@PLT
	leaq	-16912(%r12), %rax
	movq	%rax, %rdx
	shrq	$3, %rdx
	addq	$2147450880, %rdx
	movzbl	(%rdx), %edx
	testb	%dl, %dl
	je	.L715
	movq	%rax, %rdi
	call	__asan_report_store8@PLT
.L715:
	leaq	.LC23(%rip), %rax
	movq	%rax, -16912(%r12)
	leaq	-16912(%r12), %rax
	addq	$8, %rax
	movq	%rax, %rdx
	movq	%rdx, %rax
	shrq	$3, %rax
	addq	$2147450880, %rax
	movzbl	(%rax), %eax
	testb	%al, %al
	setne	%cl
	cmpb	$3, %al
	setle	%al
	andl	%ecx, %eax
	testb	%al, %al
	je	.L716
	movq	%rdx, %rdi
	call	__asan_report_store4@PLT
.L716:
	movl	$1, -16904(%r12)
	.loc 2 464 30
	leaq	-16912(%r12), %rdx
	movq	-17128(%rbp), %rax
	movq	%rdx, %rsi
	movq	%rax, %rdi
	call	_Z25check_executable_bin_fileP8_IO_FILEP10Cpu_struct
	.loc 2 466 24
	movq	-17136(%rbp), %rdx
	leaq	-16912(%r12), %rcx
	movq	-17128(%rbp), %rax
	movq	%rcx, %rsi
	movq	%rax, %rdi
	call	_Z19fill_cpu_struct_binP8_IO_FILEP10Cpu_structPKc
	.loc 2 468 21
	movq	-17144(%rbp), %rdx
	leaq	-17040(%r12), %rcx
	leaq	-16912(%r12), %rax
	movq	%rcx, %rsi
	movq	%rax, %rdi
	call	_Z16execute_commandsP10Cpu_structP5StackP8_IO_FILE
	.loc 2 470 18
	leaq	-16912(%r12), %rax
	movq	%rax, %rdi
	call	_Z13dtor_exec_binP10Cpu_struct
	.loc 2 471 15
	call	_Z10close_logsv@PLT
	.loc 2 472 15
	leaq	-16912(%r12), %rax
	addq	$40, %rax
	movq	%rax, %rdi
	call	_Z10stack_dtorP5Stack@PLT
	.loc 2 473 1
	nop
	.loc 2 452 1
	cmpq	%r13, %r14
	je	.L707
	movq	$1172321806, 0(%r13)
	movq	%r14, %rdx
	movl	$17088, %esi
	movq	%r13, %rdi
	call	__asan_stack_free_9@PLT
	jmp	.L708
.L707:
	movq	$0, 2147450880(%rbx)
	movq	$0, 2147450896(%rbx)
	movq	$0, 2147452980(%rbx)
	movq	$0, 2147452988(%rbx)
	movq	$0, 2147452996(%rbx)
	movq	$0, 2147453004(%rbx)
	movl	$0, 2147453012(%rbx)
.L708:
	.loc 2 473 1
	addq	$17120, %rsp
	popq	%rbx
	popq	%r12
	popq	%r13
	popq	%r14
	popq	%rbp
	.cfi_def_cfa 7, 8
	ret
	.cfi_endproc
.LFE1122:
	.size	_Z19do_bin_instructionsP8_IO_FILEPKcS0_, .-_Z19do_bin_instructionsP8_IO_FILEPKcS0_
	.section	.data.rel.local
	.align 32
	.type	.Lubsan_data838, @object
	.size	.Lubsan_data838, 32
.Lubsan_data838:
	.quad	.LC0
	.long	481
	.long	16
	.quad	.Lubsan_type7
	.byte	2
	.byte	0
	.zero	6
	.zero	32
	.align 32
	.type	.Lubsan_data839, @object
	.size	.Lubsan_data839, 16
.Lubsan_data839:
	.quad	.LC0
	.long	482
	.long	16
	.zero	48
	.align 32
	.type	.Lubsan_data840, @object
	.size	.Lubsan_data840, 32
.Lubsan_data840:
	.quad	.LC0
	.long	482
	.long	16
	.quad	.Lubsan_type7
	.byte	2
	.byte	0
	.zero	6
	.zero	32
	.section	.rodata
	.align 32
.LC57:
	.string	"void check_executable_bin_file(FILE*, Cpu_struct*)"
	.zero	45
	.align 32
.LC58:
	.string	"first_line[0] == 'C' + 'P' * 256"
	.zero	63
	.align 32
.LC59:
	.string	"first_line[1] == VERSION"
	.zero	39
	.text
	.globl	_Z25check_executable_bin_fileP8_IO_FILEP10Cpu_struct
	.type	_Z25check_executable_bin_fileP8_IO_FILEP10Cpu_struct, @function
_Z25check_executable_bin_fileP8_IO_FILEP10Cpu_struct:
.LASANPC1123:
.LFB1123:
	.loc 2 476 1
	.cfi_startproc
	endbr64
	pushq	%rbp
	.cfi_def_cfa_offset 16
	.cfi_offset 6, -16
	movq	%rsp, %rbp
	.cfi_def_cfa_register 6
	pushq	%rbx
	subq	$40, %rsp
	.cfi_offset 3, -24
	movq	%rdi, -40(%rbp)
	movq	%rsi, -48(%rbp)
	.loc 2 477 36
	movl	$4, %esi
	movl	$2, %edi
	call	calloc@PLT
	movq	%rax, -24(%rbp)
	.loc 2 479 10
	movq	-40(%rbp), %rdx
	movq	-24(%rbp), %rax
	movq	%rdx, %rcx
	movl	$2, %edx
	movl	$4, %esi
	movq	%rax, %rdi
	call	fread@PLT
	.loc 2 481 16
	movq	-24(%rbp), %rax
	cmpq	$0, -24(%rbp)
	je	.L718
	movq	%rax, %rdx
	andl	$3, %edx
	testq	%rdx, %rdx
	je	.L719
.L718:
	movq	%rax, %rsi
	leaq	.Lubsan_data838(%rip), %rax
	movq	%rax, %rdi
	call	__ubsan_handle_type_mismatch_v1@PLT
.L719:
	movq	-24(%rbp), %rax
	movq	%rax, %rdx
	shrq	$3, %rdx
	addq	$2147450880, %rdx
	movzbl	(%rdx), %edx
	testb	%dl, %dl
	setne	%sil
	movq	%rax, %rcx
	andl	$7, %ecx
	addl	$3, %ecx
	cmpb	%dl, %cl
	setge	%dl
	andl	%esi, %edx
	testb	%dl, %dl
	je	.L720
	movq	%rax, %rdi
	call	__asan_report_load4@PLT
.L720:
	movq	-24(%rbp), %rax
	movl	(%rax), %eax
	.loc 2 481 6
	cmpl	$20547, %eax
	je	.L721
	.loc 2 481 33 discriminator 1
	call	__asan_handle_no_return@PLT
	leaq	.LC57(%rip), %rax
	movq	%rax, %rcx
	movl	$481, %edx
	leaq	.LC0(%rip), %rax
	movq	%rax, %rsi
	leaq	.LC58(%rip), %rax
	movq	%rax, %rdi
	call	__assert_fail@PLT
.L721:
	.loc 2 482 16
	movq	-24(%rbp), %rax
	leaq	4(%rax), %rdx
	cmpq	$-4, %rax
	jb	.L722
	movq	-24(%rbp), %rax
	movq	%rax, %rsi
	leaq	.Lubsan_data839(%rip), %rax
	movq	%rax, %rdi
	call	__ubsan_handle_pointer_overflow@PLT
.L722:
	movq	-24(%rbp), %rax
	leaq	4(%rax), %rbx
	movq	%rbx, %rax
	testq	%rbx, %rbx
	je	.L723
	movq	%rax, %rdx
	andl	$3, %edx
	testq	%rdx, %rdx
	je	.L724
.L723:
	movq	%rax, %rsi
	leaq	.Lubsan_data840(%rip), %rax
	movq	%rax, %rdi
	call	__ubsan_handle_type_mismatch_v1@PLT
.L724:
	movq	%rbx, %rax
	movq	%rax, %rdx
	shrq	$3, %rdx
	addq	$2147450880, %rdx
	movzbl	(%rdx), %edx
	testb	%dl, %dl
	setne	%sil
	movq	%rax, %rcx
	andl	$7, %ecx
	addl	$3, %ecx
	cmpb	%dl, %cl
	setge	%dl
	andl	%esi, %edx
	testb	%dl, %dl
	je	.L725
	movq	%rax, %rdi
	call	__asan_report_load4@PLT
.L725:
	movl	(%rbx), %eax
	.loc 2 482 6
	cmpl	$1, %eax
	je	.L726
	.loc 2 482 33 discriminator 1
	call	__asan_handle_no_return@PLT
	leaq	.LC57(%rip), %rax
	movq	%rax, %rcx
	movl	$482, %edx
	leaq	.LC0(%rip), %rax
	movq	%rax, %rsi
	leaq	.LC59(%rip), %rax
	movq	%rax, %rdi
	call	__assert_fail@PLT
.L726:
	.loc 2 484 9
	movq	-24(%rbp), %rax
	movq	%rax, %rdi
	call	free@PLT
	.loc 2 485 1
	nop
	movq	-8(%rbp), %rbx
	leave
	.cfi_def_cfa 7, 8
	ret
	.cfi_endproc
.LFE1123:
	.size	_Z25check_executable_bin_fileP8_IO_FILEP10Cpu_struct, .-_Z25check_executable_bin_fileP8_IO_FILEP10Cpu_struct
	.section	.data.rel.local
	.align 32
	.type	.Lubsan_data841, @object
	.size	.Lubsan_data841, 32
.Lubsan_data841:
	.quad	.LC0
	.long	495
	.long	15
	.quad	.Lubsan_type6
	.byte	3
	.byte	3
	.zero	6
	.zero	32
	.align 32
	.type	.Lubsan_data842, @object
	.size	.Lubsan_data842, 16
.Lubsan_data842:
	.quad	.LC0
	.long	495
	.long	15
	.zero	48
	.align 32
	.type	.Lubsan_data843, @object
	.size	.Lubsan_data843, 32
.Lubsan_data843:
	.quad	.LC0
	.long	497
	.long	42
	.quad	.Lubsan_type6
	.byte	3
	.byte	3
	.zero	6
	.zero	32
	.align 32
	.type	.Lubsan_data844, @object
	.size	.Lubsan_data844, 16
.Lubsan_data844:
	.quad	.LC0
	.long	497
	.long	42
	.zero	48
	.align 32
	.type	.Lubsan_data845, @object
	.size	.Lubsan_data845, 32
.Lubsan_data845:
	.quad	.LC0
	.long	497
	.long	21
	.quad	.Lubsan_type6
	.byte	3
	.byte	3
	.zero	6
	.zero	32
	.align 32
	.type	.Lubsan_data846, @object
	.size	.Lubsan_data846, 16
.Lubsan_data846:
	.quad	.LC0
	.long	497
	.long	21
	.zero	48
	.align 32
	.type	.Lubsan_data847, @object
	.size	.Lubsan_data847, 32
.Lubsan_data847:
	.quad	.LC0
	.long	499
	.long	46
	.quad	.Lubsan_type6
	.byte	3
	.byte	3
	.zero	6
	.zero	32
	.align 32
	.type	.Lubsan_data848, @object
	.size	.Lubsan_data848, 16
.Lubsan_data848:
	.quad	.LC0
	.long	499
	.long	46
	.zero	48
	.align 32
	.type	.Lubsan_data849, @object
	.size	.Lubsan_data849, 32
.Lubsan_data849:
	.quad	.LC0
	.long	499
	.long	16
	.quad	.Lubsan_type6
	.byte	3
	.byte	3
	.zero	6
	.zero	32
	.align 32
	.type	.Lubsan_data850, @object
	.size	.Lubsan_data850, 16
.Lubsan_data850:
	.quad	.LC0
	.long	499
	.long	16
	.zero	48
	.section	.rodata
	.align 32
.LC60:
	.string	"void fill_cpu_struct_bin(FILE*, Cpu_struct*, const char*)"
	.zero	38
	.align 32
.LC61:
	.string	"exec_file_bin != NULL"
	.zero	42
	.align 32
.LC62:
	.string	"cpu != NULL"
	.zero	52
	.align 32
.LC63:
	.string	"path_to_bin_file != NULL"
	.zero	39
	.text
	.globl	_Z19fill_cpu_struct_binP8_IO_FILEP10Cpu_structPKc
	.type	_Z19fill_cpu_struct_binP8_IO_FILEP10Cpu_structPKc, @function
_Z19fill_cpu_struct_binP8_IO_FILEP10Cpu_structPKc:
.LASANPC1124:
.LFB1124:
	.loc 2 488 1
	.cfi_startproc
	endbr64
	pushq	%rbp
	.cfi_def_cfa_offset 16
	.cfi_offset 6, -16
	movq	%rsp, %rbp
	.cfi_def_cfa_register 6
	pushq	%rbx
	subq	$40, %rsp
	.cfi_offset 3, -24
	movq	%rdi, -24(%rbp)
	movq	%rsi, -32(%rbp)
	movq	%rdx, -40(%rbp)
	.loc 2 489 12
	cmpq	$0, -24(%rbp)
	jne	.L728
	.loc 2 489 39 discriminator 1
	call	__asan_handle_no_return@PLT
	leaq	.LC60(%rip), %rax
	movq	%rax, %rcx
	movl	$489, %edx
	leaq	.LC0(%rip), %rax
	movq	%rax, %rsi
	leaq	.LC61(%rip), %rax
	movq	%rax, %rdi
	call	__assert_fail@PLT
.L728:
	.loc 2 490 12
	cmpq	$0, -32(%rbp)
	jne	.L729
	.loc 2 490 39 discriminator 1
	call	__asan_handle_no_return@PLT
	leaq	.LC60(%rip), %rax
	movq	%rax, %rcx
	movl	$490, %edx
	leaq	.LC0(%rip), %rax
	movq	%rax, %rsi
	leaq	.LC62(%rip), %rax
	movq	%rax, %rdi
	call	__assert_fail@PLT
.L729:
	.loc 2 491 12
	cmpq	$0, -40(%rbp)
	jne	.L730
	.loc 2 491 39 discriminator 1
	call	__asan_handle_no_return@PLT
	leaq	.LC60(%rip), %rax
	movq	%rax, %rcx
	movl	$491, %edx
	leaq	.LC0(%rip), %rax
	movq	%rax, %rsi
	leaq	.LC63(%rip), %rax
	movq	%rax, %rdi
	call	__assert_fail@PLT
.L730:
	.loc 2 493 25
	movq	-32(%rbp), %rdx
	movq	-24(%rbp), %rax
	movq	%rdx, %rsi
	movq	%rax, %rdi
	call	_Z20find_num_of_commandsP8_IO_FILEP10Cpu_struct
	.loc 2 495 15
	movq	-32(%rbp), %rax
	cmpq	$0, -32(%rbp)
	je	.L731
	movq	%rax, %rdx
	andl	$7, %edx
	testq	%rdx, %rdx
	je	.L732
.L731:
	movq	%rax, %rsi
	leaq	.Lubsan_data841(%rip), %rax
	movq	%rax, %rdi
	call	__ubsan_handle_type_mismatch_v1@PLT
.L732:
	movq	-32(%rbp), %rax
	leaq	16(%rax), %rdx
	cmpq	$-16, %rax
	jb	.L733
	movq	-32(%rbp), %rax
	movq	%rax, %rsi
	leaq	.Lubsan_data842(%rip), %rax
	movq	%rax, %rdi
	call	__ubsan_handle_pointer_overflow@PLT
.L733:
	movq	-32(%rbp), %rax
	addq	$16, %rax
	movq	%rax, %rdx
	shrq	$3, %rdx
	addq	$2147450880, %rdx
	movzbl	(%rdx), %edx
	testb	%dl, %dl
	je	.L734
	movq	%rax, %rdi
	call	__asan_report_store8@PLT
.L734:
	movq	-32(%rbp), %rax
	movq	$0, 16(%rax)
	.loc 2 497 42
	movq	-32(%rbp), %rax
	cmpq	$0, -32(%rbp)
	je	.L735
	movq	%rax, %rdx
	andl	$7, %edx
	testq	%rdx, %rdx
	je	.L736
.L735:
	movq	%rax, %rsi
	leaq	.Lubsan_data843(%rip), %rax
	movq	%rax, %rdi
	call	__ubsan_handle_type_mismatch_v1@PLT
.L736:
	movq	-32(%rbp), %rax
	leaq	24(%rax), %rdx
	cmpq	$-24, %rax
	jb	.L737
	movq	-32(%rbp), %rax
	movq	%rax, %rsi
	leaq	.Lubsan_data844(%rip), %rax
	movq	%rax, %rdi
	call	__ubsan_handle_pointer_overflow@PLT
.L737:
	movq	-32(%rbp), %rax
	addq	$24, %rax
	movq	%rax, %rdx
	shrq	$3, %rdx
	addq	$2147450880, %rdx
	movzbl	(%rdx), %edx
	testb	%dl, %dl
	je	.L738
	movq	%rax, %rdi
	call	__asan_report_load8@PLT
.L738:
	movq	-32(%rbp), %rax
	movq	24(%rax), %rax
	.loc 2 497 36
	movl	$4, %esi
	movq	%rax, %rdi
	call	calloc@PLT
	movq	%rax, %rbx
	.loc 2 497 21
	movq	-32(%rbp), %rax
	cmpq	$0, -32(%rbp)
	je	.L739
	movq	%rax, %rdx
	andl	$7, %edx
	testq	%rdx, %rdx
	je	.L740
.L739:
	movq	%rax, %rsi
	leaq	.Lubsan_data845(%rip), %rax
	movq	%rax, %rdi
	call	__ubsan_handle_type_mismatch_v1@PLT
.L740:
	movq	-32(%rbp), %rax
	leaq	136(%rax), %rdx
	cmpq	$-136, %rax
	jb	.L741
	movq	-32(%rbp), %rax
	movq	%rax, %rsi
	leaq	.Lubsan_data846(%rip), %rax
	movq	%rax, %rdi
	call	__ubsan_handle_pointer_overflow@PLT
.L741:
	movq	-32(%rbp), %rax
	addq	$136, %rax
	movq	%rax, %rdx
	shrq	$3, %rdx
	addq	$2147450880, %rdx
	movzbl	(%rdx), %edx
	testb	%dl, %dl
	je	.L742
	movq	%rax, %rdi
	call	__asan_report_store8@PLT
.L742:
	movq	-32(%rbp), %rax
	movq	%rbx, 136(%rax)
	.loc 2 499 46
	movq	-32(%rbp), %rax
	cmpq	$0, -32(%rbp)
	je	.L743
	movq	%rax, %rdx
	andl	$7, %edx
	testq	%rdx, %rdx
	je	.L744
.L743:
	movq	%rax, %rsi
	leaq	.Lubsan_data847(%rip), %rax
	movq	%rax, %rdi
	call	__ubsan_handle_type_mismatch_v1@PLT
.L744:
	movq	-32(%rbp), %rax
	leaq	24(%rax), %rdx
	cmpq	$-24, %rax
	jb	.L745
	movq	-32(%rbp), %rax
	movq	%rax, %rsi
	leaq	.Lubsan_data848(%rip), %rax
	movq	%rax, %rdi
	call	__ubsan_handle_pointer_overflow@PLT
.L745:
	movq	-32(%rbp), %rax
	movq	24(%rax), %rax
	.loc 2 499 10
	movq	%rax, %rbx
	.loc 2 499 16
	movq	-32(%rbp), %rax
	cmpq	$0, -32(%rbp)
	je	.L746
	movq	%rax, %rdx
	andl	$7, %edx
	testq	%rdx, %rdx
	je	.L747
.L746:
	movq	%rax, %rsi
	leaq	.Lubsan_data849(%rip), %rax
	movq	%rax, %rdi
	call	__ubsan_handle_type_mismatch_v1@PLT
.L747:
	movq	-32(%rbp), %rax
	leaq	136(%rax), %rdx
	cmpq	$-136, %rax
	jb	.L748
	movq	-32(%rbp), %rax
	movq	%rax, %rsi
	leaq	.Lubsan_data850(%rip), %rax
	movq	%rax, %rdi
	call	__ubsan_handle_pointer_overflow@PLT
.L748:
	movq	-32(%rbp), %rax
	movq	136(%rax), %rax
	.loc 2 499 10
	movq	-24(%rbp), %rdx
	movq	%rdx, %rcx
	movq	%rbx, %rdx
	movl	$4, %esi
	movq	%rax, %rdi
	call	fread@PLT
	.loc 2 500 1
	nop
	movq	-8(%rbp), %rbx
	leave
	.cfi_def_cfa 7, 8
	ret
	.cfi_endproc
.LFE1124:
	.size	_Z19fill_cpu_struct_binP8_IO_FILEP10Cpu_structPKc, .-_Z19fill_cpu_struct_binP8_IO_FILEP10Cpu_structPKc
	.section	.data.rel.local
	.align 32
	.type	.Lubsan_data851, @object
	.size	.Lubsan_data851, 32
.Lubsan_data851:
	.quad	.LC0
	.long	511
	.long	40
	.quad	.Lubsan_type7
	.byte	2
	.byte	0
	.zero	6
	.zero	32
	.align 32
	.type	.Lubsan_data852, @object
	.size	.Lubsan_data852, 32
.Lubsan_data852:
	.quad	.LC0
	.long	511
	.long	26
	.quad	.Lubsan_type6
	.byte	3
	.byte	3
	.zero	6
	.zero	32
	.align 32
	.type	.Lubsan_data853, @object
	.size	.Lubsan_data853, 16
.Lubsan_data853:
	.quad	.LC0
	.long	511
	.long	26
	.zero	48
	.section	.rodata
	.align 32
.LC64:
	.string	"void find_num_of_commands(FILE*, Cpu_struct*)"
	.zero	50
	.text
	.globl	_Z20find_num_of_commandsP8_IO_FILEP10Cpu_struct
	.type	_Z20find_num_of_commandsP8_IO_FILEP10Cpu_struct, @function
_Z20find_num_of_commandsP8_IO_FILEP10Cpu_struct:
.LASANPC1125:
.LFB1125:
	.loc 2 503 1
	.cfi_startproc
	endbr64
	pushq	%rbp
	.cfi_def_cfa_offset 16
	.cfi_offset 6, -16
	movq	%rsp, %rbp
	.cfi_def_cfa_register 6
	pushq	%rbx
	subq	$40, %rsp
	.cfi_offset 3, -24
	movq	%rdi, -40(%rbp)
	movq	%rsi, -48(%rbp)
	.loc 2 504 36
	movl	$4, %esi
	movl	$1, %edi
	call	calloc@PLT
	movq	%rax, -24(%rbp)
	.loc 2 505 12
	cmpq	$0, -24(%rbp)
	jne	.L750
	.loc 2 505 39 discriminator 1
	call	__asan_handle_no_return@PLT
	leaq	.LC64(%rip), %rax
	movq	%rax, %rcx
	movl	$505, %edx
	leaq	.LC0(%rip), %rax
	movq	%rax, %rsi
	leaq	.LC4(%rip), %rax
	movq	%rax, %rdi
	call	__assert_fail@PLT
.L750:
	.loc 2 507 9
	movl	$0, -28(%rbp)
	.loc 2 508 23
	movq	-40(%rbp), %rdx
	movq	-24(%rbp), %rax
	movq	%rdx, %rcx
	movl	$1, %edx
	movl	$4, %esi
	movq	%rax, %rdi
	call	fread@PLT
	.loc 2 508 16
	movl	%eax, -28(%rbp)
	.loc 2 509 6
	cmpl	$0, -28(%rbp)
	jne	.L751
	.loc 2 509 33 discriminator 1
	call	__asan_handle_no_return@PLT
	leaq	.LC64(%rip), %rax
	movq	%rax, %rcx
	movl	$509, %edx
	leaq	.LC0(%rip), %rax
	movq	%rax, %rsi
	leaq	.LC16(%rip), %rax
	movq	%rax, %rdi
	call	__assert_fail@PLT
.L751:
	.loc 2 511 40
	movq	-24(%rbp), %rax
	cmpq	$0, -24(%rbp)
	je	.L752
	movq	%rax, %rdx
	andl	$3, %edx
	testq	%rdx, %rdx
	je	.L753
.L752:
	movq	%rax, %rsi
	leaq	.Lubsan_data851(%rip), %rax
	movq	%rax, %rdi
	call	__ubsan_handle_type_mismatch_v1@PLT
.L753:
	movq	-24(%rbp), %rax
	movq	%rax, %rdx
	shrq	$3, %rdx
	addq	$2147450880, %rdx
	movzbl	(%rdx), %edx
	testb	%dl, %dl
	setne	%sil
	movq	%rax, %rcx
	andl	$7, %ecx
	addl	$3, %ecx
	cmpb	%dl, %cl
	setge	%dl
	andl	%esi, %edx
	testb	%dl, %dl
	je	.L754
	movq	%rax, %rdi
	call	__asan_report_load4@PLT
.L754:
	movq	-24(%rbp), %rax
	movl	(%rax), %eax
	movslq	%eax, %rbx
	.loc 2 511 26
	movq	-48(%rbp), %rax
	cmpq	$0, -48(%rbp)
	je	.L755
	movq	%rax, %rdx
	andl	$7, %edx
	testq	%rdx, %rdx
	je	.L756
.L755:
	movq	%rax, %rsi
	leaq	.Lubsan_data852(%rip), %rax
	movq	%rax, %rdi
	call	__ubsan_handle_type_mismatch_v1@PLT
.L756:
	movq	-48(%rbp), %rax
	leaq	24(%rax), %rdx
	cmpq	$-24, %rax
	jb	.L757
	movq	-48(%rbp), %rax
	movq	%rax, %rsi
	leaq	.Lubsan_data853(%rip), %rax
	movq	%rax, %rdi
	call	__ubsan_handle_pointer_overflow@PLT
.L757:
	movq	-48(%rbp), %rax
	addq	$24, %rax
	movq	%rax, %rdx
	shrq	$3, %rdx
	addq	$2147450880, %rdx
	movzbl	(%rdx), %edx
	testb	%dl, %dl
	je	.L758
	movq	%rax, %rdi
	call	__asan_report_store8@PLT
.L758:
	movq	-48(%rbp), %rax
	movq	%rbx, 24(%rax)
	.loc 2 513 9
	movq	-24(%rbp), %rax
	movq	%rax, %rdi
	call	free@PLT
	.loc 2 514 1
	nop
	movq	-8(%rbp), %rbx
	leave
	.cfi_def_cfa 7, 8
	ret
	.cfi_endproc
.LFE1125:
	.size	_Z20find_num_of_commandsP8_IO_FILEP10Cpu_struct, .-_Z20find_num_of_commandsP8_IO_FILEP10Cpu_struct
	.section	.data.rel.local
	.align 32
	.type	.Lubsan_data854, @object
	.size	.Lubsan_data854, 32
.Lubsan_data854:
	.quad	.LC0
	.long	518
	.long	15
	.quad	.Lubsan_type6
	.byte	3
	.byte	3
	.zero	6
	.zero	32
	.align 32
	.type	.Lubsan_data855, @object
	.size	.Lubsan_data855, 16
.Lubsan_data855:
	.quad	.LC0
	.long	518
	.long	15
	.zero	48
	.text
	.globl	_Z13dtor_exec_binP10Cpu_struct
	.type	_Z13dtor_exec_binP10Cpu_struct, @function
_Z13dtor_exec_binP10Cpu_struct:
.LASANPC1126:
.LFB1126:
	.loc 2 517 1
	.cfi_startproc
	endbr64
	pushq	%rbp
	.cfi_def_cfa_offset 16
	.cfi_offset 6, -16
	movq	%rsp, %rbp
	.cfi_def_cfa_register 6
	subq	$16, %rsp
	movq	%rdi, -8(%rbp)
	.loc 2 518 15
	movq	-8(%rbp), %rax
	cmpq	$0, -8(%rbp)
	je	.L760
	movq	%rax, %rdx
	andl	$7, %edx
	testq	%rdx, %rdx
	je	.L761
.L760:
	movq	%rax, %rsi
	leaq	.Lubsan_data854(%rip), %rax
	movq	%rax, %rdi
	call	__ubsan_handle_type_mismatch_v1@PLT
.L761:
	movq	-8(%rbp), %rax
	leaq	136(%rax), %rdx
	cmpq	$-136, %rax
	jb	.L762
	movq	-8(%rbp), %rax
	movq	%rax, %rsi
	leaq	.Lubsan_data855(%rip), %rax
	movq	%rax, %rdi
	call	__ubsan_handle_pointer_overflow@PLT
.L762:
	movq	-8(%rbp), %rax
	addq	$136, %rax
	movq	%rax, %rdx
	shrq	$3, %rdx
	addq	$2147450880, %rdx
	movzbl	(%rdx), %edx
	testb	%dl, %dl
	je	.L763
	movq	%rax, %rdi
	call	__asan_report_load8@PLT
.L763:
	movq	-8(%rbp), %rax
	movq	136(%rax), %rax
	.loc 2 518 9
	movq	%rax, %rdi
	call	free@PLT
	.loc 2 519 1
	nop
	leave
	.cfi_def_cfa 7, 8
	ret
	.cfi_endproc
.LFE1126:
	.size	_Z13dtor_exec_binP10Cpu_struct, .-_Z13dtor_exec_binP10Cpu_struct
	.section	.data.rel.local
	.align 32
	.type	.Lubsan_data592, @object
	.size	.Lubsan_data592, 40
.Lubsan_data592:
	.quad	.LC0
	.long	35
	.long	10
	.quad	0
	.long	0
	.long	0
	.long	1
	.zero	4
	.zero	56
	.align 32
	.type	.Lubsan_data593, @object
	.size	.Lubsan_data593, 40
.Lubsan_data593:
	.quad	.LC0
	.long	35
	.long	10
	.quad	0
	.long	0
	.long	0
	.long	2
	.zero	4
	.zero	56
	.align 32
	.type	.Lubsan_data594, @object
	.size	.Lubsan_data594, 40
.Lubsan_data594:
	.quad	.LC0
	.long	49
	.long	9
	.quad	0
	.long	0
	.long	0
	.long	1
	.zero	4
	.zero	56
	.align 32
	.type	.Lubsan_data597, @object
	.size	.Lubsan_data597, 40
.Lubsan_data597:
	.quad	.LC0
	.long	89
	.long	15
	.quad	0
	.long	0
	.long	0
	.long	2
	.zero	4
	.zero	56
	.align 32
	.type	.Lubsan_data598, @object
	.size	.Lubsan_data598, 40
.Lubsan_data598:
	.quad	.LC0
	.long	124
	.long	12
	.quad	0
	.long	0
	.long	0
	.long	1
	.zero	4
	.zero	56
	.align 32
	.type	.Lubsan_data599, @object
	.size	.Lubsan_data599, 40
.Lubsan_data599:
	.quad	.LC0
	.long	124
	.long	12
	.quad	0
	.long	0
	.long	0
	.long	2
	.zero	4
	.zero	56
	.align 32
	.type	.Lubsan_data600, @object
	.size	.Lubsan_data600, 40
.Lubsan_data600:
	.quad	.LC0
	.long	126
	.long	10
	.quad	0
	.long	0
	.long	0
	.long	1
	.zero	4
	.zero	56
	.align 32
	.type	.Lubsan_data601, @object
	.size	.Lubsan_data601, 40
.Lubsan_data601:
	.quad	.LC0
	.long	126
	.long	10
	.quad	0
	.long	0
	.long	0
	.long	4
	.zero	4
	.zero	56
	.align 32
	.type	.Lubsan_data602, @object
	.size	.Lubsan_data602, 40
.Lubsan_data602:
	.quad	.LC0
	.long	129
	.long	20
	.quad	0
	.long	0
	.long	0
	.long	1
	.zero	4
	.zero	56
	.align 32
	.type	.Lubsan_data603, @object
	.size	.Lubsan_data603, 40
.Lubsan_data603:
	.quad	.LC0
	.long	129
	.long	20
	.quad	0
	.long	0
	.long	0
	.long	2
	.zero	4
	.zero	56
	.align 32
	.type	.Lubsan_data604, @object
	.size	.Lubsan_data604, 40
.Lubsan_data604:
	.quad	.LC0
	.long	132
	.long	20
	.quad	0
	.long	0
	.long	0
	.long	1
	.zero	4
	.zero	56
	.align 32
	.type	.Lubsan_data605, @object
	.size	.Lubsan_data605, 40
.Lubsan_data605:
	.quad	.LC0
	.long	132
	.long	20
	.quad	0
	.long	0
	.long	0
	.long	2
	.zero	4
	.zero	56
	.align 32
	.type	.Lubsan_data606, @object
	.size	.Lubsan_data606, 40
.Lubsan_data606:
	.quad	.LC0
	.long	135
	.long	20
	.quad	0
	.long	0
	.long	0
	.long	1
	.zero	4
	.zero	56
	.align 32
	.type	.Lubsan_data607, @object
	.size	.Lubsan_data607, 40
.Lubsan_data607:
	.quad	.LC0
	.long	135
	.long	20
	.quad	0
	.long	0
	.long	0
	.long	2
	.zero	4
	.zero	56
	.align 32
	.type	.Lubsan_data608, @object
	.size	.Lubsan_data608, 40
.Lubsan_data608:
	.quad	.LC0
	.long	138
	.long	10
	.quad	0
	.long	0
	.long	0
	.long	1
	.zero	4
	.zero	56
	.align 32
	.type	.Lubsan_data609, @object
	.size	.Lubsan_data609, 40
.Lubsan_data609:
	.quad	.LC0
	.long	138
	.long	10
	.quad	0
	.long	0
	.long	0
	.long	4
	.zero	4
	.zero	56
	.align 32
	.type	.Lubsan_data610, @object
	.size	.Lubsan_data610, 40
.Lubsan_data610:
	.quad	.LC0
	.long	141
	.long	16
	.quad	0
	.long	0
	.long	0
	.long	1
	.zero	4
	.zero	56
	.align 32
	.type	.Lubsan_data611, @object
	.size	.Lubsan_data611, 40
.Lubsan_data611:
	.quad	.LC0
	.long	141
	.long	16
	.quad	0
	.long	0
	.long	0
	.long	2
	.zero	4
	.zero	56
	.align 32
	.type	.Lubsan_data612, @object
	.size	.Lubsan_data612, 40
.Lubsan_data612:
	.quad	.LC0
	.long	150
	.long	10
	.quad	0
	.long	0
	.long	0
	.long	1
	.zero	4
	.zero	56
	.align 32
	.type	.Lubsan_data613, @object
	.size	.Lubsan_data613, 40
.Lubsan_data613:
	.quad	.LC0
	.long	150
	.long	10
	.quad	0
	.long	0
	.long	0
	.long	4
	.zero	4
	.zero	56
	.align 32
	.type	.Lubsan_data614, @object
	.size	.Lubsan_data614, 40
.Lubsan_data614:
	.quad	.LC0
	.long	154
	.long	20
	.quad	0
	.long	0
	.long	0
	.long	1
	.zero	4
	.zero	56
	.align 32
	.type	.Lubsan_data615, @object
	.size	.Lubsan_data615, 40
.Lubsan_data615:
	.quad	.LC0
	.long	154
	.long	20
	.quad	0
	.long	0
	.long	0
	.long	2
	.zero	4
	.zero	56
	.align 32
	.type	.Lubsan_data616, @object
	.size	.Lubsan_data616, 40
.Lubsan_data616:
	.quad	.LC0
	.long	156
	.long	20
	.quad	0
	.long	0
	.long	0
	.long	1
	.zero	4
	.zero	56
	.align 32
	.type	.Lubsan_data617, @object
	.size	.Lubsan_data617, 40
.Lubsan_data617:
	.quad	.LC0
	.long	156
	.long	20
	.quad	0
	.long	0
	.long	0
	.long	2
	.zero	4
	.zero	56
	.align 32
	.type	.Lubsan_data618, @object
	.size	.Lubsan_data618, 40
.Lubsan_data618:
	.quad	.LC0
	.long	161
	.long	10
	.quad	0
	.long	0
	.long	0
	.long	1
	.zero	4
	.zero	56
	.align 32
	.type	.Lubsan_data619, @object
	.size	.Lubsan_data619, 40
.Lubsan_data619:
	.quad	.LC0
	.long	161
	.long	10
	.quad	0
	.long	0
	.long	0
	.long	4
	.zero	4
	.zero	56
	.align 32
	.type	.Lubsan_data620, @object
	.size	.Lubsan_data620, 40
.Lubsan_data620:
	.quad	.LC0
	.long	165
	.long	20
	.quad	0
	.long	0
	.long	0
	.long	1
	.zero	4
	.zero	56
	.align 32
	.type	.Lubsan_data621, @object
	.size	.Lubsan_data621, 40
.Lubsan_data621:
	.quad	.LC0
	.long	165
	.long	20
	.quad	0
	.long	0
	.long	0
	.long	2
	.zero	4
	.zero	56
	.align 32
	.type	.Lubsan_data622, @object
	.size	.Lubsan_data622, 40
.Lubsan_data622:
	.quad	.LC0
	.long	167
	.long	20
	.quad	0
	.long	0
	.long	0
	.long	1
	.zero	4
	.zero	56
	.align 32
	.type	.Lubsan_data623, @object
	.size	.Lubsan_data623, 40
.Lubsan_data623:
	.quad	.LC0
	.long	167
	.long	20
	.quad	0
	.long	0
	.long	0
	.long	2
	.zero	4
	.zero	56
	.align 32
	.type	.Lubsan_data624, @object
	.size	.Lubsan_data624, 40
.Lubsan_data624:
	.quad	.LC0
	.long	170
	.long	10
	.quad	0
	.long	0
	.long	0
	.long	1
	.zero	4
	.zero	56
	.align 32
	.type	.Lubsan_data625, @object
	.size	.Lubsan_data625, 40
.Lubsan_data625:
	.quad	.LC0
	.long	170
	.long	10
	.quad	0
	.long	0
	.long	0
	.long	4
	.zero	4
	.zero	56
	.align 32
	.type	.Lubsan_data626, @object
	.size	.Lubsan_data626, 40
.Lubsan_data626:
	.quad	.LC0
	.long	174
	.long	20
	.quad	0
	.long	0
	.long	0
	.long	1
	.zero	4
	.zero	56
	.align 32
	.type	.Lubsan_data627, @object
	.size	.Lubsan_data627, 40
.Lubsan_data627:
	.quad	.LC0
	.long	174
	.long	20
	.quad	0
	.long	0
	.long	0
	.long	2
	.zero	4
	.zero	56
	.align 32
	.type	.Lubsan_data628, @object
	.size	.Lubsan_data628, 40
.Lubsan_data628:
	.quad	.LC0
	.long	299
	.long	18
	.quad	0
	.long	0
	.long	0
	.long	1
	.zero	4
	.zero	56
	.align 32
	.type	.Lubsan_data629, @object
	.size	.Lubsan_data629, 40
.Lubsan_data629:
	.quad	.LC0
	.long	308
	.long	20
	.quad	0
	.long	0
	.long	0
	.long	1
	.zero	4
	.zero	56
	.align 32
	.type	.Lubsan_data630, @object
	.size	.Lubsan_data630, 40
.Lubsan_data630:
	.quad	.LC0
	.long	308
	.long	20
	.quad	0
	.long	0
	.long	0
	.long	2
	.zero	4
	.zero	56
	.align 32
	.type	.Lubsan_data631, @object
	.size	.Lubsan_data631, 40
.Lubsan_data631:
	.quad	.LC0
	.long	309
	.long	20
	.quad	0
	.long	0
	.long	0
	.long	1
	.zero	4
	.zero	56
	.align 32
	.type	.Lubsan_data632, @object
	.size	.Lubsan_data632, 40
.Lubsan_data632:
	.quad	.LC0
	.long	309
	.long	20
	.quad	0
	.long	0
	.long	0
	.long	2
	.zero	4
	.zero	56
	.section	.rodata
.LC65:
	.string	"src/../include/cpu.h"
	.section	.data.rel.local
	.align 16
	.type	.LASANLOC1, @object
	.size	.LASANLOC1, 16
.LASANLOC1:
	.quad	.LC65
	.long	1
	.long	11
	.section	.rodata
	.align 8
.LC66:
	.string	"src/../include/stack_objects.h"
	.section	.data.rel.local
	.align 16
	.type	.LASANLOC2, @object
	.size	.LASANLOC2, 16
.LASANLOC2:
	.quad	.LC66
	.long	16
	.long	14
	.align 16
	.type	.LASANLOC3, @object
	.size	.LASANLOC3, 16
.LASANLOC3:
	.quad	.LC66
	.long	15
	.long	14
	.section	.rodata
.LC67:
	.string	"src/../include/asm.h"
	.section	.data.rel.local
	.align 16
	.type	.LASANLOC4, @object
	.size	.LASANLOC4, 16
.LASANLOC4:
	.quad	.LC67
	.long	82
	.long	11
	.align 16
	.type	.LASANLOC5, @object
	.size	.LASANLOC5, 16
.LASANLOC5:
	.quad	.LC67
	.long	25
	.long	11
	.align 16
	.type	.LASANLOC6, @object
	.size	.LASANLOC6, 16
.LASANLOC6:
	.quad	.LC67
	.long	23
	.long	11
	.section	.rodata
.LC68:
	.string	"*.Lubsan_data855"
.LC69:
	.string	"*.Lubsan_data854"
.LC70:
	.string	"*.Lubsan_data853"
.LC71:
	.string	"*.Lubsan_data852"
.LC72:
	.string	"*.Lubsan_data851"
.LC73:
	.string	"*.Lubsan_data850"
.LC74:
	.string	"*.Lubsan_data849"
.LC75:
	.string	"*.Lubsan_data848"
.LC76:
	.string	"*.Lubsan_data847"
.LC77:
	.string	"*.Lubsan_data846"
.LC78:
	.string	"*.Lubsan_data845"
.LC79:
	.string	"*.Lubsan_data844"
.LC80:
	.string	"*.Lubsan_data843"
.LC81:
	.string	"*.Lubsan_data842"
.LC82:
	.string	"*.Lubsan_data841"
.LC83:
	.string	"*.Lubsan_data840"
.LC84:
	.string	"*.Lubsan_data839"
.LC85:
	.string	"*.Lubsan_data838"
.LC86:
	.string	"*.Lubsan_data837"
.LC87:
	.string	"*.Lubsan_data836"
.LC88:
	.string	"*.Lubsan_data835"
.LC89:
	.string	"*.Lubsan_data834"
.LC90:
	.string	"*.Lubsan_data833"
.LC91:
	.string	"*.Lubsan_data832"
.LC92:
	.string	"*.Lubsan_data831"
.LC93:
	.string	"*.Lubsan_data830"
.LC94:
	.string	"*.Lubsan_data829"
.LC95:
	.string	"*.Lubsan_data828"
.LC96:
	.string	"*.Lubsan_data827"
.LC97:
	.string	"*.Lubsan_data826"
.LC98:
	.string	"*.Lubsan_data825"
.LC99:
	.string	"*.Lubsan_data824"
.LC100:
	.string	"*.Lubsan_data823"
.LC101:
	.string	"*.Lubsan_data822"
.LC102:
	.string	"*.Lubsan_data821"
.LC103:
	.string	"*.Lubsan_data820"
.LC104:
	.string	"*.Lubsan_data819"
.LC105:
	.string	"*.Lubsan_data818"
.LC106:
	.string	"*.Lubsan_data817"
.LC107:
	.string	"*.Lubsan_data816"
.LC108:
	.string	"*.Lubsan_data815"
.LC109:
	.string	"*.Lubsan_data814"
.LC110:
	.string	"*.Lubsan_data813"
.LC111:
	.string	"*.Lubsan_data812"
.LC112:
	.string	"*.Lubsan_data811"
.LC113:
	.string	"*.Lubsan_data810"
.LC114:
	.string	"*.Lubsan_data809"
.LC115:
	.string	"*.Lubsan_data808"
.LC116:
	.string	"*.Lubsan_data807"
.LC117:
	.string	"*.Lubsan_data806"
.LC118:
	.string	"*.Lubsan_data805"
.LC119:
	.string	"*.Lubsan_data804"
.LC120:
	.string	"*.Lubsan_data803"
.LC121:
	.string	"*.Lubsan_data802"
.LC122:
	.string	"*.Lubsan_data801"
.LC123:
	.string	"*.Lubsan_data800"
.LC124:
	.string	"*.Lubsan_data799"
.LC125:
	.string	"*.Lubsan_data798"
.LC126:
	.string	"*.Lubsan_data797"
.LC127:
	.string	"*.Lubsan_data796"
.LC128:
	.string	"*.Lubsan_data795"
.LC129:
	.string	"*.Lubsan_data794"
.LC130:
	.string	"*.Lubsan_data793"
.LC131:
	.string	"*.Lubsan_data792"
.LC132:
	.string	"*.Lubsan_data791"
.LC133:
	.string	"*.Lubsan_data790"
.LC134:
	.string	"*.Lubsan_data789"
.LC135:
	.string	"*.Lubsan_data788"
.LC136:
	.string	"*.Lubsan_data787"
.LC137:
	.string	"*.Lubsan_data786"
.LC138:
	.string	"*.Lubsan_data785"
.LC139:
	.string	"*.Lubsan_data784"
.LC140:
	.string	"*.Lubsan_data783"
.LC141:
	.string	"*.Lubsan_data782"
.LC142:
	.string	"*.Lubsan_data781"
.LC143:
	.string	"*.Lubsan_data780"
.LC144:
	.string	"*.Lubsan_data779"
.LC145:
	.string	"*.Lubsan_data778"
.LC146:
	.string	"*.Lubsan_data777"
.LC147:
	.string	"*.Lubsan_data776"
.LC148:
	.string	"*.Lubsan_data775"
.LC149:
	.string	"*.Lubsan_data774"
.LC150:
	.string	"*.Lubsan_data773"
.LC151:
	.string	"*.Lubsan_data772"
.LC152:
	.string	"*.Lubsan_data771"
.LC153:
	.string	"*.Lubsan_data770"
.LC154:
	.string	"*.Lubsan_data769"
.LC155:
	.string	"*.Lubsan_data768"
.LC156:
	.string	"*.Lubsan_data767"
.LC157:
	.string	"*.Lubsan_data766"
.LC158:
	.string	"*.Lubsan_data765"
.LC159:
	.string	"*.Lubsan_data764"
.LC160:
	.string	"*.Lubsan_data763"
.LC161:
	.string	"*.Lubsan_data762"
.LC162:
	.string	"*.Lubsan_data761"
.LC163:
	.string	"*.Lubsan_data760"
.LC164:
	.string	"*.Lubsan_data759"
.LC165:
	.string	"*.Lubsan_data758"
.LC166:
	.string	"*.Lubsan_data757"
.LC167:
	.string	"*.Lubsan_data756"
.LC168:
	.string	"*.Lubsan_data755"
.LC169:
	.string	"*.Lubsan_data754"
.LC170:
	.string	"*.Lubsan_data753"
.LC171:
	.string	"*.Lubsan_data752"
.LC172:
	.string	"*.Lubsan_data751"
.LC173:
	.string	"*.Lubsan_data750"
.LC174:
	.string	"*.Lubsan_data749"
.LC175:
	.string	"*.Lubsan_data748"
.LC176:
	.string	"*.Lubsan_data747"
.LC177:
	.string	"*.Lubsan_data746"
.LC178:
	.string	"*.Lubsan_data745"
.LC179:
	.string	"*.Lubsan_data744"
.LC180:
	.string	"*.Lubsan_data743"
.LC181:
	.string	"*.Lubsan_data742"
.LC182:
	.string	"*.Lubsan_data741"
.LC183:
	.string	"*.Lubsan_data740"
.LC184:
	.string	"*.Lubsan_data739"
.LC185:
	.string	"*.Lubsan_data738"
.LC186:
	.string	"*.Lubsan_data737"
.LC187:
	.string	"*.Lubsan_data736"
.LC188:
	.string	"*.Lubsan_data735"
.LC189:
	.string	"*.Lubsan_data734"
.LC190:
	.string	"*.Lubsan_data733"
.LC191:
	.string	"*.Lubsan_data732"
.LC192:
	.string	"*.Lubsan_data731"
.LC193:
	.string	"*.Lubsan_data730"
.LC194:
	.string	"*.Lubsan_data729"
.LC195:
	.string	"*.Lubsan_data728"
.LC196:
	.string	"*.Lubsan_data727"
.LC197:
	.string	"*.Lubsan_data726"
.LC198:
	.string	"*.Lubsan_data725"
.LC199:
	.string	"*.Lubsan_data724"
.LC200:
	.string	"*.Lubsan_data723"
.LC201:
	.string	"*.Lubsan_data722"
.LC202:
	.string	"*.Lubsan_data721"
.LC203:
	.string	"*.Lubsan_data720"
.LC204:
	.string	"*.Lubsan_data719"
.LC205:
	.string	"*.Lubsan_data718"
.LC206:
	.string	"*.Lubsan_data717"
.LC207:
	.string	"*.Lubsan_data716"
.LC208:
	.string	"*.Lubsan_data715"
.LC209:
	.string	"*.Lubsan_data714"
.LC210:
	.string	"*.Lubsan_data713"
.LC211:
	.string	"*.Lubsan_data712"
.LC212:
	.string	"*.Lubsan_data711"
.LC213:
	.string	"*.Lubsan_data710"
.LC214:
	.string	"*.Lubsan_data709"
.LC215:
	.string	"*.Lubsan_data708"
.LC216:
	.string	"*.Lubsan_data707"
.LC217:
	.string	"*.Lubsan_type11"
.LC218:
	.string	"*.Lubsan_data706"
.LC219:
	.string	"*.Lubsan_data705"
.LC220:
	.string	"*.Lubsan_data704"
.LC221:
	.string	"*.Lubsan_data703"
.LC222:
	.string	"*.Lubsan_data702"
.LC223:
	.string	"*.Lubsan_data701"
.LC224:
	.string	"*.Lubsan_data700"
.LC225:
	.string	"*.Lubsan_data699"
.LC226:
	.string	"*.Lubsan_data698"
.LC227:
	.string	"*.Lubsan_data697"
.LC228:
	.string	"*.Lubsan_data696"
.LC229:
	.string	"*.Lubsan_data695"
.LC230:
	.string	"*.Lubsan_data694"
.LC231:
	.string	"*.Lubsan_data693"
.LC232:
	.string	"*.Lubsan_data692"
.LC233:
	.string	"*.Lubsan_data691"
.LC234:
	.string	"*.Lubsan_data690"
.LC235:
	.string	"*.Lubsan_type10"
.LC236:
	.string	"*.Lubsan_data689"
.LC237:
	.string	"*.Lubsan_data688"
.LC238:
	.string	"*.Lubsan_data687"
.LC239:
	.string	"*.Lubsan_type9"
.LC240:
	.string	"*.Lubsan_data686"
.LC241:
	.string	"*.Lubsan_data685"
.LC242:
	.string	"*.Lubsan_data684"
.LC243:
	.string	"*.Lubsan_type8"
.LC244:
	.string	"*.Lubsan_data683"
.LC245:
	.string	"*.Lubsan_data682"
.LC246:
	.string	"*.Lubsan_data681"
.LC247:
	.string	"*.Lubsan_data680"
.LC248:
	.string	"*.Lubsan_data679"
.LC249:
	.string	"*.Lubsan_data678"
.LC250:
	.string	"*.Lubsan_data677"
.LC251:
	.string	"*.Lubsan_data676"
.LC252:
	.string	"*.Lubsan_data675"
.LC253:
	.string	"*.Lubsan_data674"
.LC254:
	.string	"*.Lubsan_data673"
.LC255:
	.string	"*.Lubsan_data672"
.LC256:
	.string	"*.Lubsan_data671"
.LC257:
	.string	"*.Lubsan_data670"
.LC258:
	.string	"*.Lubsan_data669"
.LC259:
	.string	"*.Lubsan_data668"
.LC260:
	.string	"*.Lubsan_data667"
.LC261:
	.string	"*.Lubsan_data666"
.LC262:
	.string	"*.Lubsan_data665"
.LC263:
	.string	"*.Lubsan_type7"
.LC264:
	.string	"*.Lubsan_data664"
.LC265:
	.string	"*.Lubsan_data663"
.LC266:
	.string	"*.Lubsan_data662"
.LC267:
	.string	"*.Lubsan_data661"
.LC268:
	.string	"*.Lubsan_data660"
.LC269:
	.string	"*.Lubsan_data659"
.LC270:
	.string	"*.Lubsan_data658"
.LC271:
	.string	"*.Lubsan_data657"
.LC272:
	.string	"*.Lubsan_data656"
.LC273:
	.string	"*.Lubsan_data655"
.LC274:
	.string	"*.Lubsan_data654"
.LC275:
	.string	"*.Lubsan_data653"
.LC276:
	.string	"*.Lubsan_data652"
.LC277:
	.string	"*.Lubsan_data651"
.LC278:
	.string	"*.Lubsan_data650"
.LC279:
	.string	"*.Lubsan_data649"
.LC280:
	.string	"*.Lubsan_data648"
.LC281:
	.string	"*.Lubsan_data647"
.LC282:
	.string	"*.Lubsan_data646"
.LC283:
	.string	"*.Lubsan_data645"
.LC284:
	.string	"*.Lubsan_data644"
.LC285:
	.string	"*.Lubsan_data643"
.LC286:
	.string	"*.Lubsan_data642"
.LC287:
	.string	"*.Lubsan_data641"
.LC288:
	.string	"*.Lubsan_data640"
.LC289:
	.string	"*.Lubsan_data639"
.LC290:
	.string	"*.Lubsan_data638"
.LC291:
	.string	"*.Lubsan_data637"
.LC292:
	.string	"*.Lubsan_data636"
.LC293:
	.string	"*.Lubsan_data635"
.LC294:
	.string	"*.Lubsan_data634"
.LC295:
	.string	"*.Lubsan_type6"
.LC296:
	.string	"*.Lubsan_data633"
.LC297:
	.string	"*.Lubsan_data632"
.LC298:
	.string	"*.Lubsan_data631"
.LC299:
	.string	"*.Lubsan_data630"
.LC300:
	.string	"*.Lubsan_data629"
.LC301:
	.string	"*.Lubsan_data628"
.LC302:
	.string	"*.Lubsan_data627"
.LC303:
	.string	"*.Lubsan_data626"
.LC304:
	.string	"*.Lubsan_data625"
.LC305:
	.string	"*.Lubsan_data624"
.LC306:
	.string	"*.Lubsan_data623"
.LC307:
	.string	"*.Lubsan_data622"
.LC308:
	.string	"*.Lubsan_data621"
.LC309:
	.string	"*.Lubsan_data620"
.LC310:
	.string	"*.Lubsan_data619"
.LC311:
	.string	"*.Lubsan_data618"
.LC312:
	.string	"*.Lubsan_data617"
.LC313:
	.string	"*.Lubsan_data616"
.LC314:
	.string	"*.Lubsan_data615"
.LC315:
	.string	"*.Lubsan_data614"
.LC316:
	.string	"*.Lubsan_data613"
.LC317:
	.string	"*.Lubsan_data612"
.LC318:
	.string	"*.Lubsan_data611"
.LC319:
	.string	"*.Lubsan_data610"
.LC320:
	.string	"*.Lubsan_data609"
.LC321:
	.string	"*.Lubsan_data608"
.LC322:
	.string	"*.Lubsan_data607"
.LC323:
	.string	"*.Lubsan_data606"
.LC324:
	.string	"*.Lubsan_data605"
.LC325:
	.string	"*.Lubsan_data604"
.LC326:
	.string	"*.Lubsan_data603"
.LC327:
	.string	"*.Lubsan_data602"
.LC328:
	.string	"*.Lubsan_data601"
.LC329:
	.string	"*.Lubsan_data600"
.LC330:
	.string	"*.Lubsan_data599"
.LC331:
	.string	"*.Lubsan_data598"
.LC332:
	.string	"*.Lubsan_data597"
.LC333:
	.string	"*.Lubsan_data594"
.LC334:
	.string	"*.Lubsan_data593"
.LC335:
	.string	"*.Lubsan_data592"
.LC336:
	.string	"*.Lubsan_data254"
.LC337:
	.string	"*.Lubsan_type5"
.LC338:
	.string	"*.Lubsan_data253"
.LC339:
	.string	"*.Lubsan_data252"
.LC340:
	.string	"*.Lubsan_data251"
.LC341:
	.string	"*.Lubsan_data250"
.LC342:
	.string	"*.Lubsan_data249"
.LC343:
	.string	"*.Lubsan_data248"
.LC344:
	.string	"*.Lubsan_data247"
.LC345:
	.string	"*.Lubsan_data246"
.LC346:
	.string	"*.Lubsan_type4"
.LC347:
	.string	"SIZE_OF_RAM"
.LC348:
	.string	"ARR_CANARY"
.LC349:
	.string	"STRUCT_CANARY"
.LC350:
	.string	"MASK_CMD"
.LC351:
	.string	"SIZE_OF_LABELS_ARR"
.LC352:
	.string	"ACCURACY"
.LC353:
	.string	"*.Lubsan_type2"
.LC354:
	.string	"*.LC61"
.LC355:
	.string	"*.LC63"
.LC356:
	.string	"*.LC22"
.LC357:
	.string	"*.LC5"
.LC358:
	.string	"*.LC25"
.LC359:
	.string	"*.LC48"
.LC360:
	.string	"*.LC9"
.LC361:
	.string	"*.LC0"
.LC362:
	.string	"*.LC47"
.LC363:
	.string	"*.LC26"
.LC364:
	.string	"*.LC11"
.LC365:
	.string	"*.LC62"
.LC366:
	.string	"*.LC60"
.LC367:
	.string	"*.LC55"
.LC368:
	.string	"*.LC38"
.LC369:
	.string	"*.LC42"
.LC370:
	.string	"*.LC29"
.LC371:
	.string	"*.LC54"
.LC372:
	.string	"*.LC12"
.LC373:
	.string	"*.LC28"
.LC374:
	.string	"*.LC56"
.LC375:
	.string	"*.LC19"
.LC376:
	.string	"*.LC16"
.LC377:
	.string	"*.LC3"
.LC378:
	.string	"*.LC64"
.LC379:
	.string	"*.LC27"
.LC380:
	.string	"*.LC30"
.LC381:
	.string	"*.LC33"
.LC382:
	.string	"*.LC8"
.LC383:
	.string	"*.LC15"
.LC384:
	.string	"*.LC32"
.LC385:
	.string	"*.LC39"
.LC386:
	.string	"*.LC46"
.LC387:
	.string	"*.LC59"
.LC388:
	.string	"*.LC35"
.LC389:
	.string	"*.LC40"
.LC390:
	.string	"*.LC21"
.LC391:
	.string	"*.LC24"
.LC392:
	.string	"*.LC13"
.LC393:
	.string	"*.LC37"
.LC394:
	.string	"*.LC53"
.LC395:
	.string	"*.LC57"
.LC396:
	.string	"*.LC20"
.LC397:
	.string	"*.LC52"
.LC398:
	.string	"*.LC7"
.LC399:
	.string	"*.LC6"
.LC400:
	.string	"*.LC36"
.LC401:
	.string	"*.LC4"
.LC402:
	.string	"*.LC2"
.LC403:
	.string	"*.LC58"
.LC404:
	.string	"*.LC14"
.LC405:
	.string	"*.LC31"
.LC406:
	.string	"*.LC34"
.LC407:
	.string	"*.LC23"
	.section	.data.rel.local
	.align 32
	.type	.LASAN0, @object
	.size	.LASAN0, 21760
.LASAN0:
	.quad	.Lubsan_data855
	.quad	16
	.quad	64
	.quad	.LC68
	.quad	.LC0
	.quad	0
	.quad	0
	.quad	0
	.quad	.Lubsan_data854
	.quad	32
	.quad	64
	.quad	.LC69
	.quad	.LC0
	.quad	0
	.quad	0
	.quad	0
	.quad	.Lubsan_data853
	.quad	16
	.quad	64
	.quad	.LC70
	.quad	.LC0
	.quad	0
	.quad	0
	.quad	0
	.quad	.Lubsan_data852
	.quad	32
	.quad	64
	.quad	.LC71
	.quad	.LC0
	.quad	0
	.quad	0
	.quad	0
	.quad	.Lubsan_data851
	.quad	32
	.quad	64
	.quad	.LC72
	.quad	.LC0
	.quad	0
	.quad	0
	.quad	0
	.quad	.Lubsan_data850
	.quad	16
	.quad	64
	.quad	.LC73
	.quad	.LC0
	.quad	0
	.quad	0
	.quad	0
	.quad	.Lubsan_data849
	.quad	32
	.quad	64
	.quad	.LC74
	.quad	.LC0
	.quad	0
	.quad	0
	.quad	0
	.quad	.Lubsan_data848
	.quad	16
	.quad	64
	.quad	.LC75
	.quad	.LC0
	.quad	0
	.quad	0
	.quad	0
	.quad	.Lubsan_data847
	.quad	32
	.quad	64
	.quad	.LC76
	.quad	.LC0
	.quad	0
	.quad	0
	.quad	0
	.quad	.Lubsan_data846
	.quad	16
	.quad	64
	.quad	.LC77
	.quad	.LC0
	.quad	0
	.quad	0
	.quad	0
	.quad	.Lubsan_data845
	.quad	32
	.quad	64
	.quad	.LC78
	.quad	.LC0
	.quad	0
	.quad	0
	.quad	0
	.quad	.Lubsan_data844
	.quad	16
	.quad	64
	.quad	.LC79
	.quad	.LC0
	.quad	0
	.quad	0
	.quad	0
	.quad	.Lubsan_data843
	.quad	32
	.quad	64
	.quad	.LC80
	.quad	.LC0
	.quad	0
	.quad	0
	.quad	0
	.quad	.Lubsan_data842
	.quad	16
	.quad	64
	.quad	.LC81
	.quad	.LC0
	.quad	0
	.quad	0
	.quad	0
	.quad	.Lubsan_data841
	.quad	32
	.quad	64
	.quad	.LC82
	.quad	.LC0
	.quad	0
	.quad	0
	.quad	0
	.quad	.Lubsan_data840
	.quad	32
	.quad	64
	.quad	.LC83
	.quad	.LC0
	.quad	0
	.quad	0
	.quad	0
	.quad	.Lubsan_data839
	.quad	16
	.quad	64
	.quad	.LC84
	.quad	.LC0
	.quad	0
	.quad	0
	.quad	0
	.quad	.Lubsan_data838
	.quad	32
	.quad	64
	.quad	.LC85
	.quad	.LC0
	.quad	0
	.quad	0
	.quad	0
	.quad	.Lubsan_data837
	.quad	24
	.quad	64
	.quad	.LC86
	.quad	.LC0
	.quad	0
	.quad	0
	.quad	0
	.quad	.Lubsan_data836
	.quad	24
	.quad	64
	.quad	.LC87
	.quad	.LC0
	.quad	0
	.quad	0
	.quad	0
	.quad	.Lubsan_data835
	.quad	24
	.quad	64
	.quad	.LC88
	.quad	.LC0
	.quad	0
	.quad	0
	.quad	0
	.quad	.Lubsan_data834
	.quad	24
	.quad	64
	.quad	.LC89
	.quad	.LC0
	.quad	0
	.quad	0
	.quad	0
	.quad	.Lubsan_data833
	.quad	24
	.quad	64
	.quad	.LC90
	.quad	.LC0
	.quad	0
	.quad	0
	.quad	0
	.quad	.Lubsan_data832
	.quad	24
	.quad	64
	.quad	.LC91
	.quad	.LC0
	.quad	0
	.quad	0
	.quad	0
	.quad	.Lubsan_data831
	.quad	24
	.quad	64
	.quad	.LC92
	.quad	.LC0
	.quad	0
	.quad	0
	.quad	0
	.quad	.Lubsan_data830
	.quad	24
	.quad	64
	.quad	.LC93
	.quad	.LC0
	.quad	0
	.quad	0
	.quad	0
	.quad	.Lubsan_data829
	.quad	24
	.quad	64
	.quad	.LC94
	.quad	.LC0
	.quad	0
	.quad	0
	.quad	0
	.quad	.Lubsan_data828
	.quad	24
	.quad	64
	.quad	.LC95
	.quad	.LC0
	.quad	0
	.quad	0
	.quad	0
	.quad	.Lubsan_data827
	.quad	24
	.quad	64
	.quad	.LC96
	.quad	.LC0
	.quad	0
	.quad	0
	.quad	0
	.quad	.Lubsan_data826
	.quad	24
	.quad	64
	.quad	.LC97
	.quad	.LC0
	.quad	0
	.quad	0
	.quad	0
	.quad	.Lubsan_data825
	.quad	24
	.quad	64
	.quad	.LC98
	.quad	.LC0
	.quad	0
	.quad	0
	.quad	0
	.quad	.Lubsan_data824
	.quad	24
	.quad	64
	.quad	.LC99
	.quad	.LC0
	.quad	0
	.quad	0
	.quad	0
	.quad	.Lubsan_data823
	.quad	24
	.quad	64
	.quad	.LC100
	.quad	.LC0
	.quad	0
	.quad	0
	.quad	0
	.quad	.Lubsan_data822
	.quad	24
	.quad	64
	.quad	.LC101
	.quad	.LC0
	.quad	0
	.quad	0
	.quad	0
	.quad	.Lubsan_data821
	.quad	24
	.quad	64
	.quad	.LC102
	.quad	.LC0
	.quad	0
	.quad	0
	.quad	0
	.quad	.Lubsan_data820
	.quad	24
	.quad	64
	.quad	.LC103
	.quad	.LC0
	.quad	0
	.quad	0
	.quad	0
	.quad	.Lubsan_data819
	.quad	24
	.quad	64
	.quad	.LC104
	.quad	.LC0
	.quad	0
	.quad	0
	.quad	0
	.quad	.Lubsan_data818
	.quad	16
	.quad	64
	.quad	.LC105
	.quad	.LC0
	.quad	0
	.quad	0
	.quad	0
	.quad	.Lubsan_data817
	.quad	32
	.quad	64
	.quad	.LC106
	.quad	.LC0
	.quad	0
	.quad	0
	.quad	0
	.quad	.Lubsan_data816
	.quad	16
	.quad	64
	.quad	.LC107
	.quad	.LC0
	.quad	0
	.quad	0
	.quad	0
	.quad	.Lubsan_data815
	.quad	32
	.quad	64
	.quad	.LC108
	.quad	.LC0
	.quad	0
	.quad	0
	.quad	0
	.quad	.Lubsan_data814
	.quad	32
	.quad	64
	.quad	.LC109
	.quad	.LC0
	.quad	0
	.quad	0
	.quad	0
	.quad	.Lubsan_data813
	.quad	16
	.quad	64
	.quad	.LC110
	.quad	.LC0
	.quad	0
	.quad	0
	.quad	0
	.quad	.Lubsan_data812
	.quad	32
	.quad	64
	.quad	.LC111
	.quad	.LC0
	.quad	0
	.quad	0
	.quad	0
	.quad	.Lubsan_data811
	.quad	32
	.quad	64
	.quad	.LC112
	.quad	.LC0
	.quad	0
	.quad	0
	.quad	0
	.quad	.Lubsan_data810
	.quad	16
	.quad	64
	.quad	.LC113
	.quad	.LC0
	.quad	0
	.quad	0
	.quad	0
	.quad	.Lubsan_data809
	.quad	32
	.quad	64
	.quad	.LC114
	.quad	.LC0
	.quad	0
	.quad	0
	.quad	0
	.quad	.Lubsan_data808
	.quad	32
	.quad	64
	.quad	.LC115
	.quad	.LC0
	.quad	0
	.quad	0
	.quad	0
	.quad	.Lubsan_data807
	.quad	16
	.quad	64
	.quad	.LC116
	.quad	.LC0
	.quad	0
	.quad	0
	.quad	0
	.quad	.Lubsan_data806
	.quad	16
	.quad	64
	.quad	.LC117
	.quad	.LC0
	.quad	0
	.quad	0
	.quad	0
	.quad	.Lubsan_data805
	.quad	32
	.quad	64
	.quad	.LC118
	.quad	.LC0
	.quad	0
	.quad	0
	.quad	0
	.quad	.Lubsan_data804
	.quad	16
	.quad	64
	.quad	.LC119
	.quad	.LC0
	.quad	0
	.quad	0
	.quad	0
	.quad	.Lubsan_data803
	.quad	32
	.quad	64
	.quad	.LC120
	.quad	.LC0
	.quad	0
	.quad	0
	.quad	0
	.quad	.Lubsan_data802
	.quad	32
	.quad	64
	.quad	.LC121
	.quad	.LC0
	.quad	0
	.quad	0
	.quad	0
	.quad	.Lubsan_data801
	.quad	16
	.quad	64
	.quad	.LC122
	.quad	.LC0
	.quad	0
	.quad	0
	.quad	0
	.quad	.Lubsan_data800
	.quad	16
	.quad	64
	.quad	.LC123
	.quad	.LC0
	.quad	0
	.quad	0
	.quad	0
	.quad	.Lubsan_data799
	.quad	32
	.quad	64
	.quad	.LC124
	.quad	.LC0
	.quad	0
	.quad	0
	.quad	0
	.quad	.Lubsan_data798
	.quad	32
	.quad	64
	.quad	.LC125
	.quad	.LC0
	.quad	0
	.quad	0
	.quad	0
	.quad	.Lubsan_data797
	.quad	16
	.quad	64
	.quad	.LC126
	.quad	.LC0
	.quad	0
	.quad	0
	.quad	0
	.quad	.Lubsan_data796
	.quad	16
	.quad	64
	.quad	.LC127
	.quad	.LC0
	.quad	0
	.quad	0
	.quad	0
	.quad	.Lubsan_data795
	.quad	32
	.quad	64
	.quad	.LC128
	.quad	.LC0
	.quad	0
	.quad	0
	.quad	0
	.quad	.Lubsan_data794
	.quad	32
	.quad	64
	.quad	.LC129
	.quad	.LC0
	.quad	0
	.quad	0
	.quad	0
	.quad	.Lubsan_data793
	.quad	16
	.quad	64
	.quad	.LC130
	.quad	.LC0
	.quad	0
	.quad	0
	.quad	0
	.quad	.Lubsan_data792
	.quad	16
	.quad	64
	.quad	.LC131
	.quad	.LC0
	.quad	0
	.quad	0
	.quad	0
	.quad	.Lubsan_data791
	.quad	32
	.quad	64
	.quad	.LC132
	.quad	.LC0
	.quad	0
	.quad	0
	.quad	0
	.quad	.Lubsan_data790
	.quad	32
	.quad	64
	.quad	.LC133
	.quad	.LC0
	.quad	0
	.quad	0
	.quad	0
	.quad	.Lubsan_data789
	.quad	16
	.quad	64
	.quad	.LC134
	.quad	.LC0
	.quad	0
	.quad	0
	.quad	0
	.quad	.Lubsan_data788
	.quad	16
	.quad	64
	.quad	.LC135
	.quad	.LC0
	.quad	0
	.quad	0
	.quad	0
	.quad	.Lubsan_data787
	.quad	32
	.quad	64
	.quad	.LC136
	.quad	.LC0
	.quad	0
	.quad	0
	.quad	0
	.quad	.Lubsan_data786
	.quad	32
	.quad	64
	.quad	.LC137
	.quad	.LC0
	.quad	0
	.quad	0
	.quad	0
	.quad	.Lubsan_data785
	.quad	16
	.quad	64
	.quad	.LC138
	.quad	.LC0
	.quad	0
	.quad	0
	.quad	0
	.quad	.Lubsan_data784
	.quad	16
	.quad	64
	.quad	.LC139
	.quad	.LC0
	.quad	0
	.quad	0
	.quad	0
	.quad	.Lubsan_data783
	.quad	32
	.quad	64
	.quad	.LC140
	.quad	.LC0
	.quad	0
	.quad	0
	.quad	0
	.quad	.Lubsan_data782
	.quad	32
	.quad	64
	.quad	.LC141
	.quad	.LC0
	.quad	0
	.quad	0
	.quad	0
	.quad	.Lubsan_data781
	.quad	16
	.quad	64
	.quad	.LC142
	.quad	.LC0
	.quad	0
	.quad	0
	.quad	0
	.quad	.Lubsan_data780
	.quad	16
	.quad	64
	.quad	.LC143
	.quad	.LC0
	.quad	0
	.quad	0
	.quad	0
	.quad	.Lubsan_data779
	.quad	32
	.quad	64
	.quad	.LC144
	.quad	.LC0
	.quad	0
	.quad	0
	.quad	0
	.quad	.Lubsan_data778
	.quad	32
	.quad	64
	.quad	.LC145
	.quad	.LC0
	.quad	0
	.quad	0
	.quad	0
	.quad	.Lubsan_data777
	.quad	16
	.quad	64
	.quad	.LC146
	.quad	.LC0
	.quad	0
	.quad	0
	.quad	0
	.quad	.Lubsan_data776
	.quad	16
	.quad	64
	.quad	.LC147
	.quad	.LC0
	.quad	0
	.quad	0
	.quad	0
	.quad	.Lubsan_data775
	.quad	32
	.quad	64
	.quad	.LC148
	.quad	.LC0
	.quad	0
	.quad	0
	.quad	0
	.quad	.Lubsan_data774
	.quad	16
	.quad	64
	.quad	.LC149
	.quad	.LC0
	.quad	0
	.quad	0
	.quad	0
	.quad	.Lubsan_data773
	.quad	32
	.quad	64
	.quad	.LC150
	.quad	.LC0
	.quad	0
	.quad	0
	.quad	0
	.quad	.Lubsan_data772
	.quad	32
	.quad	64
	.quad	.LC151
	.quad	.LC0
	.quad	0
	.quad	0
	.quad	0
	.quad	.Lubsan_data771
	.quad	16
	.quad	64
	.quad	.LC152
	.quad	.LC0
	.quad	0
	.quad	0
	.quad	0
	.quad	.Lubsan_data770
	.quad	32
	.quad	64
	.quad	.LC153
	.quad	.LC0
	.quad	0
	.quad	0
	.quad	0
	.quad	.Lubsan_data769
	.quad	32
	.quad	64
	.quad	.LC154
	.quad	.LC0
	.quad	0
	.quad	0
	.quad	0
	.quad	.Lubsan_data768
	.quad	32
	.quad	64
	.quad	.LC155
	.quad	.LC0
	.quad	0
	.quad	0
	.quad	0
	.quad	.Lubsan_data767
	.quad	16
	.quad	64
	.quad	.LC156
	.quad	.LC0
	.quad	0
	.quad	0
	.quad	0
	.quad	.Lubsan_data766
	.quad	16
	.quad	64
	.quad	.LC157
	.quad	.LC0
	.quad	0
	.quad	0
	.quad	0
	.quad	.Lubsan_data765
	.quad	32
	.quad	64
	.quad	.LC158
	.quad	.LC0
	.quad	0
	.quad	0
	.quad	0
	.quad	.Lubsan_data764
	.quad	16
	.quad	64
	.quad	.LC159
	.quad	.LC0
	.quad	0
	.quad	0
	.quad	0
	.quad	.Lubsan_data763
	.quad	32
	.quad	64
	.quad	.LC160
	.quad	.LC0
	.quad	0
	.quad	0
	.quad	0
	.quad	.Lubsan_data762
	.quad	32
	.quad	64
	.quad	.LC161
	.quad	.LC0
	.quad	0
	.quad	0
	.quad	0
	.quad	.Lubsan_data761
	.quad	32
	.quad	64
	.quad	.LC162
	.quad	.LC0
	.quad	0
	.quad	0
	.quad	0
	.quad	.Lubsan_data760
	.quad	16
	.quad	64
	.quad	.LC163
	.quad	.LC0
	.quad	0
	.quad	0
	.quad	0
	.quad	.Lubsan_data759
	.quad	16
	.quad	64
	.quad	.LC164
	.quad	.LC0
	.quad	0
	.quad	0
	.quad	0
	.quad	.Lubsan_data758
	.quad	32
	.quad	64
	.quad	.LC165
	.quad	.LC0
	.quad	0
	.quad	0
	.quad	0
	.quad	.Lubsan_data757
	.quad	16
	.quad	64
	.quad	.LC166
	.quad	.LC0
	.quad	0
	.quad	0
	.quad	0
	.quad	.Lubsan_data756
	.quad	32
	.quad	64
	.quad	.LC167
	.quad	.LC0
	.quad	0
	.quad	0
	.quad	0
	.quad	.Lubsan_data755
	.quad	32
	.quad	64
	.quad	.LC168
	.quad	.LC0
	.quad	0
	.quad	0
	.quad	0
	.quad	.Lubsan_data754
	.quad	32
	.quad	64
	.quad	.LC169
	.quad	.LC0
	.quad	0
	.quad	0
	.quad	0
	.quad	.Lubsan_data753
	.quad	16
	.quad	64
	.quad	.LC170
	.quad	.LC0
	.quad	0
	.quad	0
	.quad	0
	.quad	.Lubsan_data752
	.quad	16
	.quad	64
	.quad	.LC171
	.quad	.LC0
	.quad	0
	.quad	0
	.quad	0
	.quad	.Lubsan_data751
	.quad	32
	.quad	64
	.quad	.LC172
	.quad	.LC0
	.quad	0
	.quad	0
	.quad	0
	.quad	.Lubsan_data750
	.quad	16
	.quad	64
	.quad	.LC173
	.quad	.LC0
	.quad	0
	.quad	0
	.quad	0
	.quad	.Lubsan_data749
	.quad	32
	.quad	64
	.quad	.LC174
	.quad	.LC0
	.quad	0
	.quad	0
	.quad	0
	.quad	.Lubsan_data748
	.quad	32
	.quad	64
	.quad	.LC175
	.quad	.LC0
	.quad	0
	.quad	0
	.quad	0
	.quad	.Lubsan_data747
	.quad	16
	.quad	64
	.quad	.LC176
	.quad	.LC0
	.quad	0
	.quad	0
	.quad	0
	.quad	.Lubsan_data746
	.quad	32
	.quad	64
	.quad	.LC177
	.quad	.LC0
	.quad	0
	.quad	0
	.quad	0
	.quad	.Lubsan_data745
	.quad	32
	.quad	64
	.quad	.LC178
	.quad	.LC0
	.quad	0
	.quad	0
	.quad	0
	.quad	.Lubsan_data744
	.quad	32
	.quad	64
	.quad	.LC179
	.quad	.LC0
	.quad	0
	.quad	0
	.quad	0
	.quad	.Lubsan_data743
	.quad	16
	.quad	64
	.quad	.LC180
	.quad	.LC0
	.quad	0
	.quad	0
	.quad	0
	.quad	.Lubsan_data742
	.quad	16
	.quad	64
	.quad	.LC181
	.quad	.LC0
	.quad	0
	.quad	0
	.quad	0
	.quad	.Lubsan_data741
	.quad	32
	.quad	64
	.quad	.LC182
	.quad	.LC0
	.quad	0
	.quad	0
	.quad	0
	.quad	.Lubsan_data740
	.quad	16
	.quad	64
	.quad	.LC183
	.quad	.LC0
	.quad	0
	.quad	0
	.quad	0
	.quad	.Lubsan_data739
	.quad	32
	.quad	64
	.quad	.LC184
	.quad	.LC0
	.quad	0
	.quad	0
	.quad	0
	.quad	.Lubsan_data738
	.quad	32
	.quad	64
	.quad	.LC185
	.quad	.LC0
	.quad	0
	.quad	0
	.quad	0
	.quad	.Lubsan_data737
	.quad	32
	.quad	64
	.quad	.LC186
	.quad	.LC0
	.quad	0
	.quad	0
	.quad	0
	.quad	.Lubsan_data736
	.quad	16
	.quad	64
	.quad	.LC187
	.quad	.LC0
	.quad	0
	.quad	0
	.quad	0
	.quad	.Lubsan_data735
	.quad	16
	.quad	64
	.quad	.LC188
	.quad	.LC0
	.quad	0
	.quad	0
	.quad	0
	.quad	.Lubsan_data734
	.quad	32
	.quad	64
	.quad	.LC189
	.quad	.LC0
	.quad	0
	.quad	0
	.quad	0
	.quad	.Lubsan_data733
	.quad	16
	.quad	64
	.quad	.LC190
	.quad	.LC0
	.quad	0
	.quad	0
	.quad	0
	.quad	.Lubsan_data732
	.quad	32
	.quad	64
	.quad	.LC191
	.quad	.LC0
	.quad	0
	.quad	0
	.quad	0
	.quad	.Lubsan_data731
	.quad	32
	.quad	64
	.quad	.LC192
	.quad	.LC0
	.quad	0
	.quad	0
	.quad	0
	.quad	.Lubsan_data730
	.quad	32
	.quad	64
	.quad	.LC193
	.quad	.LC0
	.quad	0
	.quad	0
	.quad	0
	.quad	.Lubsan_data729
	.quad	16
	.quad	64
	.quad	.LC194
	.quad	.LC0
	.quad	0
	.quad	0
	.quad	0
	.quad	.Lubsan_data728
	.quad	16
	.quad	64
	.quad	.LC195
	.quad	.LC0
	.quad	0
	.quad	0
	.quad	0
	.quad	.Lubsan_data727
	.quad	32
	.quad	64
	.quad	.LC196
	.quad	.LC0
	.quad	0
	.quad	0
	.quad	0
	.quad	.Lubsan_data726
	.quad	32
	.quad	64
	.quad	.LC197
	.quad	.LC0
	.quad	0
	.quad	0
	.quad	0
	.quad	.Lubsan_data725
	.quad	16
	.quad	64
	.quad	.LC198
	.quad	.LC0
	.quad	0
	.quad	0
	.quad	0
	.quad	.Lubsan_data724
	.quad	16
	.quad	64
	.quad	.LC199
	.quad	.LC0
	.quad	0
	.quad	0
	.quad	0
	.quad	.Lubsan_data723
	.quad	32
	.quad	64
	.quad	.LC200
	.quad	.LC0
	.quad	0
	.quad	0
	.quad	0
	.quad	.Lubsan_data722
	.quad	32
	.quad	64
	.quad	.LC201
	.quad	.LC0
	.quad	0
	.quad	0
	.quad	0
	.quad	.Lubsan_data721
	.quad	16
	.quad	64
	.quad	.LC202
	.quad	.LC0
	.quad	0
	.quad	0
	.quad	0
	.quad	.Lubsan_data720
	.quad	16
	.quad	64
	.quad	.LC203
	.quad	.LC0
	.quad	0
	.quad	0
	.quad	0
	.quad	.Lubsan_data719
	.quad	32
	.quad	64
	.quad	.LC204
	.quad	.LC0
	.quad	0
	.quad	0
	.quad	0
	.quad	.Lubsan_data718
	.quad	24
	.quad	64
	.quad	.LC205
	.quad	.LC0
	.quad	0
	.quad	0
	.quad	0
	.quad	.Lubsan_data717
	.quad	24
	.quad	64
	.quad	.LC206
	.quad	.LC0
	.quad	0
	.quad	0
	.quad	0
	.quad	.Lubsan_data716
	.quad	24
	.quad	64
	.quad	.LC207
	.quad	.LC0
	.quad	0
	.quad	0
	.quad	0
	.quad	.Lubsan_data715
	.quad	24
	.quad	64
	.quad	.LC208
	.quad	.LC0
	.quad	0
	.quad	0
	.quad	0
	.quad	.Lubsan_data714
	.quad	24
	.quad	64
	.quad	.LC209
	.quad	.LC0
	.quad	0
	.quad	0
	.quad	0
	.quad	.Lubsan_data713
	.quad	24
	.quad	64
	.quad	.LC210
	.quad	.LC0
	.quad	0
	.quad	0
	.quad	0
	.quad	.Lubsan_data712
	.quad	16
	.quad	64
	.quad	.LC211
	.quad	.LC0
	.quad	0
	.quad	0
	.quad	0
	.quad	.Lubsan_data711
	.quad	32
	.quad	64
	.quad	.LC212
	.quad	.LC0
	.quad	0
	.quad	0
	.quad	0
	.quad	.Lubsan_data710
	.quad	32
	.quad	64
	.quad	.LC213
	.quad	.LC0
	.quad	0
	.quad	0
	.quad	0
	.quad	.Lubsan_data709
	.quad	16
	.quad	64
	.quad	.LC214
	.quad	.LC0
	.quad	0
	.quad	0
	.quad	0
	.quad	.Lubsan_data708
	.quad	32
	.quad	64
	.quad	.LC215
	.quad	.LC0
	.quad	0
	.quad	0
	.quad	0
	.quad	.Lubsan_data707
	.quad	32
	.quad	64
	.quad	.LC216
	.quad	.LC0
	.quad	0
	.quad	0
	.quad	0
	.quad	.Lubsan_type11
	.quad	17
	.quad	64
	.quad	.LC217
	.quad	.LC0
	.quad	0
	.quad	0
	.quad	0
	.quad	.Lubsan_data706
	.quad	16
	.quad	64
	.quad	.LC218
	.quad	.LC0
	.quad	0
	.quad	0
	.quad	0
	.quad	.Lubsan_data705
	.quad	32
	.quad	64
	.quad	.LC219
	.quad	.LC0
	.quad	0
	.quad	0
	.quad	0
	.quad	.Lubsan_data704
	.quad	32
	.quad	64
	.quad	.LC220
	.quad	.LC0
	.quad	0
	.quad	0
	.quad	0
	.quad	.Lubsan_data703
	.quad	16
	.quad	64
	.quad	.LC221
	.quad	.LC0
	.quad	0
	.quad	0
	.quad	0
	.quad	.Lubsan_data702
	.quad	16
	.quad	64
	.quad	.LC222
	.quad	.LC0
	.quad	0
	.quad	0
	.quad	0
	.quad	.Lubsan_data701
	.quad	32
	.quad	64
	.quad	.LC223
	.quad	.LC0
	.quad	0
	.quad	0
	.quad	0
	.quad	.Lubsan_data700
	.quad	32
	.quad	64
	.quad	.LC224
	.quad	.LC0
	.quad	0
	.quad	0
	.quad	0
	.quad	.Lubsan_data699
	.quad	16
	.quad	64
	.quad	.LC225
	.quad	.LC0
	.quad	0
	.quad	0
	.quad	0
	.quad	.Lubsan_data698
	.quad	16
	.quad	64
	.quad	.LC226
	.quad	.LC0
	.quad	0
	.quad	0
	.quad	0
	.quad	.Lubsan_data697
	.quad	32
	.quad	64
	.quad	.LC227
	.quad	.LC0
	.quad	0
	.quad	0
	.quad	0
	.quad	.Lubsan_data696
	.quad	16
	.quad	64
	.quad	.LC228
	.quad	.LC0
	.quad	0
	.quad	0
	.quad	0
	.quad	.Lubsan_data695
	.quad	32
	.quad	64
	.quad	.LC229
	.quad	.LC0
	.quad	0
	.quad	0
	.quad	0
	.quad	.Lubsan_data694
	.quad	32
	.quad	64
	.quad	.LC230
	.quad	.LC0
	.quad	0
	.quad	0
	.quad	0
	.quad	.Lubsan_data693
	.quad	16
	.quad	64
	.quad	.LC231
	.quad	.LC0
	.quad	0
	.quad	0
	.quad	0
	.quad	.Lubsan_data692
	.quad	16
	.quad	64
	.quad	.LC232
	.quad	.LC0
	.quad	0
	.quad	0
	.quad	0
	.quad	.Lubsan_data691
	.quad	32
	.quad	64
	.quad	.LC233
	.quad	.LC0
	.quad	0
	.quad	0
	.quad	0
	.quad	.Lubsan_data690
	.quad	32
	.quad	64
	.quad	.LC234
	.quad	.LC0
	.quad	0
	.quad	0
	.quad	0
	.quad	.Lubsan_type10
	.quad	11
	.quad	64
	.quad	.LC235
	.quad	.LC0
	.quad	0
	.quad	0
	.quad	0
	.quad	.Lubsan_data689
	.quad	16
	.quad	64
	.quad	.LC236
	.quad	.LC0
	.quad	0
	.quad	0
	.quad	0
	.quad	.Lubsan_data688
	.quad	16
	.quad	64
	.quad	.LC237
	.quad	.LC0
	.quad	0
	.quad	0
	.quad	0
	.quad	.Lubsan_data687
	.quad	32
	.quad	64
	.quad	.LC238
	.quad	.LC0
	.quad	0
	.quad	0
	.quad	0
	.quad	.Lubsan_type9
	.quad	19
	.quad	64
	.quad	.LC239
	.quad	.LC0
	.quad	0
	.quad	0
	.quad	0
	.quad	.Lubsan_data686
	.quad	16
	.quad	64
	.quad	.LC240
	.quad	.LC0
	.quad	0
	.quad	0
	.quad	0
	.quad	.Lubsan_data685
	.quad	32
	.quad	64
	.quad	.LC241
	.quad	.LC0
	.quad	0
	.quad	0
	.quad	0
	.quad	.Lubsan_data684
	.quad	32
	.quad	64
	.quad	.LC242
	.quad	.LC0
	.quad	0
	.quad	0
	.quad	0
	.quad	.Lubsan_type8
	.quad	14
	.quad	64
	.quad	.LC243
	.quad	.LC0
	.quad	0
	.quad	0
	.quad	0
	.quad	.Lubsan_data683
	.quad	16
	.quad	64
	.quad	.LC244
	.quad	.LC0
	.quad	0
	.quad	0
	.quad	0
	.quad	.Lubsan_data682
	.quad	32
	.quad	64
	.quad	.LC245
	.quad	.LC0
	.quad	0
	.quad	0
	.quad	0
	.quad	.Lubsan_data681
	.quad	32
	.quad	64
	.quad	.LC246
	.quad	.LC0
	.quad	0
	.quad	0
	.quad	0
	.quad	.Lubsan_data680
	.quad	16
	.quad	64
	.quad	.LC247
	.quad	.LC0
	.quad	0
	.quad	0
	.quad	0
	.quad	.Lubsan_data679
	.quad	16
	.quad	64
	.quad	.LC248
	.quad	.LC0
	.quad	0
	.quad	0
	.quad	0
	.quad	.Lubsan_data678
	.quad	32
	.quad	64
	.quad	.LC249
	.quad	.LC0
	.quad	0
	.quad	0
	.quad	0
	.quad	.Lubsan_data677
	.quad	32
	.quad	64
	.quad	.LC250
	.quad	.LC0
	.quad	0
	.quad	0
	.quad	0
	.quad	.Lubsan_data676
	.quad	16
	.quad	64
	.quad	.LC251
	.quad	.LC0
	.quad	0
	.quad	0
	.quad	0
	.quad	.Lubsan_data675
	.quad	16
	.quad	64
	.quad	.LC252
	.quad	.LC0
	.quad	0
	.quad	0
	.quad	0
	.quad	.Lubsan_data674
	.quad	32
	.quad	64
	.quad	.LC253
	.quad	.LC0
	.quad	0
	.quad	0
	.quad	0
	.quad	.Lubsan_data673
	.quad	32
	.quad	64
	.quad	.LC254
	.quad	.LC0
	.quad	0
	.quad	0
	.quad	0
	.quad	.Lubsan_data672
	.quad	16
	.quad	64
	.quad	.LC255
	.quad	.LC0
	.quad	0
	.quad	0
	.quad	0
	.quad	.Lubsan_data671
	.quad	16
	.quad	64
	.quad	.LC256
	.quad	.LC0
	.quad	0
	.quad	0
	.quad	0
	.quad	.Lubsan_data670
	.quad	32
	.quad	64
	.quad	.LC257
	.quad	.LC0
	.quad	0
	.quad	0
	.quad	0
	.quad	.Lubsan_data669
	.quad	24
	.quad	64
	.quad	.LC258
	.quad	.LC0
	.quad	0
	.quad	0
	.quad	0
	.quad	.Lubsan_data668
	.quad	24
	.quad	64
	.quad	.LC259
	.quad	.LC0
	.quad	0
	.quad	0
	.quad	0
	.quad	.Lubsan_data667
	.quad	16
	.quad	64
	.quad	.LC260
	.quad	.LC0
	.quad	0
	.quad	0
	.quad	0
	.quad	.Lubsan_data666
	.quad	32
	.quad	64
	.quad	.LC261
	.quad	.LC0
	.quad	0
	.quad	0
	.quad	0
	.quad	.Lubsan_data665
	.quad	32
	.quad	64
	.quad	.LC262
	.quad	.LC0
	.quad	0
	.quad	0
	.quad	0
	.quad	.Lubsan_type7
	.quad	10
	.quad	64
	.quad	.LC263
	.quad	.LC0
	.quad	0
	.quad	0
	.quad	0
	.quad	.Lubsan_data664
	.quad	16
	.quad	64
	.quad	.LC264
	.quad	.LC0
	.quad	0
	.quad	0
	.quad	0
	.quad	.Lubsan_data663
	.quad	16
	.quad	64
	.quad	.LC265
	.quad	.LC0
	.quad	0
	.quad	0
	.quad	0
	.quad	.Lubsan_data662
	.quad	32
	.quad	64
	.quad	.LC266
	.quad	.LC0
	.quad	0
	.quad	0
	.quad	0
	.quad	.Lubsan_data661
	.quad	16
	.quad	64
	.quad	.LC267
	.quad	.LC0
	.quad	0
	.quad	0
	.quad	0
	.quad	.Lubsan_data660
	.quad	16
	.quad	64
	.quad	.LC268
	.quad	.LC0
	.quad	0
	.quad	0
	.quad	0
	.quad	.Lubsan_data659
	.quad	32
	.quad	64
	.quad	.LC269
	.quad	.LC0
	.quad	0
	.quad	0
	.quad	0
	.quad	.Lubsan_data658
	.quad	16
	.quad	64
	.quad	.LC270
	.quad	.LC0
	.quad	0
	.quad	0
	.quad	0
	.quad	.Lubsan_data657
	.quad	32
	.quad	64
	.quad	.LC271
	.quad	.LC0
	.quad	0
	.quad	0
	.quad	0
	.quad	.Lubsan_data656
	.quad	16
	.quad	64
	.quad	.LC272
	.quad	.LC0
	.quad	0
	.quad	0
	.quad	0
	.quad	.Lubsan_data655
	.quad	32
	.quad	64
	.quad	.LC273
	.quad	.LC0
	.quad	0
	.quad	0
	.quad	0
	.quad	.Lubsan_data654
	.quad	16
	.quad	64
	.quad	.LC274
	.quad	.LC0
	.quad	0
	.quad	0
	.quad	0
	.quad	.Lubsan_data653
	.quad	32
	.quad	64
	.quad	.LC275
	.quad	.LC0
	.quad	0
	.quad	0
	.quad	0
	.quad	.Lubsan_data652
	.quad	16
	.quad	64
	.quad	.LC276
	.quad	.LC0
	.quad	0
	.quad	0
	.quad	0
	.quad	.Lubsan_data651
	.quad	32
	.quad	64
	.quad	.LC277
	.quad	.LC0
	.quad	0
	.quad	0
	.quad	0
	.quad	.Lubsan_data650
	.quad	16
	.quad	64
	.quad	.LC278
	.quad	.LC0
	.quad	0
	.quad	0
	.quad	0
	.quad	.Lubsan_data649
	.quad	32
	.quad	64
	.quad	.LC279
	.quad	.LC0
	.quad	0
	.quad	0
	.quad	0
	.quad	.Lubsan_data648
	.quad	16
	.quad	64
	.quad	.LC280
	.quad	.LC0
	.quad	0
	.quad	0
	.quad	0
	.quad	.Lubsan_data647
	.quad	32
	.quad	64
	.quad	.LC281
	.quad	.LC0
	.quad	0
	.quad	0
	.quad	0
	.quad	.Lubsan_data646
	.quad	16
	.quad	64
	.quad	.LC282
	.quad	.LC0
	.quad	0
	.quad	0
	.quad	0
	.quad	.Lubsan_data645
	.quad	32
	.quad	64
	.quad	.LC283
	.quad	.LC0
	.quad	0
	.quad	0
	.quad	0
	.quad	.Lubsan_data644
	.quad	16
	.quad	64
	.quad	.LC284
	.quad	.LC0
	.quad	0
	.quad	0
	.quad	0
	.quad	.Lubsan_data643
	.quad	32
	.quad	64
	.quad	.LC285
	.quad	.LC0
	.quad	0
	.quad	0
	.quad	0
	.quad	.Lubsan_data642
	.quad	16
	.quad	64
	.quad	.LC286
	.quad	.LC0
	.quad	0
	.quad	0
	.quad	0
	.quad	.Lubsan_data641
	.quad	32
	.quad	64
	.quad	.LC287
	.quad	.LC0
	.quad	0
	.quad	0
	.quad	0
	.quad	.Lubsan_data640
	.quad	24
	.quad	64
	.quad	.LC288
	.quad	.LC0
	.quad	0
	.quad	0
	.quad	0
	.quad	.Lubsan_data639
	.quad	16
	.quad	64
	.quad	.LC289
	.quad	.LC0
	.quad	0
	.quad	0
	.quad	0
	.quad	.Lubsan_data638
	.quad	32
	.quad	64
	.quad	.LC290
	.quad	.LC0
	.quad	0
	.quad	0
	.quad	0
	.quad	.Lubsan_data637
	.quad	32
	.quad	64
	.quad	.LC291
	.quad	.LC0
	.quad	0
	.quad	0
	.quad	0
	.quad	.Lubsan_data636
	.quad	16
	.quad	64
	.quad	.LC292
	.quad	.LC0
	.quad	0
	.quad	0
	.quad	0
	.quad	.Lubsan_data635
	.quad	16
	.quad	64
	.quad	.LC293
	.quad	.LC0
	.quad	0
	.quad	0
	.quad	0
	.quad	.Lubsan_data634
	.quad	32
	.quad	64
	.quad	.LC294
	.quad	.LC0
	.quad	0
	.quad	0
	.quad	0
	.quad	.Lubsan_type6
	.quad	24
	.quad	64
	.quad	.LC295
	.quad	.LC0
	.quad	0
	.quad	0
	.quad	0
	.quad	.Lubsan_data633
	.quad	16
	.quad	64
	.quad	.LC296
	.quad	.LC0
	.quad	0
	.quad	0
	.quad	0
	.quad	.Lubsan_data632
	.quad	40
	.quad	96
	.quad	.LC297
	.quad	.LC0
	.quad	0
	.quad	0
	.quad	0
	.quad	.Lubsan_data631
	.quad	40
	.quad	96
	.quad	.LC298
	.quad	.LC0
	.quad	0
	.quad	0
	.quad	0
	.quad	.Lubsan_data630
	.quad	40
	.quad	96
	.quad	.LC299
	.quad	.LC0
	.quad	0
	.quad	0
	.quad	0
	.quad	.Lubsan_data629
	.quad	40
	.quad	96
	.quad	.LC300
	.quad	.LC0
	.quad	0
	.quad	0
	.quad	0
	.quad	.Lubsan_data628
	.quad	40
	.quad	96
	.quad	.LC301
	.quad	.LC0
	.quad	0
	.quad	0
	.quad	0
	.quad	.Lubsan_data627
	.quad	40
	.quad	96
	.quad	.LC302
	.quad	.LC0
	.quad	0
	.quad	0
	.quad	0
	.quad	.Lubsan_data626
	.quad	40
	.quad	96
	.quad	.LC303
	.quad	.LC0
	.quad	0
	.quad	0
	.quad	0
	.quad	.Lubsan_data625
	.quad	40
	.quad	96
	.quad	.LC304
	.quad	.LC0
	.quad	0
	.quad	0
	.quad	0
	.quad	.Lubsan_data624
	.quad	40
	.quad	96
	.quad	.LC305
	.quad	.LC0
	.quad	0
	.quad	0
	.quad	0
	.quad	.Lubsan_data623
	.quad	40
	.quad	96
	.quad	.LC306
	.quad	.LC0
	.quad	0
	.quad	0
	.quad	0
	.quad	.Lubsan_data622
	.quad	40
	.quad	96
	.quad	.LC307
	.quad	.LC0
	.quad	0
	.quad	0
	.quad	0
	.quad	.Lubsan_data621
	.quad	40
	.quad	96
	.quad	.LC308
	.quad	.LC0
	.quad	0
	.quad	0
	.quad	0
	.quad	.Lubsan_data620
