	.file	"input_output.cpp"
	.text
.Ltext0:
	.file 0 "/home/alexander/GIT/CP" "src/input_output.cpp"
	.section	.rodata
	.align 32
	.type	_ZL13STRUCT_CANARY, @object
	.size	_ZL13STRUCT_CANARY, 8
_ZL13STRUCT_CANARY:
	.quad	4027428875
	.zero	56
	.align 32
	.type	_ZL10ARR_CANARY, @object
	.size	_ZL10ARR_CANARY, 8
_ZL10ARR_CANARY:
	.quad	2882382830
	.zero	56
	.align 32
.LC0:
	.string	"FILE* open_with_no_buff(const char*, const char*)"
	.zero	46
	.align 32
.LC1:
	.string	"src/input_output.cpp"
	.zero	43
	.align 32
.LC2:
	.string	"file_ptr != NULL"
	.zero	47
	.text
	.globl	_Z17open_with_no_buffPKcS0_
	.type	_Z17open_with_no_buffPKcS0_, @function
_Z17open_with_no_buffPKcS0_:
.LASANPC0:
.LFB0:
	.file 1 "src/input_output.cpp"
	.loc 1 6 1
	.cfi_startproc
	endbr64
	pushq	%rbp
	.cfi_def_cfa_offset 16
	.cfi_offset 6, -16
	movq	%rsp, %rbp
	.cfi_def_cfa_register 6
	subq	$32, %rsp
	movq	%rdi, -24(%rbp)
	movq	%rsi, -32(%rbp)
	.loc 1 7 27
	movq	-32(%rbp), %rdx
	movq	-24(%rbp), %rax
	movq	%rdx, %rsi
	movq	%rax, %rdi
	call	fopen@PLT
	movq	%rax, -8(%rbp)
	.loc 1 8 12
	cmpq	$0, -8(%rbp)
	jne	.L2
	.loc 1 8 39 discriminator 1
	call	__asan_handle_no_return@PLT
	leaq	.LC0(%rip), %rax
	movq	%rax, %rcx
	movl	$8, %edx
	leaq	.LC1(%rip), %rax
	movq	%rax, %rsi
	leaq	.LC2(%rip), %rax
	movq	%rax, %rdi
	call	__assert_fail@PLT
.L2:
	.loc 1 10 12
	movq	-8(%rbp), %rax
	movl	$0, %ecx
	movl	$2, %edx
	movl	$0, %esi
	movq	%rax, %rdi
	call	setvbuf@PLT
	.loc 1 12 12
	movq	-8(%rbp), %rax
	.loc 1 13 1
	leave
	.cfi_def_cfa 7, 8
	ret
	.cfi_endproc
.LFE0:
	.size	_Z17open_with_no_buffPKcS0_, .-_Z17open_with_no_buffPKcS0_
	.section	.rodata
	.align 8
.LC3:
	.string	"src/../include/stack_objects.h"
	.section	.data.rel.local,"aw"
	.align 16
	.type	.LASANLOC1, @object
	.size	.LASANLOC1, 16
.LASANLOC1:
	.quad	.LC3
	.long	16
	.long	14
	.align 16
	.type	.LASANLOC2, @object
	.size	.LASANLOC2, 16
.LASANLOC2:
	.quad	.LC3
	.long	15
	.long	14
	.section	.rodata
.LC4:
	.string	"ARR_CANARY"
.LC5:
	.string	"STRUCT_CANARY"
.LC6:
	.string	"*.LC2"
.LC7:
	.string	"*.LC1"
.LC8:
	.string	"*.LC0"
	.section	.data.rel.local
	.align 32
	.type	.LASAN0, @object
	.size	.LASAN0, 320
.LASAN0:
	.quad	_ZL10ARR_CANARY
	.quad	8
	.quad	64
	.quad	.LC4
	.quad	.LC1
	.quad	0
	.quad	.LASANLOC1
	.quad	0
	.quad	_ZL13STRUCT_CANARY
	.quad	8
	.quad	64
	.quad	.LC5
	.quad	.LC1
	.quad	0
	.quad	.LASANLOC2
	.quad	0
	.quad	.LC2
	.quad	17
	.quad	64
	.quad	.LC6
	.quad	.LC1
	.quad	0
	.quad	0
	.quad	0
	.quad	.LC1
	.quad	21
	.quad	64
	.quad	.LC7
	.quad	.LC1
	.quad	0
	.quad	0
	.quad	0
	.quad	.LC0
	.quad	50
	.quad	96
	.quad	.LC8
	.quad	.LC1
	.quad	0
	.quad	0
	.quad	0
	.text
	.type	_sub_D_00099_0, @function
_sub_D_00099_0:
.LFB1:
	.cfi_startproc
	endbr64
	pushq	%rbp
	.cfi_def_cfa_offset 16
	.cfi_offset 6, -16
	movq	%rsp, %rbp
	.cfi_def_cfa_register 6
	movl	$5, %esi
	leaq	.LASAN0(%rip), %rax
	movq	%rax, %rdi
	call	__asan_unregister_globals@PLT
	popq	%rbp
	.cfi_def_cfa 7, 8
	ret
	.cfi_endproc
.LFE1:
	.size	_sub_D_00099_0, .-_sub_D_00099_0
	.section	.fini_array.00099,"aw"
	.align 8
	.quad	_sub_D_00099_0
	.text
	.type	_sub_I_00099_1, @function
_sub_I_00099_1:
.LFB2:
	.cfi_startproc
	endbr64
	pushq	%rbp
	.cfi_def_cfa_offset 16
	.cfi_offset 6, -16
	movq	%rsp, %rbp
	.cfi_def_cfa_register 6
	call	__asan_init@PLT
	call	__asan_version_mismatch_check_v8@PLT
	movl	$5, %esi
	leaq	.LASAN0(%rip), %rax
	movq	%rax, %rdi
	call	__asan_register_globals@PLT
	popq	%rbp
	.cfi_def_cfa 7, 8
	ret
	.cfi_endproc
.LFE2:
	.size	_sub_I_00099_1, .-_sub_I_00099_1
	.section	.init_array.00099,"aw"
	.align 8
	.quad	_sub_I_00099_1
	.text
.Letext0:
	.file 2 "/usr/lib/gcc/x86_64-linux-gnu/11/include/stddef.h"
	.file 3 "/usr/include/x86_64-linux-gnu/bits/types.h"
	.file 4 "/usr/include/x86_64-linux-gnu/bits/types/struct_FILE.h"
	.file 5 "/usr/include/x86_64-linux-gnu/bits/types/FILE.h"
	.file 6 "src/../include/stack_objects.h"
	.file 7 "/usr/include/stdio.h"
	.file 8 "/usr/include/assert.h"
	.section	.note.GNU-stack,"",@progbits
	.section	.note.gnu.property,"a"
	.align 8
	.long	1f - 0f
	.long	4f - 1f
	.long	5
0:
	.string	"GNU"
1:
	.align 8
	.long	0xc0000002
	.long	3f - 2f
2:
	.long	0x3
3:
	.align 8
4:
