	.file	"stack_func.cpp"
	.text
.Ltext0:
	.file 0 "/home/alexander/GIT/CP" "src/stack_func.cpp"
	.section	.rodata
	.align 32
	.type	_ZL13STRUCT_CANARY, @object
	.size	_ZL13STRUCT_CANARY, 8
_ZL13STRUCT_CANARY:
	.quad	4027428875
	.zero	56
	.align 32
	.type	_ZL10ARR_CANARY, @object
	.size	_ZL10ARR_CANARY, 8
_ZL10ARR_CANARY:
	.quad	2882382830
	.zero	56
	.align 32
.LC0:
	.string	"int stack_ctor(Stack*, ssize_t, const char*, const char*, const char*, int)"
	.zero	52
	.align 32
.LC1:
	.string	"src/stack_func.cpp"
	.zero	45
	.align 32
.LC2:
	.string	"stk != NULL"
	.zero	52
	.align 32
.LC3:
	.string	"stack_ctor"
	.zero	53
	.align 32
.LC4:
	.string	"stk->data == nullptr"
	.zero	43
	.text
	.globl	_Z10stack_ctorP5StacklPKcS2_S2_i
	.type	_Z10stack_ctorP5StacklPKcS2_S2_i, @function
_Z10stack_ctorP5StacklPKcS2_S2_i:
.LASANPC957:
.LFB957:
	.file 1 "src/stack_func.cpp"
	.loc 1 9 1
	.cfi_startproc
	endbr64
	pushq	%rbp
	.cfi_def_cfa_offset 16
	.cfi_offset 6, -16
	movq	%rsp, %rbp
	.cfi_def_cfa_register 6
	subq	$48, %rsp
	movq	%rdi, -8(%rbp)
	movq	%rsi, -16(%rbp)
	movq	%rdx, -24(%rbp)
	movq	%rcx, -32(%rbp)
	movq	%r8, -40(%rbp)
	movl	%r9d, -44(%rbp)
	.loc 1 10 12
	cmpq	$0, -8(%rbp)
	jne	.L2
	.loc 1 10 39 discriminator 1
	call	__asan_handle_no_return@PLT
	leaq	.LC0(%rip), %rax
	movq	%rax, %rcx
	movl	$10, %edx
	leaq	.LC1(%rip), %rax
	movq	%rax, %rsi
	leaq	.LC2(%rip), %rax
	movq	%rax, %rdi
	call	__assert_fail@PLT
.L2:
	.loc 1 12 13
	movq	-8(%rbp), %rax
	addq	$76, %rax
	movq	%rax, %rdx
	shrq	$3, %rdx
	addq	$2147450880, %rdx
	movzbl	(%rdx), %edx
	testb	%dl, %dl
	setne	%cl
	movq	%rax, %rsi
	andl	$7, %esi
	cmpb	%dl, %sil
	setge	%dl
	andl	%ecx, %edx
	testb	%dl, %dl
	je	.L3
	movq	%rax, %rdi
	call	__asan_report_load1@PLT
.L3:
	movq	-8(%rbp), %rax
	movzbl	76(%rax), %eax
	movsbl	%al, %eax
	.loc 1 12 18
	andl	$1, %eax
	.loc 1 12 5
	testl	%eax, %eax
	je	.L4
	.loc 1 14 28
	movq	-8(%rbp), %rax
	addq	$72, %rax
	movq	%rax, %rdx
	movq	%rdx, %rax
	shrq	$3, %rax
	addq	$2147450880, %rax
	movzbl	(%rax), %eax
	testb	%al, %al
	setne	%cl
	cmpb	$3, %al
	setle	%al
	andl	%ecx, %eax
	testb	%al, %al
	je	.L5
	movq	%rdx, %rdi
	call	__asan_report_load4@PLT
.L5:
	movq	-8(%rbp), %rax
	movl	72(%rax), %eax
	orb	$4, %ah
	movl	%eax, %edx
	movq	-8(%rbp), %rax
	movl	%edx, 72(%rax)
	.loc 1 16 24
	movq	-8(%rbp), %rax
	movq	%rax, %rdi
	call	_Z11stack_errorP5Stack@PLT
	.loc 1 16 30
	testl	%eax, %eax
	setne	%al
	.loc 1 16 9
	testb	%al, %al
	je	.L4
	.loc 1 16 55 discriminator 1
	movq	-8(%rbp), %rax
	addq	$72, %rax
	movq	%rax, %rdx
	movq	%rdx, %rax
	shrq	$3, %rax
	addq	$2147450880, %rax
	movzbl	(%rax), %eax
	testb	%al, %al
	setne	%cl
	cmpb	$3, %al
	setle	%al
	andl	%ecx, %eax
	testb	%al, %al
	je	.L6
	.loc 1 16 55 is_stmt 0
	movq	%rdx, %rdi
	call	__asan_report_load4@PLT
.L6:
	.loc 1 16 55 discriminator 1
	movq	-8(%rbp), %rax
	movl	72(%rax), %eax
	movl	%eax, %edi
	call	_Z17stack_err_decoderj@PLT
	.loc 1 16 87 is_stmt 1 discriminator 1
	movq	-8(%rbp), %rax
	movq	%rax, %rdi
	call	_Z11stack_errorP5Stack@PLT
	movl	%eax, %edx
	movq	-8(%rbp), %rax
	movl	%edx, %r8d
	movl	$16, %ecx
	leaq	.LC1(%rip), %rdx
	leaq	.LC3(%rip), %rsi
	movq	%rax, %rdi
	call	_Z10stack_dumpP5StackPKcS2_ij@PLT
	.loc 1 16 159 discriminator 1
	movl	$0, %eax
	jmp	.L7
.L4:
	.loc 1 18 9
	movq	-8(%rbp), %rax
	addq	$8, %rax
	movq	%rax, %rdx
	shrq	$3, %rdx
	addq	$2147450880, %rdx
	movzbl	(%rdx), %edx
	testb	%dl, %dl
	je	.L8
	movq	%rax, %rdi
	call	__asan_report_load8@PLT
.L8:
	movq	-8(%rbp), %rax
	movq	8(%rax), %rax
	.loc 1 18 6
	testq	%rax, %rax
	je	.L9
	.loc 1 18 33 discriminator 1
	call	__asan_handle_no_return@PLT
	leaq	.LC0(%rip), %rax
	movq	%rax, %rcx
	movl	$18, %edx
	leaq	.LC1(%rip), %rax
	movq	%rax, %rsi
	leaq	.LC4(%rip), %rax
	movq	%rax, %rdi
	call	__assert_fail@PLT
.L9:
	.loc 1 19 35
	movq	-16(%rbp), %rax
	.loc 1 19 61
	addq	$2, %rax
	.loc 1 19 31
	salq	$3, %rax
	movq	%rax, %rsi
	movl	$1, %edi
	call	calloc@PLT
	movq	%rax, %rcx
	.loc 1 19 15
	movq	-8(%rbp), %rax
	addq	$8, %rax
	movq	%rax, %rdx
	shrq	$3, %rdx
	addq	$2147450880, %rdx
	movzbl	(%rdx), %edx
	testb	%dl, %dl
	je	.L10
	movq	%rax, %rdi
	call	__asan_report_store8@PLT
.L10:
	movq	-8(%rbp), %rax
	movq	%rcx, 8(%rax)
	.loc 1 21 24
	movq	-8(%rbp), %rax
	movq	8(%rax), %rax
	.loc 1 21 30
	movq	%rax, %rdx
	movq	%rdx, %rcx
	shrq	$3, %rcx
	addq	$2147450880, %rcx
	movzbl	(%rcx), %ecx
	testb	%cl, %cl
	je	.L11
	movq	%rdx, %rdi
	call	__asan_report_store8@PLT
.L11:
	movl	$2882382830, %esi
	movq	%rsi, (%rax)
	.loc 1 21 71
	movq	-8(%rbp), %rax
	movq	8(%rax), %rdx
	.loc 1 21 102
	movq	-16(%rbp), %rax
	addq	$1, %rax
	salq	$3, %rax
	.loc 1 21 47
	addq	%rdx, %rax
	.loc 1 21 123
	movq	%rax, %rdx
	movq	%rdx, %rcx
	shrq	$3, %rcx
	addq	$2147450880, %rcx
	movzbl	(%rcx), %ecx
	testb	%cl, %cl
	je	.L12
	movq	%rdx, %rdi
	call	__asan_report_store8@PLT
.L12:
	movl	$2882382830, %esi
	movq	%rsi, (%rax)
	.loc 1 21 173
	movq	-8(%rbp), %rax
	movq	8(%rax), %rax
	.loc 1 21 149
	leaq	8(%rax), %rdx
	.loc 1 21 147
	movq	-8(%rbp), %rax
	movq	%rdx, 8(%rax)
	.loc 1 28 19
	movq	-8(%rbp), %rax
	addq	$24, %rax
	movq	%rax, %rdx
	shrq	$3, %rdx
	addq	$2147450880, %rdx
	movzbl	(%rdx), %edx
	testb	%dl, %dl
	je	.L13
	movq	%rax, %rdi
	call	__asan_report_store8@PLT
.L13:
	movq	-8(%rbp), %rax
	movq	-16(%rbp), %rdx
	movq	%rdx, 24(%rax)
	.loc 1 29 15
	movq	-8(%rbp), %rax
	addq	$16, %rax
	movq	%rax, %rdx
	shrq	$3, %rdx
	addq	$2147450880, %rdx
	movzbl	(%rdx), %edx
	testb	%dl, %dl
	je	.L14
	movq	%rax, %rdi
	call	__asan_report_store8@PLT
.L14:
	movq	-8(%rbp), %rax
	movq	$0, 16(%rax)
	.loc 1 30 24
	movq	-8(%rbp), %rax
	addq	$72, %rax
	movq	%rax, %rdx
	movq	%rdx, %rax
	shrq	$3, %rax
	addq	$2147450880, %rax
	movzbl	(%rax), %eax
	testb	%al, %al
	setne	%cl
	cmpb	$3, %al
	setle	%al
	andl	%ecx, %eax
	testb	%al, %al
	je	.L15
	movq	%rdx, %rdi
	call	__asan_report_store4@PLT
.L15:
	movq	-8(%rbp), %rax
	movl	$0, 72(%rax)
	.loc 1 31 15
	movq	-8(%rbp), %rax
	addq	$76, %rax
	movq	%rax, %rdx
	shrq	$3, %rdx
	addq	$2147450880, %rdx
	movzbl	(%rdx), %edx
	testb	%dl, %dl
	setne	%cl
	movq	%rax, %rsi
	andl	$7, %esi
	cmpb	%dl, %sil
	setge	%dl
	andl	%ecx, %edx
	testb	%dl, %dl
	je	.L16
	movq	%rax, %rdi
	call	__asan_report_load1@PLT
.L16:
	movq	-8(%rbp), %rax
	movzbl	76(%rax), %eax
	orl	$1, %eax
	movl	%eax, %edx
	movq	-8(%rbp), %rax
	movb	%dl, 76(%rax)
	.loc 1 33 19
	movq	-8(%rbp), %rax
	addq	$80, %rax
	movq	%rax, %rdx
	shrq	$3, %rdx
	addq	$2147450880, %rdx
	movzbl	(%rdx), %edx
	testb	%dl, %dl
	je	.L17
	movq	%rax, %rdi
	call	__asan_report_store8@PLT
.L17:
	movq	-8(%rbp), %rax
	movl	$4027428875, %esi
	movq	%rsi, 80(%rax)
	.loc 1 33 50
	movq	-8(%rbp), %rax
	movq	%rax, %rdx
	shrq	$3, %rdx
	addq	$2147450880, %rdx
	movzbl	(%rdx), %edx
	testb	%dl, %dl
	je	.L18
	movq	%rax, %rdi
	call	__asan_report_store8@PLT
.L18:
	movq	-8(%rbp), %rax
	movl	$4027428875, %edi
	movq	%rdi, (%rax)
	.loc 1 39 17
	movq	-8(%rbp), %rax
	movq	%rax, %rdi
	call	_Z12stack_rehashP5Stack
	.loc 1 41 20
	movq	-8(%rbp), %rax
	movq	%rax, %rdi
	call	_Z11stack_errorP5Stack@PLT
	.loc 1 41 26
	testl	%eax, %eax
	setne	%al
	.loc 1 41 5
	testb	%al, %al
	je	.L19
	.loc 1 41 51 discriminator 1
	movq	-8(%rbp), %rax
	addq	$72, %rax
	movq	%rax, %rdx
	movq	%rdx, %rax
	shrq	$3, %rax
	addq	$2147450880, %rax
	movzbl	(%rax), %eax
	testb	%al, %al
	setne	%cl
	cmpb	$3, %al
	setle	%al
	andl	%ecx, %eax
	testb	%al, %al
	je	.L20
	.loc 1 41 51 is_stmt 0
	movq	%rdx, %rdi
	call	__asan_report_load4@PLT
.L20:
	.loc 1 41 51 discriminator 1
	movq	-8(%rbp), %rax
	movl	72(%rax), %eax
	movl	%eax, %edi
	call	_Z17stack_err_decoderj@PLT
	.loc 1 41 83 is_stmt 1 discriminator 1
	movq	-8(%rbp), %rax
	movq	%rax, %rdi
	call	_Z11stack_errorP5Stack@PLT
	movl	%eax, %edx
	movq	-8(%rbp), %rax
	movl	%edx, %r8d
	movl	$41, %ecx
	leaq	.LC1(%rip), %rdx
	leaq	.LC3(%rip), %rsi
	movq	%rax, %rdi
	call	_Z10stack_dumpP5StackPKcS2_ij@PLT
	.loc 1 41 155 discriminator 1
	movl	$0, %eax
	jmp	.L7
.L19:
	.loc 1 43 20
	movq	-8(%rbp), %rax
	addq	$32, %rax
	movq	%rax, %rdx
	shrq	$3, %rdx
	addq	$2147450880, %rdx
	movzbl	(%rdx), %edx
	testb	%dl, %dl
	setne	%cl
	testb	%dl, %dl
	setle	%dl
	movl	%ecx, %esi
	andl	%edx, %esi
	movl	$32, %edx
	subq	$1, %rdx
	leaq	(%rax,%rdx), %rcx
	movq	%rcx, %rdx
	shrq	$3, %rdx
	addq	$2147450880, %rdx
	movzbl	(%rdx), %edx
	testb	%dl, %dl
	setne	%dil
	andl	$7, %ecx
	cmpb	%dl, %cl
	setge	%dl
	andl	%edi, %edx
	orl	%esi, %edx
	testb	%dl, %dl
	je	.L21
	movl	$32, %esi
	movq	%rax, %rdi
	call	__asan_report_store_n@PLT
.L21:
	movq	-8(%rbp), %rax
	movq	$0, 32(%rax)
	movq	$0, 40(%rax)
	movq	$0, 48(%rax)
	movq	$0, 56(%rax)
	.loc 1 44 25
	movl	-44(%rbp), %edi
	movq	-40(%rbp), %rcx
	movq	-32(%rbp), %rdx
	movq	-24(%rbp), %rsi
	movq	-8(%rbp), %rax
	movl	%edi, %r8d
	movq	%rax, %rdi
	call	_Z20stack_dump_info_ctorP5StackPKcS2_S2_i
	.loc 1 46 17
	movq	-8(%rbp), %rax
	movq	%rax, %rdi
	call	_Z12stack_rehashP5Stack
	.loc 1 48 43
	movq	-8(%rbp), %rax
	addq	$24, %rax
	movq	%rax, %rdx
	shrq	$3, %rdx
	addq	$2147450880, %rdx
	movzbl	(%rdx), %edx
	testb	%dl, %dl
	je	.L22
	movq	%rax, %rdi
	call	__asan_report_load8@PLT
.L22:
	movq	-8(%rbp), %rax
	movq	24(%rax), %rax
	.loc 1 48 21
	movq	%rax, %rsi
	.loc 1 48 32
	movq	-8(%rbp), %rax
	addq	$16, %rax
	movq	%rax, %rdx
	shrq	$3, %rdx
	addq	$2147450880, %rdx
	movzbl	(%rdx), %edx
	testb	%dl, %dl
	je	.L23
	movq	%rax, %rdi
	call	__asan_report_load8@PLT
.L23:
	movq	-8(%rbp), %rax
	movq	16(%rax), %rax
	.loc 1 48 21
	movq	%rax, %rcx
	movq	-8(%rbp), %rax
	movq	%rsi, %rdx
	movq	%rcx, %rsi
	movq	%rax, %rdi
	call	_Z16stack_poison_getP5Stackmm
	.loc 1 50 20
	movq	-8(%rbp), %rax
	movq	%rax, %rdi
	call	_Z11stack_errorP5Stack@PLT
	.loc 1 50 26
	testl	%eax, %eax
	setne	%al
	.loc 1 50 5
	testb	%al, %al
	je	.L24
	.loc 1 50 51 discriminator 1
	movq	-8(%rbp), %rax
	addq	$72, %rax
	movq	%rax, %rdx
	movq	%rdx, %rax
	shrq	$3, %rax
	addq	$2147450880, %rax
	movzbl	(%rax), %eax
	testb	%al, %al
	setne	%cl
	cmpb	$3, %al
	setle	%al
	andl	%ecx, %eax
	testb	%al, %al
	je	.L25
	.loc 1 50 51 is_stmt 0
	movq	%rdx, %rdi
	call	__asan_report_load4@PLT
.L25:
	.loc 1 50 51 discriminator 1
	movq	-8(%rbp), %rax
	movl	72(%rax), %eax
	movl	%eax, %edi
	call	_Z17stack_err_decoderj@PLT
	.loc 1 50 83 is_stmt 1 discriminator 1
	movq	-8(%rbp), %rax
	movq	%rax, %rdi
	call	_Z11stack_errorP5Stack@PLT
	movl	%eax, %edx
	movq	-8(%rbp), %rax
	movl	%edx, %r8d
	movl	$50, %ecx
	leaq	.LC1(%rip), %rdx
	leaq	.LC3(%rip), %rsi
	movq	%rax, %rdi
	call	_Z10stack_dumpP5StackPKcS2_ij@PLT
	.loc 1 50 155 discriminator 1
	movl	$0, %eax
	jmp	.L7
.L24:
	.loc 1 52 17
	movq	-8(%rbp), %rax
	addq	$72, %rax
	movq	%rax, %rdx
	movq	%rdx, %rax
	shrq	$3, %rax
	addq	$2147450880, %rax
	movzbl	(%rax), %eax
	testb	%al, %al
	setne	%cl
	cmpb	$3, %al
	setle	%al
	andl	%ecx, %eax
	testb	%al, %al
	je	.L26
	movq	%rdx, %rdi
	call	__asan_report_load4@PLT
.L26:
	movq	-8(%rbp), %rax
	movl	72(%rax), %eax
.L7:
	.loc 1 53 1
	leave
	.cfi_def_cfa 7, 8
	ret
	.cfi_endproc
.LFE957:
	.size	_Z10stack_ctorP5StacklPKcS2_S2_i, .-_Z10stack_ctorP5StacklPKcS2_S2_i
	.section	.rodata
	.align 32
.LC5:
	.string	"stack_dump_info_ctor"
	.zero	43
	.text
	.globl	_Z20stack_dump_info_ctorP5StackPKcS2_S2_i
	.type	_Z20stack_dump_info_ctorP5StackPKcS2_S2_i, @function
_Z20stack_dump_info_ctorP5StackPKcS2_S2_i:
.LASANPC958:
.LFB958:
	.loc 1 56 1
	.cfi_startproc
	endbr64
	pushq	%rbp
	.cfi_def_cfa_offset 16
	.cfi_offset 6, -16
	movq	%rsp, %rbp
	.cfi_def_cfa_register 6
	subq	$48, %rsp
	movq	%rdi, -8(%rbp)
	movq	%rsi, -16(%rbp)
	movq	%rdx, -24(%rbp)
	movq	%rcx, -32(%rbp)
	movl	%r8d, -36(%rbp)
	.loc 1 57 20
	movq	-8(%rbp), %rax
	movq	%rax, %rdi
	call	_Z11stack_errorP5Stack@PLT
	.loc 1 57 26
	testl	%eax, %eax
	setne	%al
	.loc 1 57 5
	testb	%al, %al
	je	.L28
	.loc 1 57 51 discriminator 1
	movq	-8(%rbp), %rax
	addq	$72, %rax
	movq	%rax, %rdx
	movq	%rdx, %rax
	shrq	$3, %rax
	addq	$2147450880, %rax
	movzbl	(%rax), %eax
	testb	%al, %al
	setne	%cl
	cmpb	$3, %al
	setle	%al
	andl	%ecx, %eax
	testb	%al, %al
	je	.L29
	.loc 1 57 51 is_stmt 0
	movq	%rdx, %rdi
	call	__asan_report_load4@PLT
.L29:
	.loc 1 57 51 discriminator 1
	movq	-8(%rbp), %rax
	movl	72(%rax), %eax
	movl	%eax, %edi
	call	_Z17stack_err_decoderj@PLT
	.loc 1 57 83 is_stmt 1 discriminator 1
	movq	-8(%rbp), %rax
	movq	%rax, %rdi
	call	_Z11stack_errorP5Stack@PLT
	movl	%eax, %edx
	movq	-8(%rbp), %rax
	movl	%edx, %r8d
	movl	$57, %ecx
	leaq	.LC1(%rip), %rdx
	leaq	.LC5(%rip), %rsi
	movq	%rax, %rdi
	call	_Z10stack_dumpP5StackPKcS2_ij@PLT
	.loc 1 57 155 discriminator 1
	movl	$0, %eax
	jmp	.L30
.L28:
	.loc 1 59 33
	movq	-8(%rbp), %rax
	addq	$32, %rax
	movq	%rax, %rdx
	shrq	$3, %rdx
	addq	$2147450880, %rdx
	movzbl	(%rdx), %edx
	testb	%dl, %dl
	je	.L31
	movq	%rax, %rdi
	call	__asan_report_store8@PLT
.L31:
	movq	-8(%rbp), %rax
	movq	-16(%rbp), %rdx
	movq	%rdx, 32(%rax)
	.loc 1 60 33
	movq	-8(%rbp), %rax
	addq	$40, %rax
	movq	%rax, %rdx
	shrq	$3, %rdx
	addq	$2147450880, %rdx
	movzbl	(%rdx), %edx
	testb	%dl, %dl
	je	.L32
	movq	%rax, %rdi
	call	__asan_report_store8@PLT
.L32:
	movq	-8(%rbp), %rax
	movq	-24(%rbp), %rdx
	movq	%rdx, 40(%rax)
	.loc 1 61 53
	movq	-32(%rbp), %rax
	leaq	1(%rax), %rcx
	.loc 1 61 37
	movq	-8(%rbp), %rax
	addq	$48, %rax
	movq	%rax, %rdx
	shrq	$3, %rdx
	addq	$2147450880, %rdx
	movzbl	(%rdx), %edx
	testb	%dl, %dl
	je	.L33
	movq	%rax, %rdi
	call	__asan_report_store8@PLT
.L33:
	movq	-8(%rbp), %rax
	movq	%rcx, 48(%rax)
	.loc 1 62 33
	movl	-36(%rbp), %eax
	movslq	%eax, %rdx
	.loc 1 62 31
	movq	-8(%rbp), %rax
	addq	$56, %rax
	movq	%rax, %rcx
	shrq	$3, %rcx
	addq	$2147450880, %rcx
	movzbl	(%rcx), %ecx
	testb	%cl, %cl
	je	.L34
	movq	%rax, %rdi
	call	__asan_report_store8@PLT
.L34:
	movq	-8(%rbp), %rax
	movq	%rdx, 56(%rax)
	.loc 1 64 17
	movq	-8(%rbp), %rax
	movq	%rax, %rdi
	call	_Z12stack_rehashP5Stack
	.loc 1 66 20
	movq	-8(%rbp), %rax
	movq	%rax, %rdi
	call	_Z11stack_errorP5Stack@PLT
	.loc 1 66 26
	testl	%eax, %eax
	setne	%al
	.loc 1 66 5
	testb	%al, %al
	je	.L35
	.loc 1 66 51 discriminator 1
	movq	-8(%rbp), %rax
	addq	$72, %rax
	movq	%rax, %rdx
	movq	%rdx, %rax
	shrq	$3, %rax
	addq	$2147450880, %rax
	movzbl	(%rax), %eax
	testb	%al, %al
	setne	%cl
	cmpb	$3, %al
	setle	%al
	andl	%ecx, %eax
	testb	%al, %al
	je	.L36
	.loc 1 66 51 is_stmt 0
	movq	%rdx, %rdi
	call	__asan_report_load4@PLT
.L36:
	.loc 1 66 51 discriminator 1
	movq	-8(%rbp), %rax
	movl	72(%rax), %eax
	movl	%eax, %edi
	call	_Z17stack_err_decoderj@PLT
	.loc 1 66 83 is_stmt 1 discriminator 1
	movq	-8(%rbp), %rax
	movq	%rax, %rdi
	call	_Z11stack_errorP5Stack@PLT
	movl	%eax, %edx
	movq	-8(%rbp), %rax
	movl	%edx, %r8d
	movl	$66, %ecx
	leaq	.LC1(%rip), %rdx
	leaq	.LC5(%rip), %rsi
	movq	%rax, %rdi
	call	_Z10stack_dumpP5StackPKcS2_ij@PLT
	.loc 1 66 155 discriminator 1
	movl	$0, %eax
	jmp	.L30
.L35:
	.loc 1 67 17
	movq	-8(%rbp), %rax
	addq	$72, %rax
	movq	%rax, %rdx
	movq	%rdx, %rax
	shrq	$3, %rax
	addq	$2147450880, %rax
	movzbl	(%rax), %eax
	testb	%al, %al
	setne	%cl
	cmpb	$3, %al
	setle	%al
	andl	%ecx, %eax
	testb	%al, %al
	je	.L37
	movq	%rdx, %rdi
	call	__asan_report_load4@PLT
.L37:
	movq	-8(%rbp), %rax
	movl	72(%rax), %eax
.L30:
	.loc 1 68 1
	leave
	.cfi_def_cfa 7, 8
	ret
	.cfi_endproc
.LFE958:
	.size	_Z20stack_dump_info_ctorP5StackPKcS2_S2_i, .-_Z20stack_dump_info_ctorP5StackPKcS2_S2_i
	.section	.rodata
	.align 32
.LC6:
	.string	"stack_push"
	.zero	53
	.text
	.globl	_Z10stack_pushP5Stackd
	.type	_Z10stack_pushP5Stackd, @function
_Z10stack_pushP5Stackd:
.LASANPC959:
.LFB959:
	.loc 1 71 1
	.cfi_startproc
	endbr64
	pushq	%rbp
	.cfi_def_cfa_offset 16
	.cfi_offset 6, -16
	movq	%rsp, %rbp
	.cfi_def_cfa_register 6
	subq	$16, %rsp
	movq	%rdi, -8(%rbp)
	movsd	%xmm0, -16(%rbp)
	.loc 1 72 20
	movq	-8(%rbp), %rax
	movq	%rax, %rdi
	call	_Z11stack_errorP5Stack@PLT
	.loc 1 72 26
	testl	%eax, %eax
	setne	%al
	.loc 1 72 5
	testb	%al, %al
	je	.L39
	.loc 1 72 51 discriminator 1
	movq	-8(%rbp), %rax
	addq	$72, %rax
	movq	%rax, %rdx
	movq	%rdx, %rax
	shrq	$3, %rax
	addq	$2147450880, %rax
	movzbl	(%rax), %eax
	testb	%al, %al
	setne	%cl
	cmpb	$3, %al
	setle	%al
	andl	%ecx, %eax
	testb	%al, %al
	je	.L40
	.loc 1 72 51 is_stmt 0
	movq	%rdx, %rdi
	call	__asan_report_load4@PLT
.L40:
	.loc 1 72 51 discriminator 1
	movq	-8(%rbp), %rax
	movl	72(%rax), %eax
	movl	%eax, %edi
	call	_Z17stack_err_decoderj@PLT
	.loc 1 72 83 is_stmt 1 discriminator 1
	movq	-8(%rbp), %rax
	movq	%rax, %rdi
	call	_Z11stack_errorP5Stack@PLT
	movl	%eax, %edx
	movq	-8(%rbp), %rax
	movl	%edx, %r8d
	movl	$72, %ecx
	leaq	.LC1(%rip), %rdx
	leaq	.LC6(%rip), %rsi
	movq	%rax, %rdi
	call	_Z10stack_dumpP5StackPKcS2_ij@PLT
	.loc 1 72 155 discriminator 1
	movl	$0, %eax
	jmp	.L41
.L39:
	.loc 1 74 14
	movq	-8(%rbp), %rax
	addq	$16, %rax
	movq	%rax, %rdx
	shrq	$3, %rdx
	addq	$2147450880, %rdx
	movzbl	(%rdx), %edx
	testb	%dl, %dl
	je	.L42
	movq	%rax, %rdi
	call	__asan_report_load8@PLT
.L42:
	movq	-8(%rbp), %rax
	movq	16(%rax), %rax
	.loc 1 74 19
	leaq	1(%rax), %rcx
	.loc 1 74 31
	movq	-8(%rbp), %rax
	addq	$24, %rax
	movq	%rax, %rdx
	shrq	$3, %rdx
	addq	$2147450880, %rdx
	movzbl	(%rdx), %edx
	testb	%dl, %dl
	je	.L43
	movq	%rax, %rdi
	call	__asan_report_load8@PLT
.L43:
	movq	-8(%rbp), %rax
	movq	24(%rax), %rax
	.loc 1 74 5
	cmpq	%rax, %rcx
	jl	.L44
	.loc 1 76 31
	movq	-8(%rbp), %rax
	movq	24(%rax), %rax
	.loc 1 76 20
	leaq	(%rax,%rax), %rdx
	movq	-8(%rbp), %rax
	movq	%rdx, %rsi
	movq	%rax, %rdi
	call	_Z12stack_resizeP5Stackl
.L44:
	.loc 1 79 17
	movq	-8(%rbp), %rax
	movq	%rax, %rdi
	call	_Z12stack_rehashP5Stack
	.loc 1 80 20
	movq	-8(%rbp), %rax
	movq	%rax, %rdi
	call	_Z11stack_errorP5Stack@PLT
	.loc 1 80 26
	testl	%eax, %eax
	setne	%al
	.loc 1 80 5
	testb	%al, %al
	je	.L45
	.loc 1 80 51 discriminator 1
	movq	-8(%rbp), %rax
	addq	$72, %rax
	movq	%rax, %rdx
	movq	%rdx, %rax
	shrq	$3, %rax
	addq	$2147450880, %rax
	movzbl	(%rax), %eax
	testb	%al, %al
	setne	%cl
	cmpb	$3, %al
	setle	%al
	andl	%ecx, %eax
	testb	%al, %al
	je	.L46
	.loc 1 80 51 is_stmt 0
	movq	%rdx, %rdi
	call	__asan_report_load4@PLT
.L46:
	.loc 1 80 51 discriminator 1
	movq	-8(%rbp), %rax
	movl	72(%rax), %eax
	movl	%eax, %edi
	call	_Z17stack_err_decoderj@PLT
	.loc 1 80 83 is_stmt 1 discriminator 1
	movq	-8(%rbp), %rax
	movq	%rax, %rdi
	call	_Z11stack_errorP5Stack@PLT
	movl	%eax, %edx
	movq	-8(%rbp), %rax
	movl	%edx, %r8d
	movl	$80, %ecx
	leaq	.LC1(%rip), %rdx
	leaq	.LC6(%rip), %rsi
	movq	%rax, %rdi
	call	_Z10stack_dumpP5StackPKcS2_ij@PLT
	.loc 1 80 155 discriminator 1
	movl	$0, %eax
	jmp	.L41
.L45:
	.loc 1 82 10
	movq	-8(%rbp), %rax
	addq	$8, %rax
	movq	%rax, %rdx
	shrq	$3, %rdx
	addq	$2147450880, %rdx
	movzbl	(%rdx), %edx
	testb	%dl, %dl
	je	.L47
	movq	%rax, %rdi
	call	__asan_report_load8@PLT
.L47:
	movq	-8(%rbp), %rax
	movq	8(%rax), %rcx
	.loc 1 82 20
	movq	-8(%rbp), %rax
	addq	$16, %rax
	movq	%rax, %rdx
	shrq	$3, %rdx
	addq	$2147450880, %rdx
	movzbl	(%rdx), %edx
	testb	%dl, %dl
	je	.L48
	movq	%rax, %rdi
	call	__asan_report_load8@PLT
.L48:
	movq	-8(%rbp), %rax
	movq	16(%rax), %rax
	.loc 1 82 24
	salq	$3, %rax
	addq	%rcx, %rax
	.loc 1 82 26
	movq	%rax, %rdx
	movq	%rdx, %rcx
	shrq	$3, %rcx
	addq	$2147450880, %rcx
	movzbl	(%rcx), %ecx
	testb	%cl, %cl
	je	.L49
	movq	%rdx, %rdi
	call	__asan_report_store8@PLT
.L49:
	movsd	-16(%rbp), %xmm0
	movsd	%xmm0, (%rax)
	.loc 1 83 10
	movq	-8(%rbp), %rax
	movq	16(%rax), %rax
	.loc 1 83 14
	leaq	1(%rax), %rdx
	movq	-8(%rbp), %rax
	movq	%rdx, 16(%rax)
	.loc 1 85 17
	movq	-8(%rbp), %rax
	movq	%rax, %rdi
	call	_Z12stack_rehashP5Stack
	.loc 1 87 20
	movq	-8(%rbp), %rax
	movq	%rax, %rdi
	call	_Z11stack_errorP5Stack@PLT
	.loc 1 87 26
	testl	%eax, %eax
	setne	%al
	.loc 1 87 5
	testb	%al, %al
	je	.L50
	.loc 1 87 51 discriminator 1
	movq	-8(%rbp), %rax
	addq	$72, %rax
	movq	%rax, %rdx
	movq	%rdx, %rax
	shrq	$3, %rax
	addq	$2147450880, %rax
	movzbl	(%rax), %eax
	testb	%al, %al
	setne	%cl
	cmpb	$3, %al
	setle	%al
	andl	%ecx, %eax
	testb	%al, %al
	je	.L51
	.loc 1 87 51 is_stmt 0
	movq	%rdx, %rdi
	call	__asan_report_load4@PLT
.L51:
	.loc 1 87 51 discriminator 1
	movq	-8(%rbp), %rax
	movl	72(%rax), %eax
	movl	%eax, %edi
	call	_Z17stack_err_decoderj@PLT
	.loc 1 87 83 is_stmt 1 discriminator 1
	movq	-8(%rbp), %rax
	movq	%rax, %rdi
	call	_Z11stack_errorP5Stack@PLT
	movl	%eax, %edx
	movq	-8(%rbp), %rax
	movl	%edx, %r8d
	movl	$87, %ecx
	leaq	.LC1(%rip), %rdx
	leaq	.LC6(%rip), %rsi
	movq	%rax, %rdi
	call	_Z10stack_dumpP5StackPKcS2_ij@PLT
	.loc 1 87 155 discriminator 1
	movl	$0, %eax
	jmp	.L41
.L50:
	.loc 1 89 17
	movq	-8(%rbp), %rax
	addq	$72, %rax
	movq	%rax, %rdx
	movq	%rdx, %rax
	shrq	$3, %rax
	addq	$2147450880, %rax
	movzbl	(%rax), %eax
	testb	%al, %al
	setne	%cl
	cmpb	$3, %al
	setle	%al
	andl	%ecx, %eax
	testb	%al, %al
	je	.L52
	movq	%rdx, %rdi
	call	__asan_report_load4@PLT
.L52:
	movq	-8(%rbp), %rax
	movl	72(%rax), %eax
.L41:
	.loc 1 90 1
	leave
	.cfi_def_cfa 7, 8
	ret
	.cfi_endproc
.LFE959:
	.size	_Z10stack_pushP5Stackd, .-_Z10stack_pushP5Stackd
	.section	.rodata
	.align 32
.LC7:
	.string	"stack_pop"
	.zero	54
	.text
	.globl	_Z9stack_popP5StackPd
	.type	_Z9stack_popP5StackPd, @function
_Z9stack_popP5StackPd:
.LASANPC960:
.LFB960:
	.loc 1 93 1
	.cfi_startproc
	endbr64
	pushq	%rbp
	.cfi_def_cfa_offset 16
	.cfi_offset 6, -16
	movq	%rsp, %rbp
	.cfi_def_cfa_register 6
	subq	$16, %rsp
	movq	%rdi, -8(%rbp)
	movq	%rsi, -16(%rbp)
	.loc 1 95 20
	movq	-8(%rbp), %rax
	movq	%rax, %rdi
	call	_Z11stack_errorP5Stack@PLT
	.loc 1 95 26
	testl	%eax, %eax
	setne	%al
	.loc 1 95 5
	testb	%al, %al
	je	.L54
	.loc 1 95 51 discriminator 1
	movq	-8(%rbp), %rax
	addq	$72, %rax
	movq	%rax, %rdx
	movq	%rdx, %rax
	shrq	$3, %rax
	addq	$2147450880, %rax
	movzbl	(%rax), %eax
	testb	%al, %al
	setne	%cl
	cmpb	$3, %al
	setle	%al
	andl	%ecx, %eax
	testb	%al, %al
	je	.L55
	.loc 1 95 51 is_stmt 0
	movq	%rdx, %rdi
	call	__asan_report_load4@PLT
.L55:
	.loc 1 95 51 discriminator 1
	movq	-8(%rbp), %rax
	movl	72(%rax), %eax
	movl	%eax, %edi
	call	_Z17stack_err_decoderj@PLT
	.loc 1 95 83 is_stmt 1 discriminator 1
	movq	-8(%rbp), %rax
	movq	%rax, %rdi
	call	_Z11stack_errorP5Stack@PLT
	movl	%eax, %edx
	movq	-8(%rbp), %rax
	movl	%edx, %r8d
	movl	$95, %ecx
	leaq	.LC1(%rip), %rdx
	leaq	.LC7(%rip), %rsi
	movq	%rax, %rdi
	call	_Z10stack_dumpP5StackPKcS2_ij@PLT
	.loc 1 95 155 discriminator 1
	pxor	%xmm0, %xmm0
	jmp	.L56
.L54:
	.loc 1 97 14
	movq	-8(%rbp), %rax
	addq	$16, %rax
	movq	%rax, %rdx
	shrq	$3, %rdx
	addq	$2147450880, %rdx
	movzbl	(%rdx), %edx
	testb	%dl, %dl
	je	.L57
	movq	%rax, %rdi
	call	__asan_report_load8@PLT
.L57:
	movq	-8(%rbp), %rax
	movq	16(%rax), %rax
	.loc 1 97 5
	testq	%rax, %rax
	jg	.L58
	.loc 1 99 28
	movq	-8(%rbp), %rax
	addq	$72, %rax
	movq	%rax, %rdx
	movq	%rdx, %rax
	shrq	$3, %rax
	addq	$2147450880, %rax
	movzbl	(%rax), %eax
	testb	%al, %al
	setne	%cl
	cmpb	$3, %al
	setle	%al
	andl	%ecx, %eax
	testb	%al, %al
	je	.L59
	movq	%rdx, %rdi
	call	__asan_report_load4@PLT
.L59:
	movq	-8(%rbp), %rax
	movl	72(%rax), %eax
	orb	$32, %ah
	movl	%eax, %edx
	movq	-8(%rbp), %rax
	movl	%edx, 72(%rax)
	.loc 1 100 24
	movq	-8(%rbp), %rax
	movq	%rax, %rdi
	call	_Z11stack_errorP5Stack@PLT
	.loc 1 100 30
	testl	%eax, %eax
	setne	%al
	.loc 1 100 9
	testb	%al, %al
	je	.L58
	.loc 1 100 55 discriminator 1
	movq	-8(%rbp), %rax
	addq	$72, %rax
	movq	%rax, %rdx
	movq	%rdx, %rax
	shrq	$3, %rax
	addq	$2147450880, %rax
	movzbl	(%rax), %eax
	testb	%al, %al
	setne	%cl
	cmpb	$3, %al
	setle	%al
	andl	%ecx, %eax
	testb	%al, %al
	je	.L60
	.loc 1 100 55 is_stmt 0
	movq	%rdx, %rdi
	call	__asan_report_load4@PLT
.L60:
	.loc 1 100 55 discriminator 1
	movq	-8(%rbp), %rax
	movl	72(%rax), %eax
	movl	%eax, %edi
	call	_Z17stack_err_decoderj@PLT
	.loc 1 100 87 is_stmt 1 discriminator 1
	movq	-8(%rbp), %rax
	movq	%rax, %rdi
	call	_Z11stack_errorP5Stack@PLT
	movl	%eax, %edx
	movq	-8(%rbp), %rax
	movl	%edx, %r8d
	movl	$100, %ecx
	leaq	.LC1(%rip), %rdx
	leaq	.LC7(%rip), %rsi
	movq	%rax, %rdi
	call	_Z10stack_dumpP5StackPKcS2_ij@PLT
	.loc 1 100 160 discriminator 1
	pxor	%xmm0, %xmm0
	jmp	.L56
.L58:
	.loc 1 103 5
	cmpq	$0, -16(%rbp)
	jne	.L61
	.loc 1 105 28
	movq	-8(%rbp), %rax
	addq	$72, %rax
	movq	%rax, %rdx
	movq	%rdx, %rax
	shrq	$3, %rax
	addq	$2147450880, %rax
	movzbl	(%rax), %eax
	testb	%al, %al
	setne	%cl
	cmpb	$3, %al
	setle	%al
	andl	%ecx, %eax
	testb	%al, %al
	je	.L62
	movq	%rdx, %rdi
	call	__asan_report_load4@PLT
.L62:
	movq	-8(%rbp), %rax
	movl	72(%rax), %eax
	orb	$-128, %ah
	movl	%eax, %edx
	movq	-8(%rbp), %rax
	movl	%edx, 72(%rax)
	.loc 1 106 24
	movq	-8(%rbp), %rax
	movq	%rax, %rdi
	call	_Z11stack_errorP5Stack@PLT
	.loc 1 106 30
	testl	%eax, %eax
	setne	%al
	.loc 1 106 9
	testb	%al, %al
	je	.L61
	.loc 1 106 55 discriminator 1
	movq	-8(%rbp), %rax
	addq	$72, %rax
	movq	%rax, %rdx
	movq	%rdx, %rax
	shrq	$3, %rax
	addq	$2147450880, %rax
	movzbl	(%rax), %eax
	testb	%al, %al
	setne	%cl
	cmpb	$3, %al
	setle	%al
	andl	%ecx, %eax
	testb	%al, %al
	je	.L63
	.loc 1 106 55 is_stmt 0
	movq	%rdx, %rdi
	call	__asan_report_load4@PLT
.L63:
	.loc 1 106 55 discriminator 1
	movq	-8(%rbp), %rax
	movl	72(%rax), %eax
	movl	%eax, %edi
	call	_Z17stack_err_decoderj@PLT
	.loc 1 106 87 is_stmt 1 discriminator 1
	movq	-8(%rbp), %rax
	movq	%rax, %rdi
	call	_Z11stack_errorP5Stack@PLT
	movl	%eax, %edx
	movq	-8(%rbp), %rax
	movl	%edx, %r8d
	movl	$106, %ecx
	leaq	.LC1(%rip), %rdx
	leaq	.LC7(%rip), %rsi
	movq	%rax, %rdi
	call	_Z10stack_dumpP5StackPKcS2_ij@PLT
	.loc 1 106 160 discriminator 1
	pxor	%xmm0, %xmm0
	jmp	.L56
.L61:
	.loc 1 109 15
	movq	-8(%rbp), %rax
	addq	$16, %rax
	movq	%rax, %rdx
	shrq	$3, %rdx
	addq	$2147450880, %rdx
	movzbl	(%rdx), %edx
	testb	%dl, %dl
	je	.L64
	movq	%rax, %rdi
	call	__asan_report_load8@PLT
.L64:
	movq	-8(%rbp), %rax
	movq	16(%rax), %rax
	.loc 1 109 19
	addq	$1, %rax
	.loc 1 109 23
	leaq	0(,%rax,4), %rcx
	.loc 1 109 34
	movq	-8(%rbp), %rax
	addq	$24, %rax
	movq	%rax, %rdx
	shrq	$3, %rdx
	addq	$2147450880, %rdx
	movzbl	(%rdx), %edx
	testb	%dl, %dl
	je	.L65
	movq	%rax, %rdi
	call	__asan_report_load8@PLT
.L65:
	movq	-8(%rbp), %rax
	movq	24(%rax), %rax
	.loc 1 109 5
	cmpq	%rax, %rcx
	jge	.L66
	.loc 1 111 32
	movq	-8(%rbp), %rax
	movq	24(%rax), %rax
	.loc 1 111 21
	movq	%rax, %rdx
	shrq	$63, %rdx
	addq	%rdx, %rax
	sarq	%rax
	movq	%rax, %rdx
	movq	-8(%rbp), %rax
	movq	%rdx, %rsi
	movq	%rax, %rdi
	call	_Z12stack_resizeP5Stackl
.L66:
	.loc 1 114 19
	movq	-8(%rbp), %rax
	addq	$8, %rax
	movq	%rax, %rdx
	shrq	$3, %rdx
	addq	$2147450880, %rdx
	movzbl	(%rdx), %edx
	testb	%dl, %dl
	je	.L67
	movq	%rax, %rdi
	call	__asan_report_load8@PLT
.L67:
	movq	-8(%rbp), %rax
	movq	8(%rax), %rcx
	.loc 1 114 29
	movq	-8(%rbp), %rax
	addq	$16, %rax
	movq	%rax, %rdx
	shrq	$3, %rdx
	addq	$2147450880, %rdx
	movzbl	(%rdx), %edx
	testb	%dl, %dl
	je	.L68
	movq	%rax, %rdi
	call	__asan_report_load8@PLT
.L68:
	movq	-8(%rbp), %rax
	movq	16(%rax), %rax
	.loc 1 114 35
	salq	$3, %rax
	subq	$8, %rax
	addq	%rcx, %rax
	movq	%rax, %rdx
	movq	%rdx, %rcx
	shrq	$3, %rcx
	addq	$2147450880, %rcx
	movzbl	(%rcx), %ecx
	testb	%cl, %cl
	je	.L69
	movq	%rdx, %rdi
	call	__asan_report_load8@PLT
.L69:
	movsd	(%rax), %xmm0
	.loc 1 114 12
	movq	-16(%rbp), %rax
	movq	%rax, %rdx
	shrq	$3, %rdx
	addq	$2147450880, %rdx
	movzbl	(%rdx), %edx
	testb	%dl, %dl
	je	.L70
	movq	%rax, %rdi
	call	__asan_report_store8@PLT
.L70:
	movq	-16(%rbp), %rax
	movsd	%xmm0, (%rax)
	.loc 1 116 43
	movq	-8(%rbp), %rax
	addq	$24, %rax
	movq	%rax, %rdx
	shrq	$3, %rdx
	addq	$2147450880, %rdx
	movzbl	(%rdx), %edx
	testb	%dl, %dl
	je	.L71
	movq	%rax, %rdi
	call	__asan_report_load8@PLT
.L71:
	movq	-8(%rbp), %rax
	movq	24(%rax), %rax
	.loc 1 116 21
	movq	%rax, %rdx
	.loc 1 116 32
	movq	-8(%rbp), %rax
	movq	16(%rax), %rax
	.loc 1 116 21
	movq	%rax, %rcx
	movq	-8(%rbp), %rax
	movq	%rcx, %rsi
	movq	%rax, %rdi
	call	_Z16stack_poison_getP5Stackmm
	.loc 1 117 10
	movq	-8(%rbp), %rax
	addq	$16, %rax
	movq	%rax, %rdx
	shrq	$3, %rdx
	addq	$2147450880, %rdx
	movzbl	(%rdx), %edx
	testb	%dl, %dl
	je	.L72
	movq	%rax, %rdi
	call	__asan_report_load8@PLT
.L72:
	movq	-8(%rbp), %rax
	movq	16(%rax), %rax
	.loc 1 117 14
	leaq	-1(%rax), %rdx
	movq	-8(%rbp), %rax
	movq	%rdx, 16(%rax)
	.loc 1 119 17
	movq	-8(%rbp), %rax
	movq	%rax, %rdi
	call	_Z12stack_rehashP5Stack
	.loc 1 120 20
	movq	-8(%rbp), %rax
	movq	%rax, %rdi
	call	_Z11stack_errorP5Stack@PLT
	.loc 1 120 26
	testl	%eax, %eax
	setne	%al
	.loc 1 120 5
	testb	%al, %al
	je	.L73
	.loc 1 120 51 discriminator 1
	movq	-8(%rbp), %rax
	addq	$72, %rax
	movq	%rax, %rdx
	movq	%rdx, %rax
	shrq	$3, %rax
	addq	$2147450880, %rax
	movzbl	(%rax), %eax
	testb	%al, %al
	setne	%cl
	cmpb	$3, %al
	setle	%al
	andl	%ecx, %eax
	testb	%al, %al
	je	.L74
	.loc 1 120 51 is_stmt 0
	movq	%rdx, %rdi
	call	__asan_report_load4@PLT
.L74:
	.loc 1 120 51 discriminator 1
	movq	-8(%rbp), %rax
	movl	72(%rax), %eax
	movl	%eax, %edi
	call	_Z17stack_err_decoderj@PLT
	.loc 1 120 83 is_stmt 1 discriminator 1
	movq	-8(%rbp), %rax
	movq	%rax, %rdi
	call	_Z11stack_errorP5Stack@PLT
	movl	%eax, %edx
	movq	-8(%rbp), %rax
	movl	%edx, %r8d
	movl	$120, %ecx
	leaq	.LC1(%rip), %rdx
	leaq	.LC7(%rip), %rsi
	movq	%rax, %rdi
	call	_Z10stack_dumpP5StackPKcS2_ij@PLT
	.loc 1 120 156 discriminator 1
	pxor	%xmm0, %xmm0
	jmp	.L56
.L73:
	.loc 1 122 17
	movq	-8(%rbp), %rax
	addq	$72, %rax
	movq	%rax, %rdx
	movq	%rdx, %rax
	shrq	$3, %rax
	addq	$2147450880, %rax
	movzbl	(%rax), %eax
	testb	%al, %al
	setne	%cl
	cmpb	$3, %al
	setle	%al
	andl	%ecx, %eax
	testb	%al, %al
	je	.L75
	movq	%rdx, %rdi
	call	__asan_report_load4@PLT
.L75:
	movq	-8(%rbp), %rax
	movl	72(%rax), %eax
	movl	%eax, %eax
	testq	%rax, %rax
	js	.L76
	pxor	%xmm0, %xmm0
	cvtsi2sdq	%rax, %xmm0
	jmp	.L56
.L76:
	movq	%rax, %rdx
	shrq	%rdx
	andl	$1, %eax
	orq	%rax, %rdx
	pxor	%xmm0, %xmm0
	cvtsi2sdq	%rdx, %xmm0
	addsd	%xmm0, %xmm0
.L56:
	.loc 1 123 1
	movq	%xmm0, %rax
	movq	%rax, %xmm0
	leave
	.cfi_def_cfa 7, 8
	ret
	.cfi_endproc
.LFE960:
	.size	_Z9stack_popP5StackPd, .-_Z9stack_popP5StackPd
	.section	.rodata
	.align 32
.LC9:
	.string	"stack_dtor"
	.zero	53
	.text
	.globl	_Z10stack_dtorP5Stack
	.type	_Z10stack_dtorP5Stack, @function
_Z10stack_dtorP5Stack:
.LASANPC961:
.LFB961:
	.loc 1 126 1
	.cfi_startproc
	endbr64
	pushq	%rbp
	.cfi_def_cfa_offset 16
	.cfi_offset 6, -16
	movq	%rsp, %rbp
	.cfi_def_cfa_register 6
	subq	$16, %rsp
	movq	%rdi, -8(%rbp)
	.loc 1 127 13
	movq	-8(%rbp), %rax
	addq	$76, %rax
	movq	%rax, %rdx
	shrq	$3, %rdx
	addq	$2147450880, %rdx
	movzbl	(%rdx), %edx
	testb	%dl, %dl
	setne	%cl
	movq	%rax, %rsi
	andl	$7, %esi
	cmpb	%dl, %sil
	setge	%dl
	andl	%ecx, %edx
	testb	%dl, %dl
	je	.L79
	movq	%rax, %rdi
	call	__asan_report_load1@PLT
.L79:
	movq	-8(%rbp), %rax
	movzbl	76(%rax), %eax
	movsbl	%al, %eax
	.loc 1 127 18
	andl	$2, %eax
	.loc 1 127 5
	testl	%eax, %eax
	je	.L80
	.loc 1 129 28
	movq	-8(%rbp), %rax
	addq	$72, %rax
	movq	%rax, %rdx
	movq	%rdx, %rax
	shrq	$3, %rax
	addq	$2147450880, %rax
	movzbl	(%rax), %eax
	testb	%al, %al
	setne	%cl
	cmpb	$3, %al
	setle	%al
	andl	%ecx, %eax
	testb	%al, %al
	je	.L81
	movq	%rdx, %rdi
	call	__asan_report_load4@PLT
.L81:
	movq	-8(%rbp), %rax
	movl	72(%rax), %eax
	orb	$8, %ah
	movl	%eax, %edx
	movq	-8(%rbp), %rax
	movl	%edx, 72(%rax)
	.loc 1 130 26
	movq	-8(%rbp), %rax
	movl	72(%rax), %eax
	movl	%eax, %edi
	call	_Z17stack_err_decoderj@PLT
	.loc 1 131 21
	movq	-8(%rbp), %rax
	addq	$72, %rax
	movq	%rax, %rdx
	movq	%rdx, %rax
	shrq	$3, %rax
	addq	$2147450880, %rax
	movzbl	(%rax), %eax
	testb	%al, %al
	setne	%cl
	cmpb	$3, %al
	setle	%al
	andl	%ecx, %eax
	testb	%al, %al
	je	.L82
	movq	%rdx, %rdi
	call	__asan_report_load4@PLT
.L82:
	movq	-8(%rbp), %rax
	movl	72(%rax), %eax
	jmp	.L83
.L80:
	.loc 1 134 15
	movq	-8(%rbp), %rax
	addq	$76, %rax
	movq	%rax, %rdx
	shrq	$3, %rdx
	addq	$2147450880, %rdx
	movzbl	(%rdx), %edx
	testb	%dl, %dl
	setne	%cl
	movq	%rax, %rsi
	andl	$7, %esi
	cmpb	%dl, %sil
	setge	%dl
	andl	%ecx, %edx
	testb	%dl, %dl
	je	.L84
	movq	%rax, %rdi
	call	__asan_report_load1@PLT
.L84:
	movq	-8(%rbp), %rax
	movzbl	76(%rax), %eax
	orl	$2, %eax
	movl	%eax, %edx
	movq	-8(%rbp), %rax
	movb	%dl, 76(%rax)
	.loc 1 135 17
	movq	-8(%rbp), %rax
	movq	%rax, %rdi
	call	_Z12stack_rehashP5Stack
	.loc 1 136 20
	movq	-8(%rbp), %rax
	movq	%rax, %rdi
	call	_Z11stack_errorP5Stack@PLT
	.loc 1 136 26
	testl	%eax, %eax
	setne	%al
	.loc 1 136 5
	testb	%al, %al
	je	.L85
	.loc 1 136 51 discriminator 1
	movq	-8(%rbp), %rax
	addq	$72, %rax
	movq	%rax, %rdx
	movq	%rdx, %rax
	shrq	$3, %rax
	addq	$2147450880, %rax
	movzbl	(%rax), %eax
	testb	%al, %al
	setne	%cl
	cmpb	$3, %al
	setle	%al
	andl	%ecx, %eax
	testb	%al, %al
	je	.L86
	.loc 1 136 51 is_stmt 0
	movq	%rdx, %rdi
	call	__asan_report_load4@PLT
.L86:
	.loc 1 136 51 discriminator 1
	movq	-8(%rbp), %rax
	movl	72(%rax), %eax
	movl	%eax, %edi
	call	_Z17stack_err_decoderj@PLT
	.loc 1 136 83 is_stmt 1 discriminator 1
	movq	-8(%rbp), %rax
	movq	%rax, %rdi
	call	_Z11stack_errorP5Stack@PLT
	movl	%eax, %edx
	movq	-8(%rbp), %rax
	movl	%edx, %r8d
	movl	$136, %ecx
	leaq	.LC1(%rip), %rdx
	leaq	.LC9(%rip), %rsi
	movq	%rax, %rdi
	call	_Z10stack_dumpP5StackPKcS2_ij@PLT
	.loc 1 136 156 discriminator 1
	movl	$0, %eax
	jmp	.L83
.L85:
	.loc 1 138 35
	movq	-8(%rbp), %rax
	addq	$24, %rax
	movq	%rax, %rdx
	shrq	$3, %rdx
	addq	$2147450880, %rdx
	movzbl	(%rdx), %edx
	testb	%dl, %dl
	je	.L87
	movq	%rax, %rdi
	call	__asan_report_load8@PLT
.L87:
	movq	-8(%rbp), %rax
	movq	24(%rax), %rax
	.loc 1 138 21
	movq	%rax, %rdx
	movq	-8(%rbp), %rax
	movl	$0, %esi
	movq	%rax, %rdi
	call	_Z16stack_poison_getP5Stackmm
	.loc 1 139 19
	movq	-8(%rbp), %rax
	addq	$24, %rax
	movq	%rax, %rdx
	shrq	$3, %rdx
	addq	$2147450880, %rdx
	movzbl	(%rdx), %edx
	testb	%dl, %dl
	je	.L88
	movq	%rax, %rdi
	call	__asan_report_store8@PLT
.L88:
	movq	-8(%rbp), %rax
	movq	$-1, 24(%rax)
	.loc 1 140 15
	movq	-8(%rbp), %rax
	addq	$16, %rax
	movq	%rax, %rdx
	shrq	$3, %rdx
	addq	$2147450880, %rdx
	movzbl	(%rdx), %edx
	testb	%dl, %dl
	je	.L89
	movq	%rax, %rdi
	call	__asan_report_store8@PLT
.L89:
	movq	-8(%rbp), %rax
	movq	$-1, 16(%rax)
	.loc 1 142 23
	movq	-8(%rbp), %rax
	addq	$8, %rax
	movq	%rax, %rdx
	shrq	$3, %rdx
	addq	$2147450880, %rdx
	movzbl	(%rdx), %edx
	testb	%dl, %dl
	je	.L90
	movq	%rax, %rdi
	call	__asan_report_load8@PLT
.L90:
	movq	-8(%rbp), %rax
	movq	8(%rax), %rax
	.loc 1 142 9
	subq	$8, %rax
	movq	%rax, %rdi
	call	free@PLT
	.loc 1 144 12
	movl	$0, %eax
.L83:
	.loc 1 145 1
	leave
	.cfi_def_cfa 7, 8
	ret
	.cfi_endproc
.LFE961:
	.size	_Z10stack_dtorP5Stack, .-_Z10stack_dtorP5Stack
	.section	.rodata
	.align 32
.LC10:
	.string	"stack_resize"
	.zero	51
	.text
	.globl	_Z12stack_resizeP5Stackl
	.type	_Z12stack_resizeP5Stackl, @function
_Z12stack_resizeP5Stackl:
.LASANPC962:
.LFB962:
	.loc 1 148 1
	.cfi_startproc
	endbr64
	pushq	%rbp
	.cfi_def_cfa_offset 16
	.cfi_offset 6, -16
	movq	%rsp, %rbp
	.cfi_def_cfa_register 6
	subq	$16, %rsp
	movq	%rdi, -8(%rbp)
	movq	%rsi, -16(%rbp)
	.loc 1 149 20
	movq	-8(%rbp), %rax
	movq	%rax, %rdi
	call	_Z11stack_errorP5Stack@PLT
	.loc 1 149 26
	testl	%eax, %eax
	setne	%al
	.loc 1 149 5
	testb	%al, %al
	je	.L92
	.loc 1 149 51 discriminator 1
	movq	-8(%rbp), %rax
	addq	$72, %rax
	movq	%rax, %rdx
	movq	%rdx, %rax
	shrq	$3, %rax
	addq	$2147450880, %rax
	movzbl	(%rax), %eax
	testb	%al, %al
	setne	%cl
	cmpb	$3, %al
	setle	%al
	andl	%ecx, %eax
	testb	%al, %al
	je	.L93
	.loc 1 149 51 is_stmt 0
	movq	%rdx, %rdi
	call	__asan_report_load4@PLT
.L93:
	.loc 1 149 51 discriminator 1
	movq	-8(%rbp), %rax
	movl	72(%rax), %eax
	movl	%eax, %edi
	call	_Z17stack_err_decoderj@PLT
	.loc 1 149 83 is_stmt 1 discriminator 1
	movq	-8(%rbp), %rax
	movq	%rax, %rdi
	call	_Z11stack_errorP5Stack@PLT
	movl	%eax, %edx
	movq	-8(%rbp), %rax
	movl	%edx, %r8d
	movl	$149, %ecx
	leaq	.LC1(%rip), %rdx
	leaq	.LC10(%rip), %rsi
	movq	%rax, %rdi
	call	_Z10stack_dumpP5StackPKcS2_ij@PLT
	.loc 1 149 156 discriminator 1
	movl	$0, %eax
	jmp	.L94
.L92:
	.loc 1 151 70
	movq	-16(%rbp), %rdx
	.loc 1 151 83
	movq	%rdx, %rax
	salq	$3, %rax
	addq	%rdx, %rax
	.loc 1 151 32
	leaq	16(%rax), %rdx
	.loc 1 151 45
	movq	-8(%rbp), %rax
	addq	$8, %rax
	movq	%rax, %rcx
	shrq	$3, %rcx
	addq	$2147450880, %rcx
	movzbl	(%rcx), %ecx
	testb	%cl, %cl
	je	.L95
	movq	%rax, %rdi
	call	__asan_report_load8@PLT
.L95:
	movq	-8(%rbp), %rax
	movq	8(%rax), %rax
	.loc 1 151 32
	subq	$8, %rax
	movq	%rdx, %rsi
	movq	%rax, %rdi
	call	realloc@PLT
	.loc 1 151 15
	movq	-8(%rbp), %rdx
	addq	$8, %rdx
	movq	%rdx, %rcx
	shrq	$3, %rcx
	addq	$2147450880, %rcx
	movzbl	(%rcx), %ecx
	testb	%cl, %cl
	je	.L96
	movq	%rdx, %rdi
	call	__asan_report_store8@PLT
.L96:
	movq	-8(%rbp), %rdx
	movq	%rax, 8(%rdx)
	.loc 1 153 14
	movq	-8(%rbp), %rax
	movq	8(%rax), %rax
	.loc 1 153 5
	testq	%rax, %rax
	jne	.L97
	.loc 1 155 23
	movq	-8(%rbp), %rax
	addq	$24, %rax
	movq	%rax, %rdx
	shrq	$3, %rdx
	addq	$2147450880, %rdx
	movzbl	(%rdx), %edx
	testb	%dl, %dl
	je	.L98
	movq	%rax, %rdi
	call	__asan_report_store8@PLT
.L98:
	movq	-8(%rbp), %rax
	movq	$-1, 24(%rax)
	.loc 1 156 19
	movq	-8(%rbp), %rax
	addq	$76, %rax
	movq	%rax, %rdx
	shrq	$3, %rdx
	addq	$2147450880, %rdx
	movzbl	(%rdx), %edx
	testb	%dl, %dl
	setne	%cl
	movq	%rax, %rsi
	andl	$7, %esi
	cmpb	%dl, %sil
	setge	%dl
	andl	%ecx, %edx
	testb	%dl, %dl
	je	.L99
	movq	%rax, %rdi
	call	__asan_report_load1@PLT
.L99:
	movq	-8(%rbp), %rax
	movzbl	76(%rax), %eax
	orl	$4, %eax
	movl	%eax, %edx
	movq	-8(%rbp), %rax
	movb	%dl, 76(%rax)
	.loc 1 158 24
	movq	-8(%rbp), %rax
	movq	%rax, %rdi
	call	_Z11stack_errorP5Stack@PLT
	.loc 1 158 30
	testl	%eax, %eax
	setne	%al
	.loc 1 158 9
	testb	%al, %al
	je	.L97
	.loc 1 158 55 discriminator 1
	movq	-8(%rbp), %rax
	addq	$72, %rax
	movq	%rax, %rdx
	movq	%rdx, %rax
	shrq	$3, %rax
	addq	$2147450880, %rax
	movzbl	(%rax), %eax
	testb	%al, %al
	setne	%cl
	cmpb	$3, %al
	setle	%al
	andl	%ecx, %eax
	testb	%al, %al
	je	.L100
	.loc 1 158 55 is_stmt 0
	movq	%rdx, %rdi
	call	__asan_report_load4@PLT
.L100:
	.loc 1 158 55 discriminator 1
	movq	-8(%rbp), %rax
	movl	72(%rax), %eax
	movl	%eax, %edi
	call	_Z17stack_err_decoderj@PLT
	.loc 1 158 87 is_stmt 1 discriminator 1
	movq	-8(%rbp), %rax
	movq	%rax, %rdi
	call	_Z11stack_errorP5Stack@PLT
	movl	%eax, %edx
	movq	-8(%rbp), %rax
	movl	%edx, %r8d
	movl	$158, %ecx
	leaq	.LC1(%rip), %rdx
	leaq	.LC10(%rip), %rsi
	movq	%rax, %rdi
	call	_Z10stack_dumpP5StackPKcS2_ij@PLT
	.loc 1 158 160 discriminator 1
	movl	$0, %eax
	jmp	.L94
.L97:
	.loc 1 161 19
	movq	-8(%rbp), %rax
	addq	$24, %rax
	movq	%rax, %rdx
	shrq	$3, %rdx
	addq	$2147450880, %rdx
	movzbl	(%rdx), %edx
	testb	%dl, %dl
	je	.L101
	movq	%rax, %rdi
	call	__asan_report_store8@PLT
.L101:
	movq	-8(%rbp), %rax
	movq	-16(%rbp), %rdx
	movq	%rdx, 24(%rax)
	.loc 1 162 23
	movq	-8(%rbp), %rax
	addq	$8, %rax
	movq	%rax, %rdx
	shrq	$3, %rdx
	addq	$2147450880, %rdx
	movzbl	(%rdx), %edx
	testb	%dl, %dl
	je	.L102
	movq	%rax, %rdi
	call	__asan_report_load8@PLT
.L102:
	movq	-8(%rbp), %rax
	movq	8(%rax), %rax
	.loc 1 162 29
	movq	%rax, %rdx
	movq	%rdx, %rcx
	shrq	$3, %rcx
	addq	$2147450880, %rcx
	movzbl	(%rcx), %ecx
	testb	%cl, %cl
	je	.L103
	movq	%rdx, %rdi
	call	__asan_report_store8@PLT
.L103:
	movl	$2882382830, %esi
	movq	%rsi, (%rax)
	.loc 1 162 69
	movq	-8(%rbp), %rax
	movq	8(%rax), %rdx
	.loc 1 162 104
	movq	-16(%rbp), %rax
	addq	$1, %rax
	salq	$3, %rax
	.loc 1 162 45
	addq	%rdx, %rax
	.loc 1 162 125
	movq	%rax, %rdx
	movq	%rdx, %rcx
	shrq	$3, %rcx
	addq	$2147450880, %rcx
	movzbl	(%rcx), %ecx
	testb	%cl, %cl
	je	.L104
	movq	%rdx, %rdi
	call	__asan_report_store8@PLT
.L104:
	movl	$2882382830, %esi
	movq	%rsi, (%rax)
	.loc 1 162 175
	movq	-8(%rbp), %rax
	movq	8(%rax), %rax
	.loc 1 162 151
	leaq	8(%rax), %rdx
	.loc 1 162 149
	movq	-8(%rbp), %rax
	movq	%rdx, 8(%rax)
	.loc 1 169 17
	movq	-8(%rbp), %rax
	movq	%rax, %rdi
	call	_Z12stack_rehashP5Stack
	.loc 1 171 43
	movq	-8(%rbp), %rax
	addq	$24, %rax
	movq	%rax, %rdx
	shrq	$3, %rdx
	addq	$2147450880, %rdx
	movzbl	(%rdx), %edx
	testb	%dl, %dl
	je	.L105
	movq	%rax, %rdi
	call	__asan_report_load8@PLT
.L105:
	movq	-8(%rbp), %rax
	movq	24(%rax), %rax
	.loc 1 171 21
	movq	%rax, %rsi
	.loc 1 171 32
	movq	-8(%rbp), %rax
	addq	$16, %rax
	movq	%rax, %rdx
	shrq	$3, %rdx
	addq	$2147450880, %rdx
	movzbl	(%rdx), %edx
	testb	%dl, %dl
	je	.L106
	movq	%rax, %rdi
	call	__asan_report_load8@PLT
.L106:
	movq	-8(%rbp), %rax
	movq	16(%rax), %rax
	.loc 1 171 21
	movq	%rax, %rcx
	movq	-8(%rbp), %rax
	movq	%rsi, %rdx
	movq	%rcx, %rsi
	movq	%rax, %rdi
	call	_Z16stack_poison_getP5Stackmm
	.loc 1 173 20
	movq	-8(%rbp), %rax
	movq	%rax, %rdi
	call	_Z11stack_errorP5Stack@PLT
	.loc 1 173 26
	testl	%eax, %eax
	setne	%al
	.loc 1 173 5
	testb	%al, %al
	je	.L107
	.loc 1 173 51 discriminator 1
	movq	-8(%rbp), %rax
	addq	$72, %rax
	movq	%rax, %rdx
	movq	%rdx, %rax
	shrq	$3, %rax
	addq	$2147450880, %rax
	movzbl	(%rax), %eax
	testb	%al, %al
	setne	%cl
	cmpb	$3, %al
	setle	%al
	andl	%ecx, %eax
	testb	%al, %al
	je	.L108
	.loc 1 173 51 is_stmt 0
	movq	%rdx, %rdi
	call	__asan_report_load4@PLT
.L108:
	.loc 1 173 51 discriminator 1
	movq	-8(%rbp), %rax
	movl	72(%rax), %eax
	movl	%eax, %edi
	call	_Z17stack_err_decoderj@PLT
	.loc 1 173 83 is_stmt 1 discriminator 1
	movq	-8(%rbp), %rax
	movq	%rax, %rdi
	call	_Z11stack_errorP5Stack@PLT
	movl	%eax, %edx
	movq	-8(%rbp), %rax
	movl	%edx, %r8d
	movl	$173, %ecx
	leaq	.LC1(%rip), %rdx
	leaq	.LC10(%rip), %rsi
	movq	%rax, %rdi
	call	_Z10stack_dumpP5StackPKcS2_ij@PLT
	.loc 1 173 156 discriminator 1
	movl	$0, %eax
	jmp	.L94
.L107:
	.loc 1 175 17
	movq	-8(%rbp), %rax
	addq	$72, %rax
	movq	%rax, %rdx
	movq	%rdx, %rax
	shrq	$3, %rax
	addq	$2147450880, %rax
	movzbl	(%rax), %eax
	testb	%al, %al
	setne	%cl
	cmpb	$3, %al
	setle	%al
	andl	%ecx, %eax
	testb	%al, %al
	je	.L109
	movq	%rdx, %rdi
	call	__asan_report_load4@PLT
.L109:
	movq	-8(%rbp), %rax
	movl	72(%rax), %eax
.L94:
	.loc 1 176 1
	leave
	.cfi_def_cfa 7, 8
	ret
	.cfi_endproc
.LFE962:
	.size	_Z12stack_resizeP5Stackl, .-_Z12stack_resizeP5Stackl
	.section	.rodata
	.align 32
.LC11:
	.string	"stack_poison_get"
	.zero	47
	.text
	.globl	_Z16stack_poison_getP5Stackmm
	.type	_Z16stack_poison_getP5Stackmm, @function
_Z16stack_poison_getP5Stackmm:
.LASANPC963:
.LFB963:
	.loc 1 179 1
	.cfi_startproc
	endbr64
	pushq	%rbp
	.cfi_def_cfa_offset 16
	.cfi_offset 6, -16
	movq	%rsp, %rbp
	.cfi_def_cfa_register 6
	subq	$48, %rsp
	movq	%rdi, -24(%rbp)
	movq	%rsi, -32(%rbp)
	movq	%rdx, -40(%rbp)
	.loc 1 180 20
	movq	-24(%rbp), %rax
	movq	%rax, %rdi
	call	_Z11stack_errorP5Stack@PLT
	.loc 1 180 26
	testl	%eax, %eax
	setne	%al
	.loc 1 180 5
	testb	%al, %al
	je	.L111
	.loc 1 180 51 discriminator 1
	movq	-24(%rbp), %rax
	addq	$72, %rax
	movq	%rax, %rdx
	movq	%rdx, %rax
	shrq	$3, %rax
	addq	$2147450880, %rax
	movzbl	(%rax), %eax
	testb	%al, %al
	setne	%cl
	cmpb	$3, %al
	setle	%al
	andl	%ecx, %eax
	testb	%al, %al
	je	.L112
	.loc 1 180 51 is_stmt 0
	movq	%rdx, %rdi
	call	__asan_report_load4@PLT
.L112:
	.loc 1 180 51 discriminator 1
	movq	-24(%rbp), %rax
	movl	72(%rax), %eax
	movl	%eax, %edi
	call	_Z17stack_err_decoderj@PLT
	.loc 1 180 83 is_stmt 1 discriminator 1
	movq	-24(%rbp), %rax
	movq	%rax, %rdi
	call	_Z11stack_errorP5Stack@PLT
	movl	%eax, %edx
	movq	-24(%rbp), %rax
	movl	%edx, %r8d
	movl	$180, %ecx
	leaq	.LC1(%rip), %rdx
	leaq	.LC11(%rip), %rsi
	movq	%rax, %rdi
	call	_Z10stack_dumpP5StackPKcS2_ij@PLT
	.loc 1 180 156 discriminator 1
	movl	$0, %eax
	jmp	.L113
.L111:
	.loc 1 181 12
	movq	-32(%rbp), %rax
	movq	%rax, -8(%rbp)
	.loc 1 182 5
	jmp	.L114
.L117:
	.loc 1 184 16 discriminator 2
	movq	-24(%rbp), %rax
	addq	$8, %rax
	movq	%rax, %rdx
	shrq	$3, %rdx
	addq	$2147450880, %rdx
	movzbl	(%rdx), %edx
	testb	%dl, %dl
	je	.L115
	.loc 1 184 16 is_stmt 0
	movq	%rax, %rdi
	call	__asan_report_load8@PLT
.L115:
	.loc 1 184 16 discriminator 2
	movq	-24(%rbp), %rax
	movq	8(%rax), %rdx
	.loc 1 184 21 is_stmt 1 discriminator 2
	movq	-8(%rbp), %rax
	salq	$3, %rax
	addq	%rdx, %rax
	.loc 1 184 26 discriminator 2
	movq	%rax, %rdx
	movq	%rdx, %rcx
	shrq	$3, %rcx
	addq	$2147450880, %rcx
	movzbl	(%rcx), %ecx
	testb	%cl, %cl
	je	.L116
	.loc 1 184 26 is_stmt 0
	movq	%rdx, %rdi
	call	__asan_report_store8@PLT
.L116:
	.loc 1 184 26 discriminator 2
	movsd	.LC12(%rip), %xmm0
	movsd	%xmm0, (%rax)
	.loc 1 182 5 is_stmt 1 discriminator 2
	addq	$1, -8(%rbp)
.L114:
	.loc 1 182 14 discriminator 1
	movq	-8(%rbp), %rax
	cmpq	-40(%rbp), %rax
	jb	.L117
	.loc 1 187 17
	movq	-24(%rbp), %rax
	movq	%rax, %rdi
	call	_Z12stack_rehashP5Stack
	.loc 1 188 20
	movq	-24(%rbp), %rax
	movq	%rax, %rdi
	call	_Z11stack_errorP5Stack@PLT
	.loc 1 188 26
	testl	%eax, %eax
	setne	%al
	.loc 1 188 5
	testb	%al, %al
	je	.L118
	.loc 1 188 51 discriminator 1
	movq	-24(%rbp), %rax
	addq	$72, %rax
	movq	%rax, %rdx
	movq	%rdx, %rax
	shrq	$3, %rax
	addq	$2147450880, %rax
	movzbl	(%rax), %eax
	testb	%al, %al
	setne	%cl
	cmpb	$3, %al
	setle	%al
	andl	%ecx, %eax
	testb	%al, %al
	je	.L119
	.loc 1 188 51 is_stmt 0
	movq	%rdx, %rdi
	call	__asan_report_load4@PLT
.L119:
	.loc 1 188 51 discriminator 1
	movq	-24(%rbp), %rax
	movl	72(%rax), %eax
	movl	%eax, %edi
	call	_Z17stack_err_decoderj@PLT
	.loc 1 188 83 is_stmt 1 discriminator 1
	movq	-24(%rbp), %rax
	movq	%rax, %rdi
	call	_Z11stack_errorP5Stack@PLT
	movl	%eax, %edx
	movq	-24(%rbp), %rax
	movl	%edx, %r8d
	movl	$188, %ecx
	leaq	.LC1(%rip), %rdx
	leaq	.LC11(%rip), %rsi
	movq	%rax, %rdi
	call	_Z10stack_dumpP5StackPKcS2_ij@PLT
	.loc 1 188 156 discriminator 1
	movl	$0, %eax
	jmp	.L113
.L118:
	.loc 1 189 17
	movq	-24(%rbp), %rax
	addq	$72, %rax
	movq	%rax, %rdx
	movq	%rdx, %rax
	shrq	$3, %rax
	addq	$2147450880, %rax
	movzbl	(%rax), %eax
	testb	%al, %al
	setne	%cl
	cmpb	$3, %al
	setle	%al
	andl	%ecx, %eax
	testb	%al, %al
	je	.L120
	movq	%rdx, %rdi
	call	__asan_report_load4@PLT
.L120:
	movq	-24(%rbp), %rax
	movl	72(%rax), %eax
.L113:
	.loc 1 190 1
	leave
	.cfi_def_cfa 7, 8
	ret
	.cfi_endproc
.LFE963:
	.size	_Z16stack_poison_getP5Stackmm, .-_Z16stack_poison_getP5Stackmm
	.globl	_Z12stack_rehashP5Stack
	.type	_Z12stack_rehashP5Stack, @function
_Z12stack_rehashP5Stack:
.LASANPC964:
.LFB964:
	.loc 1 192 31
	.cfi_startproc
	endbr64
	pushq	%rbp
	.cfi_def_cfa_offset 16
	.cfi_offset 6, -16
	movq	%rsp, %rbp
	.cfi_def_cfa_register 6
	subq	$16, %rsp
	movq	%rdi, -8(%rbp)
	.loc 1 192 66
	movq	-8(%rbp), %rax
	addq	$24, %rax
	movq	%rax, %rdx
	shrq	$3, %rdx
	addq	$2147450880, %rdx
	movzbl	(%rdx), %edx
	testb	%dl, %dl
	je	.L122
	movq	%rax, %rdi
	call	__asan_report_load8@PLT
.L122:
	movq	-8(%rbp), %rax
	movq	24(%rax), %rax
	.loc 1 192 49
	leaq	0(,%rax,8), %rdx
	.loc 1 192 55
	movq	-8(%rbp), %rax
	addq	$8, %rax
	movq	%rax, %rcx
	shrq	$3, %rcx
	addq	$2147450880, %rcx
	movzbl	(%rcx), %ecx
	testb	%cl, %cl
	je	.L123
	movq	%rax, %rdi
	call	__asan_report_load8@PLT
.L123:
	movq	-8(%rbp), %rax
	movq	8(%rax), %rax
	.loc 1 192 49
	movq	%rdx, %rsi
	movq	%rax, %rdi
	call	_Z4hashPvm@PLT
	.loc 1 192 43
	movq	-8(%rbp), %rdx
	addq	$64, %rdx
	movq	%rdx, %rcx
	shrq	$3, %rcx
	addq	$2147450880, %rcx
	movzbl	(%rcx), %ecx
	testb	%cl, %cl
	je	.L124
	movq	%rdx, %rdi
	call	__asan_report_store8@PLT
.L124:
	movq	-8(%rbp), %rdx
	movq	%rax, 64(%rdx)
	.loc 1 192 115
	movq	-8(%rbp), %rax
	movl	$84, %esi
	movq	%rax, %rdi
	call	_Z4hashPvm@PLT
	.loc 1 192 109
	movq	-8(%rbp), %rdx
	addq	$88, %rdx
	movq	%rdx, %rcx
	shrq	$3, %rcx
	addq	$2147450880, %rcx
	movzbl	(%rcx), %ecx
	testb	%cl, %cl
	je	.L125
	movq	%rdx, %rdi
	call	__asan_report_store8@PLT
.L125:
	movq	-8(%rbp), %rdx
	movq	%rax, 88(%rdx)
	.loc 1 192 168
	nop
	leave
	.cfi_def_cfa 7, 8
	ret
	.cfi_endproc
.LFE964:
	.size	_Z12stack_rehashP5Stack, .-_Z12stack_rehashP5Stack
	.section	.rodata
	.align 8
.LC13:
	.string	"src/../include/stack_objects.h"
	.section	.data.rel.local,"aw"
	.align 16
	.type	.LASANLOC1, @object
	.size	.LASANLOC1, 16
.LASANLOC1:
	.quad	.LC13
	.long	16
	.long	14
	.align 16
	.type	.LASANLOC2, @object
	.size	.LASANLOC2, 16
.LASANLOC2:
	.quad	.LC13
	.long	15
	.long	14
	.section	.rodata
.LC14:
	.string	"ARR_CANARY"
.LC15:
	.string	"STRUCT_CANARY"
.LC16:
	.string	"*.LC1"
.LC17:
	.string	"*.LC9"
.LC18:
	.string	"*.LC11"
.LC19:
	.string	"*.LC6"
.LC20:
	.string	"*.LC5"
.LC21:
	.string	"*.LC2"
.LC22:
	.string	"*.LC4"
.LC23:
	.string	"*.LC10"
.LC24:
	.string	"*.LC0"
.LC25:
	.string	"*.LC7"
.LC26:
	.string	"*.LC3"
	.section	.data.rel.local
	.align 32
	.type	.LASAN0, @object
	.size	.LASAN0, 832
.LASAN0:
	.quad	_ZL10ARR_CANARY
	.quad	8
	.quad	64
	.quad	.LC14
	.quad	.LC1
	.quad	0
	.quad	.LASANLOC1
	.quad	0
	.quad	_ZL13STRUCT_CANARY
	.quad	8
	.quad	64
	.quad	.LC15
	.quad	.LC1
	.quad	0
	.quad	.LASANLOC2
	.quad	0
	.quad	.LC1
	.quad	19
	.quad	64
	.quad	.LC16
	.quad	.LC1
	.quad	0
	.quad	0
	.quad	0
	.quad	.LC9
	.quad	11
	.quad	64
	.quad	.LC17
	.quad	.LC1
	.quad	0
	.quad	0
	.quad	0
	.quad	.LC11
	.quad	17
	.quad	64
	.quad	.LC18
	.quad	.LC1
	.quad	0
	.quad	0
	.quad	0
	.quad	.LC6
	.quad	11
	.quad	64
	.quad	.LC19
	.quad	.LC1
	.quad	0
	.quad	0
	.quad	0
	.quad	.LC5
	.quad	21
	.quad	64
	.quad	.LC20
	.quad	.LC1
	.quad	0
	.quad	0
	.quad	0
	.quad	.LC2
	.quad	12
	.quad	64
	.quad	.LC21
	.quad	.LC1
	.quad	0
	.quad	0
	.quad	0
	.quad	.LC4
	.quad	21
	.quad	64
	.quad	.LC22
	.quad	.LC1
	.quad	0
	.quad	0
	.quad	0
	.quad	.LC10
	.quad	13
	.quad	64
	.quad	.LC23
	.quad	.LC1
	.quad	0
	.quad	0
	.quad	0
	.quad	.LC0
	.quad	76
	.quad	128
	.quad	.LC24
	.quad	.LC1
	.quad	0
	.quad	0
	.quad	0
	.quad	.LC7
	.quad	10
	.quad	64
	.quad	.LC25
	.quad	.LC1
	.quad	0
	.quad	0
	.quad	0
	.quad	.LC3
	.quad	11
	.quad	64
	.quad	.LC26
	.quad	.LC1
	.quad	0
	.quad	0
	.quad	0
	.text
	.type	_sub_D_00099_0, @function
_sub_D_00099_0:
.LFB1115:
	.cfi_startproc
	endbr64
	pushq	%rbp
	.cfi_def_cfa_offset 16
	.cfi_offset 6, -16
	movq	%rsp, %rbp
	.cfi_def_cfa_register 6
	movl	$13, %esi
	leaq	.LASAN0(%rip), %rax
	movq	%rax, %rdi
	call	__asan_unregister_globals@PLT
	popq	%rbp
	.cfi_def_cfa 7, 8
	ret
	.cfi_endproc
.LFE1115:
	.size	_sub_D_00099_0, .-_sub_D_00099_0
	.section	.fini_array.00099,"aw"
	.align 8
	.quad	_sub_D_00099_0
	.text
	.type	_sub_I_00099_1, @function
_sub_I_00099_1:
.LFB1116:
	.cfi_startproc
	endbr64
	pushq	%rbp
	.cfi_def_cfa_offset 16
	.cfi_offset 6, -16
	movq	%rsp, %rbp
	.cfi_def_cfa_register 6
	call	__asan_init@PLT
	call	__asan_version_mismatch_check_v8@PLT
	movl	$13, %esi
	leaq	.LASAN0(%rip), %rax
	movq	%rax, %rdi
	call	__asan_register_globals@PLT
	popq	%rbp
	.cfi_def_cfa 7, 8
	ret
	.cfi_endproc
.LFE1116:
	.size	_sub_I_00099_1, .-_sub_I_00099_1
	.section	.init_array.00099,"aw"
	.align 8
	.quad	_sub_I_00099_1
	.section	.rodata
	.align 8
.LC12:
	.long	0
	.long	2146959360
	.text
.Letext0:
	.file 2 "/usr/lib/gcc/x86_64-linux-gnu/11/include/stddef.h"
	.file 3 "/usr/include/stdlib.h"
	.file 4 "/usr/include/x86_64-linux-gnu/bits/types.h"
	.file 5 "/usr/include/x86_64-linux-gnu/sys/types.h"
	.file 6 "/usr/include/c++/11/cstdlib"
	.file 7 "/usr/include/c++/11/bits/std_abs.h"
	.file 8 "/usr/include/c++/11/cmath"
	.file 9 "/usr/include/c++/11/type_traits"
	.file 10 "/usr/include/c++/11/debug/debug.h"
	.file 11 "/usr/include/c++/11/bits/stl_iterator.h"
	.file 12 "/usr/include/c++/11/bits/predefined_ops.h"
	.file 13 "/usr/include/c++/11/stdlib.h"
	.file 14 "/usr/include/math.h"
	.file 15 "/usr/include/x86_64-linux-gnu/c++/11/bits/c++config.h"
	.file 16 "/usr/include/c++/11/math.h"
	.file 17 "src/../include/debug.h"
	.file 18 "src/../include/stack_objects.h"
	.file 19 "/usr/include/assert.h"
	.file 20 "/usr/include/x86_64-linux-gnu/bits/confname.h"
	.section	.note.GNU-stack,"",@progbits
	.section	.note.gnu.property,"a"
	.align 8
	.long	1f - 0f
	.long	4f - 1f
	.long	5
0:
	.string	"GNU"
1:
	.align 8
	.long	0xc0000002
	.long	3f - 2f
2:
	.long	0x3
3:
	.align 8
4:
